ASxxxx Linker V02.00 + NoICE + sdld,  page 1.
Hexadecimal  [32-Bits]

Area                                    Addr        Size        Decimal Bytes (Attributes)
--------------------------------        ----        ----        ------- ----- ------------
CABS                                00000000    00000000 =           0. bytes (ABS,CON,CODE)

      Value  Global                              Global Defined In Module
      -----  --------------------------------   ------------------------
     0C:   00000000  l_CABS                          
     0C:   00000000  l_GSINIT                        
     0C:   00000000  l_GSINIT1                       
     0C:   00000000  l_GSINIT5                       
     0C:   00000000  l_IABS                          
     0C:   00000000  l_ISEG                          
     0C:   00000000  l_OSEG                          
     0C:   00000000  l_PSEG                          
     0C:   00000000  l_REG_BANK_1                    
     0C:   00000000  l_REG_BANK_2                    
     0C:   00000000  l_REG_BANK_3                    
     0C:   00000000  l_RSEG                          
     0C:   00000000  l_RSEG0                         
     0C:   00000000  l_RSEG1                         
     0C:   00000000  l_XABS                          
     0C:   00000000  l_XINIT                         
     0C:   00000000  l_XISEG                         
     0C:   00000000  l_XSEG                          
     0C:   00000000  l__CODE                         
     0C:   00000000  s_BSEG                          
     0C:   00000000  s_CABS                          
     0C:   00000000  s_DSEG                          
     0C:   00000000  s_HOME                          
     0C:   00000000  s_IABS                          
     0C:   00000000  s_ISEG                          
     0C:   00000000  s_PSEG                          
     0C:   00000000  s_REG_BANK_0                    
     0C:   00000000  s_RSEG                          
     0C:   00000000  s_RSEG0                         
     0C:   00000000  s_RSEG1                         
     0C:   00000000  s_XABS                          
     0C:   00000000  s_XISEG                         
     0C:   00000000  s_XSEG                          
     0C:   00000001  l_BIT_BANK                      
     0C:   00000003  l_BSEG_BYTES                    
     0C:   00000003  l_GSFINAL                       
     0C:   00000003  l_GSINIT0                       
     0C:   00000008  l_REG_BANK_0                    
     0C:   00000008  s_REG_BANK_1                    
     0C:   0000000A  l_GSINIT2                       
     0C:   00000010  s_REG_BANK_2                    
     0C:   00000013  l_BSEG                          
     0C:   00000018  s_REG_BANK_3                    
     0C:   0000001C  l_CONST                         
     0C:   00000020  s_BSEG_BYTES                    
     0C:   00000020  s__CODE                         
     0C:   00000022  l_GSINIT3                       
     0C:   00000023  l_HOME                          
     0C:   00000023  s_BIT_BANK                      
     0C:   00000023  s_GSINIT0                       
ASxxxx Linker V02.00 + NoICE + sdld,  page 2.
Hexadecimal  [32-Bits]

Area                                    Addr        Size        Decimal Bytes (Attributes)
--------------------------------        ----        ----        ------- ----- ------------
CABS                                00000000    00000000 =           0. bytes (ABS,CON,CODE)

      Value  Global                              Global Defined In Module
      -----  --------------------------------   ------------------------
     0C:   00000023  s_OSEG                          
     0C:   00000026  s_GSINIT1                       
     0C:   00000026  s_GSINIT2                       
     0C:   0000002A  l_GSINIT4                       
     0C:   00000030  s_GSINIT3                       
     0C:   00000052  s_GSINIT4                       
     0C:   00000069  l_DSEG                          
     0C:   0000007C  s_GSFINAL                       
     0C:   0000007C  s_GSINIT                        
     0C:   0000007C  s_GSINIT5                       
     0C:   0000007C  s_SSEG                          
     0C:   0000007F  s_CSEG                          
     0C:   00000084  l_SSEG                          
     0C:   00000100  l_IRAM                          
     0C:   00001793  l_CSEG                          
     0C:   00001812  s_CONST                         
     0C:   0000182E  s_XINIT                         

ASxxxx Linker V02.00 + NoICE + sdld,  page 3.
Hexadecimal  [32-Bits]

Area                                    Addr        Size        Decimal Bytes (Attributes)
--------------------------------        ----        ----        ------- ----- ------------
.	.ABS.                             00000000    00000000 =           0. bytes (ABS,CON)

      Value  Global                              Global Defined In Module
      -----  --------------------------------   ------------------------
           00000000  .__.ABS.                           _startup
           00000000  G$RAM$0$0                          fb_app_rollo10
           00000000  _RAM                               fb_app_rollo10
           00000009  G$delay_toggle$0$0                 fb_app_rollo10
           00000009  G$timer$0$0                        fb_app_rollo10
           00000009  _delay_toggle                      fb_app_rollo10
           00000009  _timer                             fb_app_rollo10
           0000000B  G$objects_move$0$0                 fb_app_rollo10
           0000000B  _objects_move                      fb_app_rollo10
           0000000C  G$objects_smove$0$0                fb_app_rollo10
           0000000C  _objects_smove                     fb_app_rollo10
           0000000D  G$portbuffer$0$0                   fb_app_rollo10
           0000000D  _portbuffer                        fb_app_rollo10
           0000000E  G$oldportbuffer$0$0                fb_app_rollo10
           0000000E  _oldportbuffer                     fb_app_rollo10
           0000000F  G$blocked$0$0                      fb_app_rollo10
           0000000F  _blocked                           fb_app_rollo10
           00000010  G$timerbase$0$0                    fb_app_rollo10
           00000010  _timerbase                         fb_app_rollo10
           00000080  G$P0$0$0                           fb_lpc922
           00000080  G$P0_0$0$0                         fb_lpc922
           00000080  _P0                                fb_lpc922
           00000080  _P0_0                              fb_lpc922
           00000081  G$P0_1$0$0                         fb_lpc922
           00000081  G$SP$0$0                           fb_lpc922
           00000081  _P0_1                              fb_lpc922
           00000081  _SP                                fb_lpc922
           00000082  G$DPL$0$0                          fb_lpc922
           00000082  G$P0_2$0$0                         fb_lpc922
           00000082  _DPL                               fb_lpc922
           00000082  _P0_2                              fb_lpc922
           00000083  G$DPH$0$0                          fb_lpc922
           00000083  G$P0_3$0$0                         fb_lpc922
           00000083  _DPH                               fb_lpc922
           00000083  _P0_3                              fb_lpc922
           00000084  G$P0M1$0$0                         fb_lpc922
           00000084  G$P0_4$0$0                         fb_lpc922
           00000084  _P0M1                              fb_lpc922
           00000084  _P0_4                              fb_lpc922
           00000085  G$P0M2$0$0                         fb_lpc922
           00000085  G$P0_5$0$0                         fb_lpc922
           00000085  _P0M2                              fb_lpc922
           00000085  _P0_5                              fb_lpc922
           00000086  G$KBMASK$0$0                       fb_lpc922
           00000086  G$P0_6$0$0                         fb_lpc922
           00000086  _KBMASK                            fb_lpc922
           00000086  _P0_6                              fb_lpc922
           00000087  G$P0_7$0$0                         fb_lpc922
           00000087  G$PCON$0$0                         fb_lpc922
           00000087  _P0_7                              fb_lpc922
ASxxxx Linker V02.00 + NoICE + sdld,  page 4.
Hexadecimal  [32-Bits]

Area                                    Addr        Size        Decimal Bytes (Attributes)
--------------------------------        ----        ----        ------- ----- ------------
.	.ABS.                             00000000    00000000 =           0. bytes (ABS,CON)

      Value  Global                              Global Defined In Module
      -----  --------------------------------   ------------------------
           00000087  _PCON                              fb_lpc922
           00000088  G$TCON$0$0                         fb_lpc922
           00000088  G$TCON_0$0$0                       fb_lpc922
           00000088  _TCON                              fb_lpc922
           00000088  _TCON_0                            fb_lpc922
           00000089  G$TCON_1$0$0                       fb_lpc922
           00000089  G$TMOD$0$0                         fb_lpc922
           00000089  _TCON_1                            fb_lpc922
           00000089  _TMOD                              fb_lpc922
           0000008A  G$TCON_2$0$0                       fb_lpc922
           0000008A  G$TL0$0$0                          fb_lpc922
           0000008A  _TCON_2                            fb_lpc922
           0000008A  _TL0                               fb_lpc922
           0000008B  G$TCON_3$0$0                       fb_lpc922
           0000008B  G$TL1$0$0                          fb_lpc922
           0000008B  _TCON_3                            fb_lpc922
           0000008B  _TL1                               fb_lpc922
           0000008C  G$TCON_4$0$0                       fb_lpc922
           0000008C  G$TH0$0$0                          fb_lpc922
           0000008C  _TCON_4                            fb_lpc922
           0000008C  _TH0                               fb_lpc922
           0000008D  G$TCON_5$0$0                       fb_lpc922
           0000008D  G$TH1$0$0                          fb_lpc922
           0000008D  _TCON_5                            fb_lpc922
           0000008D  _TH1                               fb_lpc922
           0000008E  G$TCON_6$0$0                       fb_lpc922
           0000008E  _TCON_6                            fb_lpc922
           0000008F  G$TAMOD$0$0                        fb_lpc922
           0000008F  G$TCON_7$0$0                       fb_lpc922
           0000008F  _TAMOD                             fb_lpc922
           0000008F  _TCON_7                            fb_lpc922
           00000090  G$P1$0$0                           fb_lpc922
           00000090  G$P1_0$0$0                         fb_lpc922
           00000090  _P1                                fb_lpc922
           00000090  _P1_0                              fb_lpc922
           00000091  G$P1M1$0$0                         fb_lpc922
           00000091  G$P1_1$0$0                         fb_lpc922
           00000091  _P1M1                              fb_lpc922
           00000091  _P1_1                              fb_lpc922
           00000092  G$P1M2$0$0                         fb_lpc922
           00000092  G$P1_2$0$0                         fb_lpc922
           00000092  _P1M2                              fb_lpc922
           00000092  _P1_2                              fb_lpc922
           00000093  G$KBPATN$0$0                       fb_lpc922
           00000093  G$P1_3$0$0                         fb_lpc922
           00000093  _KBPATN                            fb_lpc922
           00000093  _P1_3                              fb_lpc922
           00000094  G$KBCON$0$0                        fb_lpc922
           00000094  G$P1_4$0$0                         fb_lpc922
           00000094  _KBCON                             fb_lpc922
           00000094  _P1_4                              fb_lpc922
ASxxxx Linker V02.00 + NoICE + sdld,  page 5.
Hexadecimal  [32-Bits]

Area                                    Addr        Size        Decimal Bytes (Attributes)
--------------------------------        ----        ----        ------- ----- ------------
.	.ABS.                             00000000    00000000 =           0. bytes (ABS,CON)

      Value  Global                              Global Defined In Module
      -----  --------------------------------   ------------------------
           00000095  G$DIVM$0$0                         fb_lpc922
           00000095  G$P1_5$0$0                         fb_lpc922
           00000095  _DIVM                              fb_lpc922
           00000095  _P1_5                              fb_lpc922
           00000096  G$P1_6$0$0                         fb_lpc922
           00000096  G$TRIM$0$0                         fb_lpc922
           00000096  _P1_6                              fb_lpc922
           00000096  _TRIM                              fb_lpc922
           00000097  G$P1_7$0$0                         fb_lpc922
           00000097  _P1_7                              fb_lpc922
           00000098  G$SCON$0$0                         fb_lpc922
           00000098  G$SCON_0$0$0                       fb_lpc922
           00000098  _SCON                              fb_lpc922
           00000098  _SCON_0                            fb_lpc922
           00000099  G$SBUF$0$0                         fb_lpc922
           00000099  G$SCON_1$0$0                       fb_lpc922
           00000099  _SBUF                              fb_lpc922
           00000099  _SCON_1                            fb_lpc922
           0000009A  G$SCON_2$0$0                       fb_lpc922
           0000009A  _SCON_2                            fb_lpc922
           0000009B  G$SCON_3$0$0                       fb_lpc922
           0000009B  _SCON_3                            fb_lpc922
           0000009C  G$SCON_4$0$0                       fb_lpc922
           0000009C  _SCON_4                            fb_lpc922
           0000009D  G$SCON_5$0$0                       fb_lpc922
           0000009D  _SCON_5                            fb_lpc922
           0000009E  G$SCON_6$0$0                       fb_lpc922
           0000009E  _SCON_6                            fb_lpc922
           0000009F  G$SCON_7$0$0                       fb_lpc922
           0000009F  _SCON_7                            fb_lpc922
           000000A0  __XPAGE                            
           000000A2  G$AUXR1$0$0                        fb_lpc922
           000000A2  _AUXR1                             fb_lpc922
           000000A7  G$WDCON$0$0                        fb_lpc922
           000000A7  _WDCON                             fb_lpc922
           000000A8  G$IEN0$0$0                         fb_lpc922
           000000A8  G$IEN0_0$0$0                       fb_lpc922
           000000A8  _IEN0                              fb_lpc922
           000000A8  _IEN0_0                            fb_lpc922
           000000A9  G$IEN0_1$0$0                       fb_lpc922
           000000A9  G$SADDR$0$0                        fb_lpc922
           000000A9  _IEN0_1                            fb_lpc922
           000000A9  _SADDR                             fb_lpc922
           000000AA  G$IEN0_2$0$0                       fb_lpc922
           000000AA  _IEN0_2                            fb_lpc922
           000000AB  G$IEN0_3$0$0                       fb_lpc922
           000000AB  _IEN0_3                            fb_lpc922
           000000AC  G$CMP1$0$0                         fb_lpc922
           000000AC  G$IEN0_4$0$0                       fb_lpc922
           000000AC  _CMP1                              fb_lpc922
           000000AC  _IEN0_4                            fb_lpc922
ASxxxx Linker V02.00 + NoICE + sdld,  page 6.
Hexadecimal  [32-Bits]

Area                                    Addr        Size        Decimal Bytes (Attributes)
--------------------------------        ----        ----        ------- ----- ------------
.	.ABS.                             00000000    00000000 =           0. bytes (ABS,CON)

      Value  Global                              Global Defined In Module
      -----  --------------------------------   ------------------------
           000000AD  G$CMP2$0$0                         fb_lpc922
           000000AD  G$IEN0_5$0$0                       fb_lpc922
           000000AD  _CMP2                              fb_lpc922
           000000AD  _IEN0_5                            fb_lpc922
           000000AE  G$IEN0_6$0$0                       fb_lpc922
           000000AE  _IEN0_6                            fb_lpc922
           000000AF  G$IEN0_7$0$0                       fb_lpc922
           000000AF  _IEN0_7                            fb_lpc922
           000000B0  G$P3$0$0                           fb_lpc922
           000000B0  G$P3_0$0$0                         fb_lpc922
           000000B0  _P3                                fb_lpc922
           000000B0  _P3_0                              fb_lpc922
           000000B1  G$P3M1$0$0                         fb_lpc922
           000000B1  G$P3_1$0$0                         fb_lpc922
           000000B1  _P3M1                              fb_lpc922
           000000B1  _P3_1                              fb_lpc922
           000000B2  G$P3M2$0$0                         fb_lpc922
           000000B2  _P3M2                              fb_lpc922
           000000B5  G$PCONA$0$0                        fb_lpc922
           000000B5  _PCONA                             fb_lpc922
           000000B7  G$IP0H$0$0                         fb_lpc922
           000000B7  _IP0H                              fb_lpc922
           000000B8  G$IP0$0$0                          fb_lpc922
           000000B8  G$IP0_0$0$0                        fb_lpc922
           000000B8  _IP0                               fb_lpc922
           000000B8  _IP0_0                             fb_lpc922
           000000B9  G$IP0_1$0$0                        fb_lpc922
           000000B9  G$SADEN$0$0                        fb_lpc922
           000000B9  _IP0_1                             fb_lpc922
           000000B9  _SADEN                             fb_lpc922
           000000BA  G$IP0_2$0$0                        fb_lpc922
           000000BA  G$SSTAT$0$0                        fb_lpc922
           000000BA  _IP0_2                             fb_lpc922
           000000BA  _SSTAT                             fb_lpc922
           000000BB  G$IP0_3$0$0                        fb_lpc922
           000000BB  _IP0_3                             fb_lpc922
           000000BC  G$IP0_4$0$0                        fb_lpc922
           000000BC  _IP0_4                             fb_lpc922
           000000BD  G$BRGCON$0$0                       fb_lpc922
           000000BD  G$IP0_5$0$0                        fb_lpc922
           000000BD  _BRGCON                            fb_lpc922
           000000BD  _IP0_5                             fb_lpc922
           000000BE  G$BRGR0$0$0                        fb_lpc922
           000000BE  G$IP0_6$0$0                        fb_lpc922
           000000BE  _BRGR0                             fb_lpc922
           000000BE  _IP0_6                             fb_lpc922
           000000BF  G$BRGR1$0$0                        fb_lpc922
           000000BF  _BRGR1                             fb_lpc922
           000000C1  G$WDL$0$0                          fb_lpc922
           000000C1  _WDL                               fb_lpc922
           000000C2  G$WFEED1$0$0                       fb_lpc922
ASxxxx Linker V02.00 + NoICE + sdld,  page 7.
Hexadecimal  [32-Bits]

Area                                    Addr        Size        Decimal Bytes (Attributes)
--------------------------------        ----        ----        ------- ----- ------------
.	.ABS.                             00000000    00000000 =           0. bytes (ABS,CON)

      Value  Global                              Global Defined In Module
      -----  --------------------------------   ------------------------
           000000C2  _WFEED1                            fb_lpc922
           000000C3  G$WFEED2$0$0                       fb_lpc922
           000000C3  _WFEED2                            fb_lpc922
           000000D0  G$PSW$0$0                          fb_lpc922
           000000D0  G$PSW_0$0$0                        fb_lpc922
           000000D0  _PSW                               fb_lpc922
           000000D0  _PSW_0                             fb_lpc922
           000000D1  G$PSW_1$0$0                        fb_lpc922
           000000D1  G$RTCCON$0$0                       fb_lpc922
           000000D1  _PSW_1                             fb_lpc922
           000000D1  _RTCCON                            fb_lpc922
           000000D2  G$PSW_2$0$0                        fb_lpc922
           000000D2  G$RTCH$0$0                         fb_lpc922
           000000D2  _PSW_2                             fb_lpc922
           000000D2  _RTCH                              fb_lpc922
           000000D3  G$PSW_3$0$0                        fb_lpc922
           000000D3  G$RTCL$0$0                         fb_lpc922
           000000D3  _PSW_3                             fb_lpc922
           000000D3  _RTCL                              fb_lpc922
           000000D4  G$PSW_4$0$0                        fb_lpc922
           000000D4  _PSW_4                             fb_lpc922
           000000D5  G$PSW_5$0$0                        fb_lpc922
           000000D5  _PSW_5                             fb_lpc922
           000000D6  G$PSW_6$0$0                        fb_lpc922
           000000D6  _PSW_6                             fb_lpc922
           000000D7  G$PSW_7$0$0                        fb_lpc922
           000000D7  _PSW_7                             fb_lpc922
           000000D8  G$I2CON$0$0                        fb_lpc922
           000000D8  G$I2CON_0$0$0                      fb_lpc922
           000000D8  _I2CON                             fb_lpc922
           000000D8  _I2CON_0                           fb_lpc922
           000000D9  G$I2STAT$0$0                       fb_lpc922
           000000D9  _I2STAT                            fb_lpc922
           000000DA  G$I2CON_2$0$0                      fb_lpc922
           000000DA  G$I2DAT$0$0                        fb_lpc922
           000000DA  _I2CON_2                           fb_lpc922
           000000DA  _I2DAT                             fb_lpc922
           000000DB  G$I2ADR$0$0                        fb_lpc922
           000000DB  G$I2CON_3$0$0                      fb_lpc922
           000000DB  _I2ADR                             fb_lpc922
           000000DB  _I2CON_3                           fb_lpc922
           000000DC  G$I2CON_4$0$0                      fb_lpc922
           000000DC  G$I2SCLL$0$0                       fb_lpc922
           000000DC  _I2CON_4                           fb_lpc922
           000000DC  _I2SCLL                            fb_lpc922
           000000DD  G$I2CON_5$0$0                      fb_lpc922
           000000DD  G$I2SCLH$0$0                       fb_lpc922
           000000DD  _I2CON_5                           fb_lpc922
           000000DD  _I2SCLH                            fb_lpc922
           000000DE  G$I2CON_6$0$0                      fb_lpc922
           000000DE  _I2CON_6                           fb_lpc922
ASxxxx Linker V02.00 + NoICE + sdld,  page 8.
Hexadecimal  [32-Bits]

Area                                    Addr        Size        Decimal Bytes (Attributes)
--------------------------------        ----        ----        ------- ----- ------------
.	.ABS.                             00000000    00000000 =           0. bytes (ABS,CON)

      Value  Global                              Global Defined In Module
      -----  --------------------------------   ------------------------
           000000DF  G$RSTSRC$0$0                       fb_lpc922
           000000DF  _RSTSRC                            fb_lpc922
           000000E0  G$ACC$0$0                          fb_lpc922
           000000E0  _ACC                               fb_lpc922
           000000E4  G$FMCON$0$0                        fb_lpc922
           000000E4  _FMCON                             fb_lpc922
           000000E5  G$FMDATA$0$0                       fb_lpc922
           000000E5  _FMDATA                            fb_lpc922
           000000E6  G$FMADRL$0$0                       fb_lpc922
           000000E6  _FMADRL                            fb_lpc922
           000000E7  G$FMADRH$0$0                       fb_lpc922
           000000E7  _FMADRH                            fb_lpc922
           000000E8  G$IEN1$0$0                         fb_lpc922
           000000E8  G$IEN1_0$0$0                       fb_lpc922
           000000E8  _IEN1                              fb_lpc922
           000000E8  _IEN1_0                            fb_lpc922
           000000E9  G$IEN1_1$0$0                       fb_lpc922
           000000E9  _IEN1_1                            fb_lpc922
           000000EA  G$IEN1_2$0$0                       fb_lpc922
           000000EA  _IEN1_2                            fb_lpc922
           000000F0  G$B$0$0                            fb_lpc922
           000000F0  _B                                 fb_lpc922
           000000F6  G$PT0AD$0$0                        fb_lpc922
           000000F6  _PT0AD                             fb_lpc922
           000000F7  G$IP1H$0$0                         fb_lpc922
           000000F7  _IP1H                              fb_lpc922
           000000F8  G$IP1$0$0                          fb_lpc922
           000000F8  G$IP1_0$0$0                        fb_lpc922
           000000F8  _IP1                               fb_lpc922
           000000F8  _IP1_0                             fb_lpc922
           000000F9  G$IP1_1$0$0                        fb_lpc922
           000000F9  _IP1_1                             fb_lpc922
           000000FA  G$IP1_2$0$0                        fb_lpc922
           000000FA  _IP1_2                             fb_lpc922
           000000FE  G$IP1_6$0$0                        fb_lpc922
           000000FE  _IP1_6                             fb_lpc922
           00001BFD  Ffb_app_rollo10$blockedsave$0$0    fb_app_rollo10
           00001BFD  Lfb_rollo10.main$blockedsave$1$1   fb_rollo10
           00001BFF  Lfb_rollo10.main$trimsave$1$1      fb_rollo10
           00001C00  G$userram$0$0                      fb_lpc922
           00001C00  _userram                           fb_lpc922
           00001D00  G$eeprom$0$0                       fb_lpc922
           00001D00  _eeprom                            fb_lpc922
ASxxxx Linker V02.00 + NoICE + sdld,  page 9.
Hexadecimal  [32-Bits]

Area                                    Addr        Size        Decimal Bytes (Attributes)
--------------------------------        ----        ----        ------- ----- ------------
BSEG_BYTES                          00000020    00000003 =           3. bytes (REL,CON)

      Value  Global                              Global Defined In Module
      -----  --------------------------------   ------------------------
ASxxxx Linker V02.00 + NoICE + sdld,  page 10.
Hexadecimal  [32-Bits]

Area                                    Addr        Size        Decimal Bytes (Attributes)
--------------------------------        ----        ----        ------- ----- ------------
REG_BANK_0                          00000000    00000008 =           8. bytes (REL,OVR)

      Value  Global                              Global Defined In Module
      -----  --------------------------------   ------------------------
ASxxxx Linker V02.00 + NoICE + sdld,  page 11.
Hexadecimal  [32-Bits]

Area                                    Addr        Size        Decimal Bytes (Attributes)
--------------------------------        ----        ----        ------- ----- ------------
BSEG                                00000000    00000013 =          19. bytes (REL,CON,BIT)

      Value  Global                              Global Defined In Module
      -----  --------------------------------   ------------------------
     0B:   00000000  G$portchanged$0$0                  fb_app_rollo10
     0B:   00000000  _portchanged                       fb_app_rollo10
     0B:   00000001  G$state$0$0                        fb_app_rollo10
     0B:   00000001  _state                             fb_app_rollo10
     0B:   00000002  G$handmode$0$0                     fb_app_rollo10
     0B:   00000002  _handmode                          fb_app_rollo10
     0B:   00000003  G$parity_ok$0$0                    fb_lpc922
     0B:   00000003  _parity_ok                         fb_lpc922
     0B:   00000004  G$interrupted$0$0                  fb_lpc922
     0B:   00000004  _interrupted                       fb_lpc922
     0B:   00000005  G$fb_parity$0$0                    fb_lpc922
     0B:   00000005  _fb_parity                         fb_lpc922
     0B:   00000006  G$ack$0$0                          fb_lpc922
     0B:   00000006  _ack                               fb_lpc922
     0B:   00000007  G$nack$0$0                         fb_lpc922
     0B:   00000007  _nack                              fb_lpc922
     0B:   00000008  G$its_me$0$0                       fb_lpc922
     0B:   00000008  _its_me                            fb_lpc922
     0B:   00000009  G$tel_arrived$0$0                  fb_lpc922
     0B:   00000009  _tel_arrived                       fb_lpc922
     0B:   0000000A  G$tel_sent$0$0                     fb_lpc922
     0B:   0000000A  _tel_sent                          fb_lpc922
     0B:   0000000B  G$auto_ack$0$0                     fb_lpc922
     0B:   0000000B  _auto_ack                          fb_lpc922
     0B:   0000000C  G$fbtx_bit$0$0                     fb_lpc922
     0B:   0000000C  _fbtx_bit                          fb_lpc922
     0B:   0000000D  G$wait_for_ack$0$0                 fb_lpc922
     0B:   0000000D  _wait_for_ack                      fb_lpc922
     0B:   0000000E  G$send_ack$0$0                     fb_lpc922
     0B:   0000000E  _send_ack                          fb_lpc922
     0B:   0000000F  G$send_nack$0$0                    fb_lpc922
     0B:   0000000F  _send_nack                         fb_lpc922
     0B:   00000010  G$transparency$0$0                 fb_lpc922
     0B:   00000010  _transparency                      fb_lpc922
     0B:   00000011  G$connected$0$0                    fb_lpc922
     0B:   00000011  _connected                         fb_lpc922
     0B:   00000012  G$inc_pcount$0$0                   fb_lpc922
     0B:   00000012  _inc_pcount                        fb_lpc922

ASxxxx Linker V02.00 + NoICE + sdld,  page 12.
Hexadecimal  [32-Bits]

Area                                    Addr        Size        Decimal Bytes (Attributes)
--------------------------------        ----        ----        ------- ----- ------------
BIT_BANK                            00000023    00000001 =           1. bytes (REL,OVR)

      Value  Global                              Global Defined In Module
      -----  --------------------------------   ------------------------
ASxxxx Linker V02.00 + NoICE + sdld,  page 13.
Hexadecimal  [32-Bits]

Area                                    Addr        Size        Decimal Bytes (Attributes)
--------------------------------        ----        ----        ------- ----- ------------
DSEG                                00000000    00000069 =         105. bytes (REL,CON)

      Value  Global                              Global Defined In Module
      -----  --------------------------------   ------------------------
           00000008  _bp                                _bp
           00000024  G$timercnt$0$0                     fb_app_rollo10
           00000024  _timercnt                          fb_app_rollo10
           00000034  G$timerstate$0$0                   fb_app_rollo10
           00000034  _timerstate                        fb_app_rollo10
           00000044  G$Tval$0$0                         fb_app_rollo10
           00000044  _Tval                              fb_app_rollo10
           00000045  G$zfstate$0$0                      fb_app_rollo10
           00000045  _zfstate                           fb_app_rollo10
           00000046  G$oldblockvalue$0$0                fb_app_rollo10
           00000046  _oldblockvalue                     fb_app_rollo10
           00000047  G$kanal$0$0                        fb_app_rollo10
           00000047  _kanal                             fb_app_rollo10
           0000004B  G$knr$0$0                          fb_app_rollo10
           0000004B  _knr                               fb_app_rollo10
           0000004C  G$ledport$0$0                      fb_app_rollo10
           0000004C  _ledport                           fb_app_rollo10
           0000004D  G$conh$0$0                         fb_lpc922
           0000004D  _conh                              fb_lpc922
           0000004E  G$conl$0$0                         fb_lpc922
           0000004E  _conl                              fb_lpc922
           0000004F  G$pcount$0$0                       fb_lpc922
           0000004F  _pcount                            fb_lpc922
           00000050  G$mem_length$0$0                   fb_lpc922
           00000050  _mem_length                        fb_lpc922
           00000051  G$mem_adrh$0$0                     fb_lpc922
           00000051  _mem_adrh                          fb_lpc922
           00000052  G$mem_adrl$0$0                     fb_lpc922
           00000052  _mem_adrl                          fb_lpc922
           00000053  G$senders_pcount$0$0               fb_lpc922
           00000053  _senders_pcount                    fb_lpc922
           00000054  G$telegramm$0$0                    fb_lpc922
           00000054  _telegramm                         fb_lpc922
           0000006B  G$tx_buffer$0$0                    fb_lpc922
           0000006B  _tx_buffer                         fb_lpc922
           00000073  G$telpos$0$0                       fb_lpc922
           00000073  _telpos                            fb_lpc922
           00000074  G$cs$0$0                           fb_lpc922
           00000074  _cs                                fb_lpc922
           00000075  G$fbrx_byte$0$0                    fb_lpc922
           00000075  _fbrx_byte                         fb_lpc922
           00000076  G$fb_pattern$0$0                   fb_lpc922
           00000076  _fb_pattern                        fb_lpc922
           00000077  G$fb_state$0$0                     fb_lpc922
           00000077  _fb_state                          fb_lpc922
           00000078  G$repeat_count$0$0                 fb_lpc922
           00000078  _repeat_count                      fb_lpc922
           00000079  G$tx_nextwrite$0$0                 fb_lpc922
           00000079  _tx_nextwrite                      fb_lpc922
           0000007A  G$tx_nextsend$0$0                  fb_lpc922
ASxxxx Linker V02.00 + NoICE + sdld,  page 14.
Hexadecimal  [32-Bits]

Area                                    Addr        Size        Decimal Bytes (Attributes)
--------------------------------        ----        ----        ------- ----- ------------
DSEG                                00000000    00000069 =         105. bytes (REL,CON)

      Value  Global                              Global Defined In Module
      -----  --------------------------------   ------------------------
           0000007A  _tx_nextsend                       fb_lpc922
           0000007B  G$status60$0$0                     fb_lpc922
           0000007B  _status60                          fb_lpc922

ASxxxx Linker V02.00 + NoICE + sdld,  page 15.
Hexadecimal  [32-Bits]

Area                                    Addr        Size        Decimal Bytes (Attributes)
--------------------------------        ----        ----        ------- ----- ------------
SSEG                                0000007C    00000084 =         132. bytes (REL,OVR)

      Value  Global                              Global Defined In Module
      -----  --------------------------------   ------------------------
           0000007C  __start__stack                     fb_rollo10

ASxxxx Linker V02.00 + NoICE + sdld,  page 16.
Hexadecimal  [32-Bits]

Area                                    Addr        Size        Decimal Bytes (Attributes)
--------------------------------        ----        ----        ------- ----- ------------
HOME                                00000000    00000023 =          35. bytes (REL,CON,CODE)

      Value  Global                              Global Defined In Module
      -----  --------------------------------   ------------------------
     0C:   00000000  A$fb_rollo10$515                   fb_rollo10
     0C:   00000003  A$fb_rollo10$516                   fb_rollo10
     0C:   0000000B  A$fb_rollo10$518                   fb_rollo10
     0C:   00000013  A$fb_rollo10$520                   fb_rollo10
     0C:   0000001B  A$fb_rollo10$522                   fb_rollo10
     0C:   0000001E  A$fb_rollo10$544                   fb_rollo10
     0C:   0000001E  __sdcc_program_startup             fb_rollo10
     0C:   00000021  A$fb_rollo10$546                   fb_rollo10

ASxxxx Linker V02.00 + NoICE + sdld,  page 17.
Hexadecimal  [32-Bits]

Area                                    Addr        Size        Decimal Bytes (Attributes)
--------------------------------        ----        ----        ------- ----- ------------
GSINIT0                             00000023    00000003 =           3. bytes (REL,CON,CODE)

      Value  Global                              Global Defined In Module
      -----  --------------------------------   ------------------------
     0C:   00000023  __sdcc_gsinit_startup              

ASxxxx Linker V02.00 + NoICE + sdld,  page 18.
Hexadecimal  [32-Bits]

Area                                    Addr        Size        Decimal Bytes (Attributes)
--------------------------------        ----        ----        ------- ----- ------------
GSINIT2                             00000026    0000000A =          10. bytes (REL,CON,CODE)

      Value  Global                              Global Defined In Module
      -----  --------------------------------   ------------------------
ASxxxx Linker V02.00 + NoICE + sdld,  page 19.
Hexadecimal  [32-Bits]

Area                                    Addr        Size        Decimal Bytes (Attributes)
--------------------------------        ----        ----        ------- ----- ------------
GSINIT3                             00000030    00000022 =          34. bytes (REL,CON,CODE)

      Value  Global                              Global Defined In Module
      -----  --------------------------------   ------------------------
     0C:   00000030  __mcs51_genXINIT                   

ASxxxx Linker V02.00 + NoICE + sdld,  page 20.
Hexadecimal  [32-Bits]

Area                                    Addr        Size        Decimal Bytes (Attributes)
--------------------------------        ----        ----        ------- ----- ------------
GSINIT4                             00000052    0000002A =          42. bytes (REL,CON,CODE)

      Value  Global                              Global Defined In Module
      -----  --------------------------------   ------------------------
     0C:   00000052  __mcs51_genRAMCLEAR                
     0C:   00000058  __mcs51_genXRAMCLEAR               

ASxxxx Linker V02.00 + NoICE + sdld,  page 21.
Hexadecimal  [32-Bits]

Area                                    Addr        Size        Decimal Bytes (Attributes)
--------------------------------        ----        ----        ------- ----- ------------
GSFINAL                             0000007C    00000003 =           3. bytes (REL,CON,CODE)

      Value  Global                              Global Defined In Module
      -----  --------------------------------   ------------------------
     0C:   0000007C  A$fb_rollo10$537                   fb_rollo10

ASxxxx Linker V02.00 + NoICE + sdld,  page 22.
Hexadecimal  [32-Bits]

Area                                    Addr        Size        Decimal Bytes (Attributes)
--------------------------------        ----        ----        ------- ----- ------------
CSEG                                0000007F    00001793 =        6035. bytes (REL,CON,CODE)

      Value  Global                              Global Defined In Module
      -----  --------------------------------   ------------------------
     0C:   0000007F  A$fb_rollo10$579                   fb_rollo10
     0C:   0000007F  C$fb_rollo10.c$44$0$0              fb_rollo10
     0C:   0000007F  C$fb_rollo10.c$46$1$0              fb_rollo10
     0C:   0000007F  G$main$0$0                         fb_rollo10
     0C:   0000007F  _main                              fb_rollo10
     0C:   00000081  A$fb_rollo10$582                   fb_rollo10
     0C:   00000081  C$fb_rollo10.c$54$1$0              fb_rollo10
     0C:   00000083  A$fb_rollo10$585                   fb_rollo10
     0C:   00000083  C$fb_rollo10.c$55$1$1              fb_rollo10
     0C:   00000085  A$fb_rollo10$586                   fb_rollo10
     0C:   00000086  A$fb_rollo10$587                   fb_rollo10
     0C:   00000088  A$fb_rollo10$588                   fb_rollo10
     0C:   0000008A  A$fb_rollo10$589                   fb_rollo10
     0C:   0000008C  A$fb_rollo10$592                   fb_rollo10
     0C:   0000008C  C$fb_rollo10.c$56$1$1              fb_rollo10
     0C:   0000008E  A$fb_rollo10$593                   fb_rollo10
     0C:   00000090  A$fb_rollo10$594                   fb_rollo10
     0C:   00000093  A$fb_rollo10$595                   fb_rollo10
     0C:   00000095  A$fb_rollo10$596                   fb_rollo10
     0C:   00000097  A$fb_rollo10$599                   fb_rollo10
     0C:   00000097  C$fb_rollo10.c$59$1$1              fb_rollo10
     0C:   00000099  A$fb_rollo10$602                   fb_rollo10
     0C:   00000099  C$fb_rollo10.c$60$1$1              fb_rollo10
     0C:   0000009C  A$fb_rollo10$603                   fb_rollo10
     0C:   0000009F  A$fb_rollo10$604                   fb_rollo10
     0C:   000000A1  A$fb_rollo10$605                   fb_rollo10
     0C:   000000A3  A$fb_rollo10$609                   fb_rollo10
     0C:   000000A3  C$fb_rollo10.c$61$1$1              fb_rollo10
     0C:   000000A6  A$fb_rollo10$610                   fb_rollo10
     0C:   000000A7  A$fb_rollo10$611                   fb_rollo10
     0C:   000000A8  A$fb_rollo10$612                   fb_rollo10
     0C:   000000A9  A$fb_rollo10$613                   fb_rollo10
     0C:   000000AA  A$fb_rollo10$617                   fb_rollo10
     0C:   000000AA  C$fb_rollo10.c$62$1$1              fb_rollo10
     0C:   000000AD  A$fb_rollo10$618                   fb_rollo10
     0C:   000000AE  A$fb_rollo10$619                   fb_rollo10
     0C:   000000AF  A$fb_rollo10$620                   fb_rollo10
     0C:   000000B1  A$fb_rollo10$621                   fb_rollo10
     0C:   000000B2  A$fb_rollo10$622                   fb_rollo10
     0C:   000000B3  A$fb_rollo10$623                   fb_rollo10
     0C:   000000B5  A$fb_rollo10$626                   fb_rollo10
     0C:   000000B5  C$fb_rollo10.c$63$1$1              fb_rollo10
     0C:   000000B8  A$fb_rollo10$629                   fb_rollo10
     0C:   000000B8  C$fb_rollo10.c$68$1$1              fb_rollo10
     0C:   000000BB  A$fb_rollo10$632                   fb_rollo10
     0C:   000000BB  C$fb_rollo10.c$69$1$1              fb_rollo10
     0C:   000000BD  A$fb_rollo10$634                   fb_rollo10
     0C:   000000C0  A$fb_rollo10$636                   fb_rollo10
     0C:   000000C2  A$fb_rollo10$639                   fb_rollo10
     0C:   000000C2  C$fb_rollo10.c$70$3$3              fb_rollo10
ASxxxx Linker V02.00 + NoICE + sdld,  page 23.
Hexadecimal  [32-Bits]

Area                                    Addr        Size        Decimal Bytes (Attributes)
--------------------------------        ----        ----        ------- ----- ------------
CSEG                                0000007F    00001793 =        6035. bytes (REL,CON,CODE)

      Value  Global                              Global Defined In Module
      -----  --------------------------------   ------------------------
     0C:   000000C4  A$fb_rollo10$642                   fb_rollo10
     0C:   000000C4  C$fb_rollo10.c$71$3$3              fb_rollo10
     0C:   000000C7  A$fb_rollo10$643                   fb_rollo10
     0C:   000000C8  A$fb_rollo10$644                   fb_rollo10
     0C:   000000C9  A$fb_rollo10$645                   fb_rollo10
     0C:   000000CB  A$fb_rollo10$648                   fb_rollo10
     0C:   000000CB  C$fb_rollo10.c$72$3$3              fb_rollo10
     0C:   000000CE  A$fb_rollo10$649                   fb_rollo10
     0C:   000000CF  A$fb_rollo10$650                   fb_rollo10
     0C:   000000D0  A$fb_rollo10$651                   fb_rollo10
     0C:   000000D2  A$fb_rollo10$654                   fb_rollo10
     0C:   000000D2  C$fb_rollo10.c$73$3$3              fb_rollo10
     0C:   000000D4  A$fb_rollo10$657                   fb_rollo10
     0C:   000000D4  C$fb_rollo10.c$74$3$3              fb_rollo10
     0C:   000000D6  A$fb_rollo10$661                   fb_rollo10
     0C:   000000D6  C$fb_rollo10.c$75$3$3              fb_rollo10
     0C:   000000D9  A$fb_rollo10$664                   fb_rollo10
     0C:   000000D9  C$fb_rollo10.c$69$2$2              fb_rollo10
     0C:   000000DA  A$fb_rollo10$665                   fb_rollo10
     0C:   000000DC  A$fb_rollo10$669                   fb_rollo10
     0C:   000000DC  C$fb_rollo10.c$78$1$1              fb_rollo10
     0C:   000000DF  A$fb_rollo10$670                   fb_rollo10
     0C:   000000E1  A$fb_rollo10$671                   fb_rollo10
     0C:   000000E4  A$fb_rollo10$672                   fb_rollo10
     0C:   000000E7  A$fb_rollo10$673                   fb_rollo10
     0C:   000000EA  A$fb_rollo10$674                   fb_rollo10
     0C:   000000EC  A$fb_rollo10$677                   fb_rollo10
     0C:   000000EC  C$fb_rollo10.c$79$1$1              fb_rollo10
     0C:   000000EE  A$fb_rollo10$678                   fb_rollo10
     0C:   000000F1  A$fb_rollo10$679                   fb_rollo10
     0C:   000000F4  A$fb_rollo10$680                   fb_rollo10
     0C:   000000F7  A$fb_rollo10$681                   fb_rollo10
     0C:   000000F9  A$fb_rollo10$684                   fb_rollo10
     0C:   000000F9  C$fb_rollo10.c$80$1$1              fb_rollo10
     0C:   000000FB  A$fb_rollo10$685                   fb_rollo10
     0C:   000000FD  A$fb_rollo10$686                   fb_rollo10
     0C:   000000FF  A$fb_rollo10$687                   fb_rollo10
     0C:   00000102  A$fb_rollo10$688                   fb_rollo10
     0C:   00000104  A$fb_rollo10$689                   fb_rollo10
     0C:   00000106  A$fb_rollo10$690                   fb_rollo10
     0C:   00000108  A$fb_rollo10$693                   fb_rollo10
     0C:   00000108  C$fb_rollo10.c$81$1$1              fb_rollo10
     0C:   0000010B  A$fb_rollo10$694                   fb_rollo10
     0C:   0000010D  A$fb_rollo10$695                   fb_rollo10
     0C:   0000010F  A$fb_rollo10$696                   fb_rollo10
     0C:   00000111  A$fb_rollo10$697                   fb_rollo10
     0C:   00000114  A$fb_rollo10$698                   fb_rollo10
     0C:   00000116  A$fb_rollo10$699                   fb_rollo10
     0C:   00000118  A$fb_rollo10$700                   fb_rollo10
     0C:   0000011A  A$fb_rollo10$704                   fb_rollo10
     0C:   0000011A  C$fb_rollo10.c$83$1$1              fb_rollo10
ASxxxx Linker V02.00 + NoICE + sdld,  page 24.
Hexadecimal  [32-Bits]

Area                                    Addr        Size        Decimal Bytes (Attributes)
--------------------------------        ----        ----        ------- ----- ------------
CSEG                                0000007F    00001793 =        6035. bytes (REL,CON,CODE)

      Value  Global                              Global Defined In Module
      -----  --------------------------------   ------------------------
     0C:   0000011D  A$fb_rollo10$707                   fb_rollo10
     0C:   0000011D  C$fb_rollo10.c$84$1$1              fb_rollo10
     0C:   00000120  A$fb_rollo10$710                   fb_rollo10
     0C:   00000120  C$fb_rollo10.c$85$1$1              fb_rollo10
     0C:   00000123  A$fb_rollo10$713                   fb_rollo10
     0C:   00000123  C$fb_rollo10.c$86$1$1              fb_rollo10
     0C:   00000126  A$fb_rollo10$716                   fb_rollo10
     0C:   00000126  C$fb_rollo10.c$87$1$1              fb_rollo10
     0C:   00000129  A$fb_rollo10$719                   fb_rollo10
     0C:   00000129  C$fb_rollo10.c$88$1$1              fb_rollo10
     0C:   0000012C  A$fb_rollo10$722                   fb_rollo10
     0C:   0000012C  C$fb_rollo10.c$89$1$1              fb_rollo10
     0C:   0000012F  A$fb_rollo10$725                   fb_rollo10
     0C:   0000012F  C$fb_rollo10.c$90$1$1              fb_rollo10
     0C:   00000132  A$fb_rollo10$728                   fb_rollo10
     0C:   00000132  C$fb_rollo10.c$91$1$1              fb_rollo10
     0C:   00000135  A$fb_rollo10$731                   fb_rollo10
     0C:   00000135  C$fb_rollo10.c$92$1$1              fb_rollo10
     0C:   00000138  A$fb_rollo10$737                   fb_rollo10
     0C:   00000138  C$fb_rollo10.c$93$1$1              fb_rollo10
     0C:   00000138  C$fb_rollo10.c$94$2$4              fb_rollo10
     0C:   0000013A  A$fb_rollo10$738                   fb_rollo10
     0C:   0000013D  A$fb_rollo10$739                   fb_rollo10
     0C:   00000140  A$fb_rollo10$740                   fb_rollo10
     0C:   00000142  A$fb_rollo10$743                   fb_rollo10
     0C:   00000142  C$fb_rollo10.c$96$2$4              fb_rollo10
     0C:   00000145  A$fb_rollo10$744                   fb_rollo10
     0C:   00000146  A$fb_rollo10$745                   fb_rollo10
     0C:   00000147  A$fb_rollo10$746                   fb_rollo10
     0C:   00000148  A$fb_rollo10$747                   fb_rollo10
     0C:   0000014B  A$fb_rollo10$748                   fb_rollo10
     0C:   0000014E  A$fb_rollo10$749                   fb_rollo10
     0C:   00000150  A$fb_rollo10$750                   fb_rollo10
     0C:   00000153  A$fb_rollo10$753                   fb_rollo10
     0C:   00000153  C$fb_rollo10.c$100$3$5             fb_rollo10
     0C:   00000155  A$fb_rollo10$754                   fb_rollo10
     0C:   00000157  A$fb_rollo10$755                   fb_rollo10
     0C:   00000159  A$fb_rollo10$756                   fb_rollo10
     0C:   0000015B  A$fb_rollo10$757                   fb_rollo10
     0C:   0000015D  A$fb_rollo10$758                   fb_rollo10
     0C:   0000015F  A$fb_rollo10$759                   fb_rollo10
     0C:   00000162  A$fb_rollo10$760                   fb_rollo10
     0C:   00000164  A$fb_rollo10$761                   fb_rollo10
     0C:   00000166  A$fb_rollo10$762                   fb_rollo10
     0C:   00000168  A$fb_rollo10$766                   fb_rollo10
     0C:   00000168  C$fb_rollo10.c$102$3$5             fb_rollo10
     0C:   0000016B  A$fb_rollo10$767                   fb_rollo10
     0C:   0000016D  A$fb_rollo10$768                   fb_rollo10
     0C:   0000016F  A$fb_rollo10$769                   fb_rollo10
     0C:   00000170  A$fb_rollo10$770                   fb_rollo10
     0C:   00000173  A$fb_rollo10$773                   fb_rollo10
ASxxxx Linker V02.00 + NoICE + sdld,  page 25.
Hexadecimal  [32-Bits]

Area                                    Addr        Size        Decimal Bytes (Attributes)
--------------------------------        ----        ----        ------- ----- ------------
CSEG                                0000007F    00001793 =        6035. bytes (REL,CON,CODE)

      Value  Global                              Global Defined In Module
      -----  --------------------------------   ------------------------
     0C:   00000173  C$fb_rollo10.c$104$4$6             fb_rollo10
     0C:   00000175  A$fb_rollo10$774                   fb_rollo10
     0C:   00000177  A$fb_rollo10$775                   fb_rollo10
     0C:   00000179  A$fb_rollo10$776                   fb_rollo10
     0C:   0000017B  A$fb_rollo10$779                   fb_rollo10
     0C:   0000017B  C$fb_rollo10.c$105$4$6             fb_rollo10
     0C:   0000017E  A$fb_rollo10$782                   fb_rollo10
     0C:   0000017E  C$fb_rollo10.c$106$4$6             fb_rollo10
     0C:   00000181  A$fb_rollo10$785                   fb_rollo10
     0C:   00000181  C$fb_rollo10.c$108$4$6             fb_rollo10
     0C:   00000183  A$fb_rollo10$788                   fb_rollo10
     0C:   00000183  C$fb_rollo10.c$110$4$6             fb_rollo10
     0C:   00000186  A$fb_rollo10$791                   fb_rollo10
     0C:   00000186  C$fb_rollo10.c$112$4$6             fb_rollo10
     0C:   00000188  A$fb_rollo10$794                   fb_rollo10
     0C:   00000188  C$fb_rollo10.c$114$4$6             fb_rollo10
     0C:   0000018A  A$fb_rollo10$798                   fb_rollo10
     0C:   0000018A  C$fb_rollo10.c$121$3$5             fb_rollo10
     0C:   0000018D  A$fb_rollo10$799                   fb_rollo10
     0C:   0000018F  A$fb_rollo10$800                   fb_rollo10
     0C:   00000191  A$fb_rollo10$801                   fb_rollo10
     0C:   00000193  A$fb_rollo10$802                   fb_rollo10
     0C:   00000196  A$fb_rollo10$803                   fb_rollo10
     0C:   00000198  A$fb_rollo10$804                   fb_rollo10
     0C:   0000019A  A$fb_rollo10$805                   fb_rollo10
     0C:   0000019C  A$fb_rollo10$809                   fb_rollo10
     0C:   0000019C  C$fb_rollo10.c$150$3$5             fb_rollo10
     0C:   0000019E  A$fb_rollo10$810                   fb_rollo10
     0C:   000001A0  A$fb_rollo10$811                   fb_rollo10
     0C:   000001A2  A$fb_rollo10$812                   fb_rollo10
     0C:   000001A4  A$fb_rollo10$813                   fb_rollo10
     0C:   000001A6  A$fb_rollo10$814                   fb_rollo10
     0C:   000001A9  A$fb_rollo10$815                   fb_rollo10
     0C:   000001AC  A$fb_rollo10$816                   fb_rollo10
     0C:   000001AD  A$fb_rollo10$817                   fb_rollo10
     0C:   000001AE  A$fb_rollo10$818                   fb_rollo10
     0C:   000001AF  A$fb_rollo10$819                   fb_rollo10
     0C:   000001B2  A$fb_rollo10$820                   fb_rollo10
     0C:   000001B4  A$fb_rollo10$824                   fb_rollo10
     0C:   000001B4  C$fb_rollo10.c$151$4$7             fb_rollo10
     0C:   000001B7  A$fb_rollo10$827                   fb_rollo10
     0C:   000001B7  C$fb_rollo10.c$152$4$7             fb_rollo10
     0C:   000001BA  A$fb_rollo10$830                   fb_rollo10
     0C:   000001BA  C$fb_rollo10.c$153$4$7             fb_rollo10
     0C:   000001BD  A$fb_rollo10$833                   fb_rollo10
     0C:   000001BD  C$fb_rollo10.c$154$4$7             fb_rollo10
     0C:   000001C0  A$fb_rollo10$836                   fb_rollo10
     0C:   000001C0  C$fb_rollo10.c$155$4$7             fb_rollo10
     0C:   000001C3  A$fb_rollo10$842                   fb_rollo10
     0C:   000001C3  C$fb_rollo10.c$162$2$4             fb_rollo10
     0C:   000001C3  C$fb_rollo10.c$163$3$8             fb_rollo10
ASxxxx Linker V02.00 + NoICE + sdld,  page 26.
Hexadecimal  [32-Bits]

Area                                    Addr        Size        Decimal Bytes (Attributes)
--------------------------------        ----        ----        ------- ----- ------------
CSEG                                0000007F    00001793 =        6035. bytes (REL,CON,CODE)

      Value  Global                              Global Defined In Module
      -----  --------------------------------   ------------------------
     0C:   000001C6  A$fb_rollo10$843                   fb_rollo10
     0C:   000001C8  A$fb_rollo10$847                   fb_rollo10
     0C:   000001C8  C$fb_rollo10.c$164$3$8             fb_rollo10
     0C:   000001CA  A$fb_rollo10$850                   fb_rollo10
     0C:   000001CA  C$fb_rollo10.c$165$3$8             fb_rollo10
     0C:   000001CC  A$fb_rollo10$851                   fb_rollo10
     0C:   000001CE  A$fb_rollo10$852                   fb_rollo10
     0C:   000001D0  A$fb_rollo10$853                   fb_rollo10
     0C:   000001D3  A$fb_rollo10$854                   fb_rollo10
     0C:   000001D5  A$fb_rollo10$855                   fb_rollo10
     0C:   000001D7  A$fb_rollo10$856                   fb_rollo10
     0C:   000001D9  A$fb_rollo10$857                   fb_rollo10
     0C:   000001DB  A$fb_rollo10$861                   fb_rollo10
     0C:   000001DB  C$fb_rollo10.c$168$3$4             fb_rollo10
     0C:   000001DD  A$fb_rollo10$863                   fb_rollo10
     0C:   000001DF  A$fb_rollo10$864                   fb_rollo10
     0C:   000001E0  A$fb_rollo10$865                   fb_rollo10
     0C:   000001E2  A$fb_rollo10$866                   fb_rollo10
     0C:   000001E3  A$fb_rollo10$867                   fb_rollo10
     0C:   000001E5  A$fb_rollo10$873                   fb_rollo10
     0C:   000001E5  C$fb_rollo10.c$174$2$4             fb_rollo10
     0C:   000001E5  C$fb_rollo10.c$175$3$10            fb_rollo10
     0C:   000001E8  A$fb_rollo10$874                   fb_rollo10
     0C:   000001EA  A$fb_rollo10$878                   fb_rollo10
     0C:   000001EA  C$fb_rollo10.c$176$3$10            fb_rollo10
     0C:   000001EC  A$fb_rollo10$881                   fb_rollo10
     0C:   000001EC  C$fb_rollo10.c$177$3$10            fb_rollo10
     0C:   000001EF  A$fb_rollo10$887                   fb_rollo10
     0C:   000001EF  C$fb_rollo10.c$178$4$11            fb_rollo10
     0C:   000001EF  C$fb_rollo10.c$179$4$11            fb_rollo10
     0C:   000001F2  A$fb_rollo10$888                   fb_rollo10
     0C:   000001F4  A$fb_rollo10$892                   fb_rollo10
     0C:   000001F4  C$fb_rollo10.c$180$4$11            fb_rollo10
     0C:   000001F7  A$fb_rollo10$896                   fb_rollo10
     0C:   000001F7  C$fb_rollo10.c$182$3$10            fb_rollo10
     0C:   000001FA  A$fb_rollo10$899                   fb_rollo10
     0C:   000001FA  C$fb_rollo10.c$183$4$12            fb_rollo10
     0C:   000001FC  A$fb_rollo10$902                   fb_rollo10
     0C:   000001FC  C$fb_rollo10.c$184$4$12            fb_rollo10
     0C:   000001FD  A$fb_rollo10$906                   fb_rollo10
     0C:   000001FD  C$fb_rollo10.c$186$3$10            fb_rollo10
     0C:   00000200  A$fb_rollo10$909                   fb_rollo10
     0C:   00000200  C$fb_rollo10.c$187$4$13            fb_rollo10
     0C:   00000202  A$fb_rollo10$912                   fb_rollo10
     0C:   00000202  C$fb_rollo10.c$188$4$13            fb_rollo10
     0C:   00000203  A$fb_rollo10$916                   fb_rollo10
     0C:   00000203  C$fb_rollo10.c$190$3$10            fb_rollo10
     0C:   00000206  A$fb_rollo10$919                   fb_rollo10
     0C:   00000206  C$fb_rollo10.c$191$4$14            fb_rollo10
     0C:   00000208  A$fb_rollo10$922                   fb_rollo10
     0C:   00000208  C$fb_rollo10.c$192$4$14            fb_rollo10
ASxxxx Linker V02.00 + NoICE + sdld,  page 27.
Hexadecimal  [32-Bits]

Area                                    Addr        Size        Decimal Bytes (Attributes)
--------------------------------        ----        ----        ------- ----- ------------
CSEG                                0000007F    00001793 =        6035. bytes (REL,CON,CODE)

      Value  Global                              Global Defined In Module
      -----  --------------------------------   ------------------------
     0C:   0000020B  A$fb_rollo10$925                   fb_rollo10
     0C:   0000020B  C$fb_rollo10.c$198$4$14            fb_rollo10
     0C:   0000020E  A$fb_rollo10$928                   fb_rollo10
     0C:   0000020E  C$fb_rollo10.c$199$4$14            fb_rollo10
     0C:   00000211  A$fb_rollo10$931                   fb_rollo10
     0C:   00000211  C$fb_rollo10.c$201$4$14            fb_rollo10
     0C:   00000213  A$fb_rollo10$934                   fb_rollo10
     0C:   00000213  C$fb_rollo10.c$202$4$14            fb_rollo10
     0C:   00000216  A$fb_rollo10$937                   fb_rollo10
     0C:   00000216  C$fb_rollo10.c$203$4$14            fb_rollo10
     0C:   00000218  A$fb_rollo10$941                   fb_rollo10
     0C:   00000218  C$fb_rollo10.c$205$3$10            fb_rollo10
     0C:   0000021B  A$fb_rollo10$942                   fb_rollo10
     0C:   0000021E  A$fb_rollo10$946                   fb_rollo10
     0C:   0000021E  C$fb_rollo10.c$222$3$10            fb_rollo10
     0C:   00000221  A$fb_rollo10$952                   fb_rollo10
     0C:   00000221  C$fb_rollo10.c$223$4$15            fb_rollo10
     0C:   00000221  C$fb_rollo10.c$224$4$15            fb_rollo10
     0C:   00000224  A$fb_rollo10$953                   fb_rollo10
     0C:   00000226  A$fb_rollo10$957                   fb_rollo10
     0C:   00000226  C$fb_rollo10.c$225$4$15            fb_rollo10
     0C:   00000229  A$fb_rollo10$961                   fb_rollo10
     0C:   00000229  C$fb_rollo10.c$227$3$10            fb_rollo10
     0C:   0000022C  A$fb_rollo10$967                   fb_rollo10
     0C:   0000022C  C$fb_rollo10.c$228$4$16            fb_rollo10
     0C:   0000022C  C$fb_rollo10.c$229$4$16            fb_rollo10
     0C:   0000022F  A$fb_rollo10$968                   fb_rollo10
     0C:   00000231  A$fb_rollo10$972                   fb_rollo10
     0C:   00000231  C$fb_rollo10.c$230$4$16            fb_rollo10
     0C:   00000234  A$fb_rollo10$976                   fb_rollo10
     0C:   00000234  C$fb_rollo10.c$235$2$4             fb_rollo10
     0C:   00000236  A$fb_rollo10$979                   fb_rollo10
     0C:   00000236  C$fb_rollo10.c$236$2$4             fb_rollo10
     0C:   00000239  A$fb_rollo10$982                   fb_rollo10
     0C:   00000239  C$fb_rollo10.c$237$3$17            fb_rollo10
     0C:   0000023C  A$fb_rollo10$984                   fb_rollo10
     0C:   0000023E  A$fb_rollo10$985                   fb_rollo10
     0C:   0000023F  A$fb_rollo10$986                   fb_rollo10
     0C:   00000241  A$fb_rollo10$990                   fb_rollo10
     0C:   00000241  C$fb_rollo10.c$239$4$18            fb_rollo10
     0C:   00000244  A$fb_rollo10$991                   fb_rollo10
     0C:   00000247  A$fb_rollo10$995                   fb_rollo10
     0C:   00000247  C$fb_rollo10.c$240$4$18            fb_rollo10
     0C:   00000249  A$fb_rollo10$996                   fb_rollo10
     0C:   0000024B  A$fb_rollo10$1000                  fb_rollo10
     0C:   0000024B  C$fb_rollo10.c$244$3$19            fb_rollo10
     0C:   0000024C  A$fb_rollo10$1001                  fb_rollo10
     0C:   0000024E  A$fb_rollo10$1002                  fb_rollo10
     0C:   0000024F  A$fb_rollo10$1003                  fb_rollo10
     0C:   00000251  A$fb_rollo10$1007                  fb_rollo10
     0C:   00000251  C$fb_rollo10.c$245$3$19            fb_rollo10
ASxxxx Linker V02.00 + NoICE + sdld,  page 28.
Hexadecimal  [32-Bits]

Area                                    Addr        Size        Decimal Bytes (Attributes)
--------------------------------        ----        ----        ------- ----- ------------
CSEG                                0000007F    00001793 =        6035. bytes (REL,CON,CODE)

      Value  Global                              Global Defined In Module
      -----  --------------------------------   ------------------------
     0C:   00000253  A$fb_rollo10$1011                  fb_rollo10
     0C:   00000253  C$fb_rollo10.c$247$2$4             fb_rollo10
     0C:   00000255  A$fb_rollo10$1012                  fb_rollo10
     0C:   00000257  A$fb_rollo10$1013                  fb_rollo10
     0C:   00000258  A$fb_rollo10$1014                  fb_rollo10
     0C:   0000025B  A$fb_rollo10$1016                  fb_rollo10
     0C:   0000025C  A$fb_rollo10$1017                  fb_rollo10
     0C:   0000025D  A$fb_rollo10$1018                  fb_rollo10
     0C:   0000025E  A$fb_rollo10$1019                  fb_rollo10
     0C:   00000260  A$fb_rollo10$1020                  fb_rollo10
     0C:   00000262  A$fb_rollo10$1023                  fb_rollo10
     0C:   00000262  C$fb_rollo10.c$248$1$1             fb_rollo10
     0C:   00000265  A$fb_rollo10$1026                  fb_rollo10
     0C:   00000265  C$fb_rollo10.c$249$1$1             fb_rollo10
     0C:   00000265  XG$main$0$0                        fb_rollo10
     0C:   00000266  A$fb_app_rollo10$627               fb_app_rollo10
     0C:   00000266  C$fb_app_rollo10.c$73$0$0          fb_app_rollo10
     0C:   00000266  C$fb_app_rollo10.c$80$1$1          fb_app_rollo10
     0C:   00000266  G$write_value_req$0$0              fb_app_rollo10
     0C:   00000266  _write_value_req                   fb_app_rollo10
     0C:   00000269  A$fb_app_rollo10$628               fb_app_rollo10
     0C:   0000026B  A$fb_app_rollo10$629               fb_app_rollo10
     0C:   0000026E  A$fb_app_rollo10$630               fb_app_rollo10
     0C:   00000270  A$fb_app_rollo10$631               fb_app_rollo10
     0C:   00000272  A$fb_app_rollo10$634               fb_app_rollo10
     0C:   00000272  C$fb_app_rollo10.c$81$1$1          fb_app_rollo10
     0C:   00000275  A$fb_app_rollo10$635               fb_app_rollo10
     0C:   00000278  A$fb_app_rollo10$639               fb_app_rollo10
     0C:   00000278  C$fb_app_rollo10.c$84$2$2          fb_app_rollo10
     0C:   0000027B  A$fb_app_rollo10$640               fb_app_rollo10
     0C:   0000027C  A$fb_app_rollo10$641               fb_app_rollo10
     0C:   0000027D  A$fb_app_rollo10$642               fb_app_rollo10
     0C:   0000027E  A$fb_app_rollo10$645               fb_app_rollo10
     0C:   0000027E  C$fb_app_rollo10.c$85$2$1          fb_app_rollo10
     0C:   00000280  A$fb_app_rollo10$647               fb_app_rollo10
     0C:   00000281  A$fb_app_rollo10$648               fb_app_rollo10
     0C:   00000282  A$fb_app_rollo10$649               fb_app_rollo10
     0C:   00000283  A$fb_app_rollo10$650               fb_app_rollo10
     0C:   00000285  A$fb_app_rollo10$651               fb_app_rollo10
     0C:   00000288  A$fb_app_rollo10$655               fb_app_rollo10
     0C:   00000288  C$fb_app_rollo10.c$87$3$3          fb_app_rollo10
     0C:   0000028B  A$fb_app_rollo10$656               fb_app_rollo10
     0C:   0000028C  A$fb_app_rollo10$657               fb_app_rollo10
     0C:   0000028D  A$fb_app_rollo10$658               fb_app_rollo10
     0C:   0000028E  A$fb_app_rollo10$659               fb_app_rollo10
     0C:   0000028F  A$fb_app_rollo10$660               fb_app_rollo10
     0C:   00000290  A$fb_app_rollo10$661               fb_app_rollo10
     0C:   00000291  A$fb_app_rollo10$662               fb_app_rollo10
     0C:   00000292  A$fb_app_rollo10$663               fb_app_rollo10
     0C:   00000293  A$fb_app_rollo10$664               fb_app_rollo10
     0C:   00000296  A$fb_app_rollo10$665               fb_app_rollo10
ASxxxx Linker V02.00 + NoICE + sdld,  page 29.
Hexadecimal  [32-Bits]

Area                                    Addr        Size        Decimal Bytes (Attributes)
--------------------------------        ----        ----        ------- ----- ------------
CSEG                                0000007F    00001793 =        6035. bytes (REL,CON,CODE)

      Value  Global                              Global Defined In Module
      -----  --------------------------------   ------------------------
     0C:   00000297  A$fb_app_rollo10$666               fb_app_rollo10
     0C:   00000298  A$fb_app_rollo10$669               fb_app_rollo10
     0C:   00000298  C$fb_app_rollo10.c$88$3$3          fb_app_rollo10
     0C:   00000299  A$fb_app_rollo10$670               fb_app_rollo10
     0C:   0000029C  A$fb_app_rollo10$673               fb_app_rollo10
     0C:   0000029C  C$fb_app_rollo10.c$90$4$4          fb_app_rollo10
     0C:   0000029F  A$fb_app_rollo10$674               fb_app_rollo10
     0C:   000002A0  A$fb_app_rollo10$675               fb_app_rollo10
     0C:   000002A1  A$fb_app_rollo10$676               fb_app_rollo10
     0C:   000002A3  A$fb_app_rollo10$677               fb_app_rollo10
     0C:   000002A4  A$fb_app_rollo10$678               fb_app_rollo10
     0C:   000002A7  A$fb_app_rollo10$679               fb_app_rollo10
     0C:   000002A8  A$fb_app_rollo10$682               fb_app_rollo10
     0C:   000002A8  C$fb_app_rollo10.c$91$4$4          fb_app_rollo10
     0C:   000002A9  A$fb_app_rollo10$683               fb_app_rollo10
     0C:   000002AB  A$fb_app_rollo10$684               fb_app_rollo10
     0C:   000002AD  A$fb_app_rollo10$685               fb_app_rollo10
     0C:   000002AF  A$fb_app_rollo10$686               fb_app_rollo10
     0C:   000002B1  A$fb_app_rollo10$687               fb_app_rollo10
     0C:   000002B3  A$fb_app_rollo10$688               fb_app_rollo10
     0C:   000002B6  A$fb_app_rollo10$689               fb_app_rollo10
     0C:   000002B8  A$fb_app_rollo10$690               fb_app_rollo10
     0C:   000002BA  A$fb_app_rollo10$691               fb_app_rollo10
     0C:   000002BC  A$fb_app_rollo10$692               fb_app_rollo10
     0C:   000002BE  A$fb_app_rollo10$695               fb_app_rollo10
     0C:   000002BE  C$fb_app_rollo10.c$93$4$4          fb_app_rollo10
     0C:   000002C1  A$fb_app_rollo10$697               fb_app_rollo10
     0C:   000002C3  A$fb_app_rollo10$698               fb_app_rollo10
     0C:   000002C6  A$fb_app_rollo10$699               fb_app_rollo10
     0C:   000002C8  A$fb_app_rollo10$700               fb_app_rollo10
     0C:   000002CA  A$fb_app_rollo10$701               fb_app_rollo10
     0C:   000002CC  A$fb_app_rollo10$702               fb_app_rollo10
     0C:   000002CE  A$fb_app_rollo10$703               fb_app_rollo10
     0C:   000002D0  A$fb_app_rollo10$704               fb_app_rollo10
     0C:   000002D2  A$fb_app_rollo10$705               fb_app_rollo10
     0C:   000002D4  A$fb_app_rollo10$706               fb_app_rollo10
     0C:   000002D6  A$fb_app_rollo10$707               fb_app_rollo10
     0C:   000002D8  A$fb_app_rollo10$708               fb_app_rollo10
     0C:   000002DB  A$fb_app_rollo10$709               fb_app_rollo10
     0C:   000002DD  A$fb_app_rollo10$710               fb_app_rollo10
     0C:   000002E0  A$fb_app_rollo10$711               fb_app_rollo10
     0C:   000002E2  A$fb_app_rollo10$712               fb_app_rollo10
     0C:   000002E4  A$fb_app_rollo10$713               fb_app_rollo10
     0C:   000002E6  A$fb_app_rollo10$714               fb_app_rollo10
     0C:   000002E8  A$fb_app_rollo10$718               fb_app_rollo10
     0C:   000002E8  C$fb_app_rollo10.c$95$4$4          fb_app_rollo10
     0C:   000002EB  A$fb_app_rollo10$720               fb_app_rollo10
     0C:   000002ED  A$fb_app_rollo10$721               fb_app_rollo10
     0C:   000002EE  A$fb_app_rollo10$722               fb_app_rollo10
     0C:   000002F0  A$fb_app_rollo10$723               fb_app_rollo10
     0C:   000002F2  A$fb_app_rollo10$724               fb_app_rollo10
ASxxxx Linker V02.00 + NoICE + sdld,  page 30.
Hexadecimal  [32-Bits]

Area                                    Addr        Size        Decimal Bytes (Attributes)
--------------------------------        ----        ----        ------- ----- ------------
CSEG                                0000007F    00001793 =        6035. bytes (REL,CON,CODE)

      Value  Global                              Global Defined In Module
      -----  --------------------------------   ------------------------
     0C:   000002F4  A$fb_app_rollo10$725               fb_app_rollo10
     0C:   000002F6  A$fb_app_rollo10$726               fb_app_rollo10
     0C:   000002F7  A$fb_app_rollo10$727               fb_app_rollo10
     0C:   000002F9  A$fb_app_rollo10$728               fb_app_rollo10
     0C:   000002FB  A$fb_app_rollo10$729               fb_app_rollo10
     0C:   000002FD  A$fb_app_rollo10$730               fb_app_rollo10
     0C:   000002FF  A$fb_app_rollo10$731               fb_app_rollo10
     0C:   00000301  A$fb_app_rollo10$732               fb_app_rollo10
     0C:   00000304  A$fb_app_rollo10$733               fb_app_rollo10
     0C:   00000306  A$fb_app_rollo10$734               fb_app_rollo10
     0C:   00000308  A$fb_app_rollo10$735               fb_app_rollo10
     0C:   0000030A  A$fb_app_rollo10$736               fb_app_rollo10
     0C:   0000030C  A$fb_app_rollo10$740               fb_app_rollo10
     0C:   0000030C  C$fb_app_rollo10.c$85$2$2          fb_app_rollo10
     0C:   0000030D  A$fb_app_rollo10$741               fb_app_rollo10
     0C:   00000310  A$fb_app_rollo10$745               fb_app_rollo10
     0C:   00000310  C$fb_app_rollo10.c$104$2$1         fb_app_rollo10
     0C:   00000310  XG$write_value_req$0$0             fb_app_rollo10
     0C:   00000311  A$fb_app_rollo10$762               fb_app_rollo10
     0C:   00000311  C$fb_app_rollo10.c$220$2$1         fb_app_rollo10
     0C:   00000311  C$fb_app_rollo10.c$225$1$1         fb_app_rollo10
     0C:   00000311  G$read_value_req$0$0               fb_app_rollo10
     0C:   00000311  _read_value_req                    fb_app_rollo10
     0C:   00000314  A$fb_app_rollo10$763               fb_app_rollo10
     0C:   00000316  A$fb_app_rollo10$764               fb_app_rollo10
     0C:   00000319  A$fb_app_rollo10$765               fb_app_rollo10
     0C:   0000031B  A$fb_app_rollo10$766               fb_app_rollo10
     0C:   0000031D  A$fb_app_rollo10$769               fb_app_rollo10
     0C:   0000031D  C$fb_app_rollo10.c$226$1$1         fb_app_rollo10
     0C:   00000320  A$fb_app_rollo10$770               fb_app_rollo10
     0C:   00000322  A$fb_app_rollo10$774               fb_app_rollo10
     0C:   00000322  C$fb_app_rollo10.c$228$2$2         fb_app_rollo10
     0C:   00000324  A$fb_app_rollo10$775               fb_app_rollo10
     0C:   00000326  A$fb_app_rollo10$776               fb_app_rollo10
     0C:   00000329  A$fb_app_rollo10$777               fb_app_rollo10
     0C:   0000032B  A$fb_app_rollo10$780               fb_app_rollo10
     0C:   0000032B  C$fb_app_rollo10.c$230$2$2         fb_app_rollo10
     0C:   0000032D  A$fb_app_rollo10$781               fb_app_rollo10
     0C:   0000032F  A$fb_app_rollo10$782               fb_app_rollo10
     0C:   00000332  A$fb_app_rollo10$783               fb_app_rollo10
     0C:   00000334  A$fb_app_rollo10$784               fb_app_rollo10
     0C:   00000336  A$fb_app_rollo10$787               fb_app_rollo10
     0C:   00000336  C$fb_app_rollo10.c$232$2$2         fb_app_rollo10
     0C:   00000339  A$fb_app_rollo10$788               fb_app_rollo10
     0C:   0000033C  A$fb_app_rollo10$789               fb_app_rollo10
     0C:   0000033E  A$fb_app_rollo10$790               fb_app_rollo10
     0C:   0000033F  A$fb_app_rollo10$791               fb_app_rollo10
     0C:   00000341  A$fb_app_rollo10$792               fb_app_rollo10
     0C:   00000344  A$fb_app_rollo10$796               fb_app_rollo10
     0C:   00000344  C$fb_app_rollo10.c$234$1$1         fb_app_rollo10
     0C:   00000344  XG$read_value_req$0$0              fb_app_rollo10
ASxxxx Linker V02.00 + NoICE + sdld,  page 31.
Hexadecimal  [32-Bits]

Area                                    Addr        Size        Decimal Bytes (Attributes)
--------------------------------        ----        ----        ------- ----- ------------
CSEG                                0000007F    00001793 =        6035. bytes (REL,CON,CODE)

      Value  Global                              Global Defined In Module
      -----  --------------------------------   ------------------------
     0C:   00000345  A$fb_app_rollo10$810               fb_app_rollo10
     0C:   00000345  C$fb_app_rollo10.c$237$1$1         fb_app_rollo10
     0C:   00000345  G$read_obj_value$0$0               fb_app_rollo10
     0C:   00000345  _read_obj_value                    fb_app_rollo10
     0C:   00000347  A$fb_app_rollo10$813               fb_app_rollo10
     0C:   00000347  C$fb_app_rollo10.c$239$1$1         fb_app_rollo10
     0C:   00000349  A$fb_app_rollo10$816               fb_app_rollo10
     0C:   00000349  C$fb_app_rollo10.c$241$1$1         fb_app_rollo10
     0C:   0000034C  A$fb_app_rollo10$818               fb_app_rollo10
     0C:   0000034E  A$fb_app_rollo10$821               fb_app_rollo10
     0C:   0000034E  C$fb_app_rollo10.c$242$2$2         fb_app_rollo10
     0C:   00000350  A$fb_app_rollo10$822               fb_app_rollo10
     0C:   00000352  A$fb_app_rollo10$823               fb_app_rollo10
     0C:   00000354  A$fb_app_rollo10$824               fb_app_rollo10
     0C:   00000356  A$fb_app_rollo10$825               fb_app_rollo10
     0C:   00000358  A$fb_app_rollo10$827               fb_app_rollo10
     0C:   00000359  A$fb_app_rollo10$828               fb_app_rollo10
     0C:   0000035A  A$fb_app_rollo10$829               fb_app_rollo10
     0C:   0000035B  A$fb_app_rollo10$830               fb_app_rollo10
     0C:   0000035C  A$fb_app_rollo10$831               fb_app_rollo10
     0C:   0000035D  A$fb_app_rollo10$832               fb_app_rollo10
     0C:   0000035E  A$fb_app_rollo10$834               fb_app_rollo10
     0C:   00000361  A$fb_app_rollo10$835               fb_app_rollo10
     0C:   00000363  A$fb_app_rollo10$836               fb_app_rollo10
     0C:   00000365  A$fb_app_rollo10$837               fb_app_rollo10
     0C:   00000366  A$fb_app_rollo10$838               fb_app_rollo10
     0C:   00000368  A$fb_app_rollo10$839               fb_app_rollo10
     0C:   00000369  A$fb_app_rollo10$840               fb_app_rollo10
     0C:   0000036B  A$fb_app_rollo10$841               fb_app_rollo10
     0C:   0000036C  A$fb_app_rollo10$842               fb_app_rollo10
     0C:   0000036D  A$fb_app_rollo10$843               fb_app_rollo10
     0C:   0000036F  A$fb_app_rollo10$844               fb_app_rollo10
     0C:   00000371  A$fb_app_rollo10$845               fb_app_rollo10
     0C:   00000373  A$fb_app_rollo10$849               fb_app_rollo10
     0C:   00000373  C$fb_app_rollo10.c$245$2$3         fb_app_rollo10
     0C:   00000375  A$fb_app_rollo10$850               fb_app_rollo10
     0C:   00000376  A$fb_app_rollo10$851               fb_app_rollo10
     0C:   00000378  A$fb_app_rollo10$852               fb_app_rollo10
     0C:   00000379  A$fb_app_rollo10$853               fb_app_rollo10
     0C:   0000037A  A$fb_app_rollo10$854               fb_app_rollo10
     0C:   0000037C  A$fb_app_rollo10$855               fb_app_rollo10
     0C:   0000037E  A$fb_app_rollo10$856               fb_app_rollo10
     0C:   00000380  A$fb_app_rollo10$857               fb_app_rollo10
     0C:   00000382  A$fb_app_rollo10$858               fb_app_rollo10
     0C:   00000384  A$fb_app_rollo10$859               fb_app_rollo10
     0C:   00000386  A$fb_app_rollo10$861               fb_app_rollo10
     0C:   00000387  A$fb_app_rollo10$862               fb_app_rollo10
     0C:   00000388  A$fb_app_rollo10$863               fb_app_rollo10
     0C:   00000389  A$fb_app_rollo10$864               fb_app_rollo10
     0C:   0000038A  A$fb_app_rollo10$865               fb_app_rollo10
     0C:   0000038B  A$fb_app_rollo10$866               fb_app_rollo10
ASxxxx Linker V02.00 + NoICE + sdld,  page 32.
Hexadecimal  [32-Bits]

Area                                    Addr        Size        Decimal Bytes (Attributes)
--------------------------------        ----        ----        ------- ----- ------------
CSEG                                0000007F    00001793 =        6035. bytes (REL,CON,CODE)

      Value  Global                              Global Defined In Module
      -----  --------------------------------   ------------------------
     0C:   0000038C  A$fb_app_rollo10$868               fb_app_rollo10
     0C:   0000038F  A$fb_app_rollo10$869               fb_app_rollo10
     0C:   00000391  A$fb_app_rollo10$870               fb_app_rollo10
     0C:   00000393  A$fb_app_rollo10$871               fb_app_rollo10
     0C:   00000394  A$fb_app_rollo10$872               fb_app_rollo10
     0C:   00000396  A$fb_app_rollo10$873               fb_app_rollo10
     0C:   00000397  A$fb_app_rollo10$874               fb_app_rollo10
     0C:   00000399  A$fb_app_rollo10$875               fb_app_rollo10
     0C:   0000039A  A$fb_app_rollo10$876               fb_app_rollo10
     0C:   0000039B  A$fb_app_rollo10$877               fb_app_rollo10
     0C:   0000039D  A$fb_app_rollo10$878               fb_app_rollo10
     0C:   0000039F  A$fb_app_rollo10$882               fb_app_rollo10
     0C:   0000039F  C$fb_app_rollo10.c$247$1$1         fb_app_rollo10
     0C:   000003A1  A$fb_app_rollo10$883               fb_app_rollo10
     0C:   000003A3  A$fb_app_rollo10$884               fb_app_rollo10
     0C:   000003A5  A$fb_app_rollo10$885               fb_app_rollo10
     0C:   000003A7  A$fb_app_rollo10$886               fb_app_rollo10
     0C:   000003A9  A$fb_app_rollo10$887               fb_app_rollo10
     0C:   000003AB  A$fb_app_rollo10$888               fb_app_rollo10
     0C:   000003AC  A$fb_app_rollo10$891               fb_app_rollo10
     0C:   000003AC  C$fb_app_rollo10.c$248$1$1         fb_app_rollo10
     0C:   000003AC  XG$read_obj_value$0$0              fb_app_rollo10
     0C:   000003AD  A$fb_app_rollo10$905               fb_app_rollo10
     0C:   000003AD  C$fb_app_rollo10.c$251$1$1         fb_app_rollo10
     0C:   000003AD  G$write_obj_value$0$0              fb_app_rollo10
     0C:   000003AD  _write_obj_value                   fb_app_rollo10
     0C:   000003AF  A$fb_app_rollo10$906               fb_app_rollo10
     0C:   000003B2  A$fb_app_rollo10$907               fb_app_rollo10
     0C:   000003B4  A$fb_app_rollo10$910               fb_app_rollo10
     0C:   000003B4  C$fb_app_rollo10.c$253$1$1         fb_app_rollo10
     0C:   000003B7  A$fb_app_rollo10$912               fb_app_rollo10
     0C:   000003B9  A$fb_app_rollo10$915               fb_app_rollo10
     0C:   000003B9  C$fb_app_rollo10.c$254$2$2         fb_app_rollo10
     0C:   000003BB  A$fb_app_rollo10$916               fb_app_rollo10
     0C:   000003BD  A$fb_app_rollo10$917               fb_app_rollo10
     0C:   000003BE  A$fb_app_rollo10$918               fb_app_rollo10
     0C:   000003BF  A$fb_app_rollo10$919               fb_app_rollo10
     0C:   000003C0  A$fb_app_rollo10$920               fb_app_rollo10
     0C:   000003C1  A$fb_app_rollo10$921               fb_app_rollo10
     0C:   000003C3  A$fb_app_rollo10$922               fb_app_rollo10
     0C:   000003C5  A$fb_app_rollo10$923               fb_app_rollo10
     0C:   000003C7  A$fb_app_rollo10$924               fb_app_rollo10
     0C:   000003C9  A$fb_app_rollo10$925               fb_app_rollo10
     0C:   000003CB  A$fb_app_rollo10$927               fb_app_rollo10
     0C:   000003CD  A$fb_app_rollo10$929               fb_app_rollo10
     0C:   000003D0  A$fb_app_rollo10$930               fb_app_rollo10
     0C:   000003D1  A$fb_app_rollo10$931               fb_app_rollo10
     0C:   000003D3  A$fb_app_rollo10$932               fb_app_rollo10
     0C:   000003D4  A$fb_app_rollo10$933               fb_app_rollo10
     0C:   000003D5  A$fb_app_rollo10$934               fb_app_rollo10
     0C:   000003D7  A$fb_app_rollo10$935               fb_app_rollo10
ASxxxx Linker V02.00 + NoICE + sdld,  page 33.
Hexadecimal  [32-Bits]

Area                                    Addr        Size        Decimal Bytes (Attributes)
--------------------------------        ----        ----        ------- ----- ------------
CSEG                                0000007F    00001793 =        6035. bytes (REL,CON,CODE)

      Value  Global                              Global Defined In Module
      -----  --------------------------------   ------------------------
     0C:   000003D9  A$fb_app_rollo10$939               fb_app_rollo10
     0C:   000003D9  C$fb_app_rollo10.c$255$2$2         fb_app_rollo10
     0C:   000003DB  A$fb_app_rollo10$940               fb_app_rollo10
     0C:   000003DD  A$fb_app_rollo10$941               fb_app_rollo10
     0C:   000003DF  A$fb_app_rollo10$942               fb_app_rollo10
     0C:   000003E1  A$fb_app_rollo10$944               fb_app_rollo10
     0C:   000003E3  A$fb_app_rollo10$946               fb_app_rollo10
     0C:   000003E6  A$fb_app_rollo10$947               fb_app_rollo10
     0C:   000003E7  A$fb_app_rollo10$948               fb_app_rollo10
     0C:   000003E9  A$fb_app_rollo10$949               fb_app_rollo10
     0C:   000003EB  A$fb_app_rollo10$953               fb_app_rollo10
     0C:   000003EB  C$fb_app_rollo10.c$258$2$3         fb_app_rollo10
     0C:   000003EC  A$fb_app_rollo10$954               fb_app_rollo10
     0C:   000003EE  A$fb_app_rollo10$955               fb_app_rollo10
     0C:   000003EF  A$fb_app_rollo10$958               fb_app_rollo10
     0C:   000003EF  C$fb_app_rollo10.c$259$2$3         fb_app_rollo10
     0C:   000003F1  A$fb_app_rollo10$959               fb_app_rollo10
     0C:   000003F3  A$fb_app_rollo10$960               fb_app_rollo10
     0C:   000003F4  A$fb_app_rollo10$961               fb_app_rollo10
     0C:   000003F5  A$fb_app_rollo10$962               fb_app_rollo10
     0C:   000003F6  A$fb_app_rollo10$963               fb_app_rollo10
     0C:   000003F7  A$fb_app_rollo10$964               fb_app_rollo10
     0C:   000003F9  A$fb_app_rollo10$965               fb_app_rollo10
     0C:   000003FB  A$fb_app_rollo10$966               fb_app_rollo10
     0C:   000003FD  A$fb_app_rollo10$967               fb_app_rollo10
     0C:   000003FF  A$fb_app_rollo10$968               fb_app_rollo10
     0C:   00000401  A$fb_app_rollo10$970               fb_app_rollo10
     0C:   00000403  A$fb_app_rollo10$972               fb_app_rollo10
     0C:   00000406  A$fb_app_rollo10$973               fb_app_rollo10
     0C:   00000407  A$fb_app_rollo10$974               fb_app_rollo10
     0C:   00000409  A$fb_app_rollo10$975               fb_app_rollo10
     0C:   0000040A  A$fb_app_rollo10$976               fb_app_rollo10
     0C:   0000040B  A$fb_app_rollo10$977               fb_app_rollo10
     0C:   0000040D  A$fb_app_rollo10$978               fb_app_rollo10
     0C:   0000040F  A$fb_app_rollo10$982               fb_app_rollo10
     0C:   0000040F  C$fb_app_rollo10.c$260$2$3         fb_app_rollo10
     0C:   00000411  A$fb_app_rollo10$983               fb_app_rollo10
     0C:   00000413  A$fb_app_rollo10$984               fb_app_rollo10
     0C:   00000415  A$fb_app_rollo10$985               fb_app_rollo10
     0C:   00000417  A$fb_app_rollo10$987               fb_app_rollo10
     0C:   00000419  A$fb_app_rollo10$989               fb_app_rollo10
     0C:   0000041C  A$fb_app_rollo10$990               fb_app_rollo10
     0C:   0000041D  A$fb_app_rollo10$991               fb_app_rollo10
     0C:   0000041F  A$fb_app_rollo10$993               fb_app_rollo10
     0C:   00000421  A$fb_app_rollo10$996               fb_app_rollo10
     0C:   00000421  C$fb_app_rollo10.c$262$1$1         fb_app_rollo10
     0C:   00000421  XG$write_obj_value$0$0             fb_app_rollo10
     0C:   00000422  A$fb_app_rollo10$1016              fb_app_rollo10
     0C:   00000422  C$fb_app_rollo10.c$264$1$1         fb_app_rollo10
     0C:   00000422  G$Sobject_schalten$0$0             fb_app_rollo10
     0C:   00000422  _Sobject_schalten                  fb_app_rollo10
ASxxxx Linker V02.00 + NoICE + sdld,  page 34.
Hexadecimal  [32-Bits]

Area                                    Addr        Size        Decimal Bytes (Attributes)
--------------------------------        ----        ----        ------- ----- ------------
CSEG                                0000007F    00001793 =        6035. bytes (REL,CON,CODE)

      Value  Global                              Global Defined In Module
      -----  --------------------------------   ------------------------
     0C:   00000424  A$fb_app_rollo10$1017              fb_app_rollo10
     0C:   00000427  A$fb_app_rollo10$1020              fb_app_rollo10
     0C:   00000427  C$fb_app_rollo10.c$268$1$1         fb_app_rollo10
     0C:   00000429  A$fb_app_rollo10$1021              fb_app_rollo10
     0C:   0000042A  A$fb_app_rollo10$1022              fb_app_rollo10
     0C:   0000042C  A$fb_app_rollo10$1023              fb_app_rollo10
     0C:   0000042E  A$fb_app_rollo10$1026              fb_app_rollo10
     0C:   0000042E  C$fb_app_rollo10.c$269$2$2         fb_app_rollo10
     0C:   00000430  A$fb_app_rollo10$1027              fb_app_rollo10
     0C:   00000431  A$fb_app_rollo10$1028              fb_app_rollo10
     0C:   00000432  A$fb_app_rollo10$1031              fb_app_rollo10
     0C:   00000432  C$fb_app_rollo10.c$270$2$2         fb_app_rollo10
     0C:   00000434  A$fb_app_rollo10$1034              fb_app_rollo10
     0C:   00000434  C$fb_app_rollo10.c$271$2$2         fb_app_rollo10
     0C:   00000436  A$fb_app_rollo10$1035              fb_app_rollo10
     0C:   00000438  A$fb_app_rollo10$1036              fb_app_rollo10
     0C:   00000439  A$fb_app_rollo10$1037              fb_app_rollo10
     0C:   0000043B  A$fb_app_rollo10$1038              fb_app_rollo10
     0C:   0000043D  A$fb_app_rollo10$1042              fb_app_rollo10
     0C:   0000043D  C$fb_app_rollo10.c$274$2$3         fb_app_rollo10
     0C:   0000043E  A$fb_app_rollo10$1043              fb_app_rollo10
     0C:   00000440  A$fb_app_rollo10$1044              fb_app_rollo10
     0C:   00000441  A$fb_app_rollo10$1047              fb_app_rollo10
     0C:   00000441  C$fb_app_rollo10.c$275$2$3         fb_app_rollo10
     0C:   00000444  A$fb_app_rollo10$1048              fb_app_rollo10
     0C:   00000445  A$fb_app_rollo10$1049              fb_app_rollo10
     0C:   00000446  A$fb_app_rollo10$1050              fb_app_rollo10
     0C:   00000447  A$fb_app_rollo10$1051              fb_app_rollo10
     0C:   00000449  A$fb_app_rollo10$1052              fb_app_rollo10
     0C:   0000044B  A$fb_app_rollo10$1053              fb_app_rollo10
     0C:   0000044D  A$fb_app_rollo10$1054              fb_app_rollo10
     0C:   0000044F  A$fb_app_rollo10$1055              fb_app_rollo10
     0C:   00000451  A$fb_app_rollo10$1057              fb_app_rollo10
     0C:   00000452  A$fb_app_rollo10$1058              fb_app_rollo10
     0C:   00000453  A$fb_app_rollo10$1059              fb_app_rollo10
     0C:   00000454  A$fb_app_rollo10$1060              fb_app_rollo10
     0C:   00000455  A$fb_app_rollo10$1061              fb_app_rollo10
     0C:   00000456  A$fb_app_rollo10$1062              fb_app_rollo10
     0C:   00000457  A$fb_app_rollo10$1064              fb_app_rollo10
     0C:   0000045A  A$fb_app_rollo10$1065              fb_app_rollo10
     0C:   0000045C  A$fb_app_rollo10$1066              fb_app_rollo10
     0C:   0000045D  A$fb_app_rollo10$1067              fb_app_rollo10
     0C:   0000045F  A$fb_app_rollo10$1068              fb_app_rollo10
     0C:   00000460  A$fb_app_rollo10$1069              fb_app_rollo10
     0C:   00000462  A$fb_app_rollo10$1070              fb_app_rollo10
     0C:   00000463  A$fb_app_rollo10$1071              fb_app_rollo10
     0C:   00000464  A$fb_app_rollo10$1072              fb_app_rollo10
     0C:   00000467  A$fb_app_rollo10$1074              fb_app_rollo10
     0C:   00000468  A$fb_app_rollo10$1075              fb_app_rollo10
     0C:   00000469  A$fb_app_rollo10$1076              fb_app_rollo10
     0C:   0000046A  A$fb_app_rollo10$1077              fb_app_rollo10
ASxxxx Linker V02.00 + NoICE + sdld,  page 35.
Hexadecimal  [32-Bits]

Area                                    Addr        Size        Decimal Bytes (Attributes)
--------------------------------        ----        ----        ------- ----- ------------
CSEG                                0000007F    00001793 =        6035. bytes (REL,CON,CODE)

      Value  Global                              Global Defined In Module
      -----  --------------------------------   ------------------------
     0C:   0000046C  A$fb_app_rollo10$1078              fb_app_rollo10
     0C:   0000046E  A$fb_app_rollo10$1082              fb_app_rollo10
     0C:   0000046E  C$fb_app_rollo10.c$278$1$1         fb_app_rollo10
     0C:   00000470  A$fb_app_rollo10$1083              fb_app_rollo10
     0C:   00000472  A$fb_app_rollo10$1084              fb_app_rollo10
     0C:   00000473  A$fb_app_rollo10$1085              fb_app_rollo10
     0C:   00000475  A$fb_app_rollo10$1086              fb_app_rollo10
     0C:   00000477  A$fb_app_rollo10$1087              fb_app_rollo10
     0C:   0000047A  A$fb_app_rollo10$1088              fb_app_rollo10
     0C:   0000047C  A$fb_app_rollo10$1089              fb_app_rollo10
     0C:   0000047E  A$fb_app_rollo10$1090              fb_app_rollo10
     0C:   00000480  A$fb_app_rollo10$1091              fb_app_rollo10
     0C:   00000482  A$fb_app_rollo10$1092              fb_app_rollo10
     0C:   00000485  A$fb_app_rollo10$1093              fb_app_rollo10
     0C:   00000487  A$fb_app_rollo10$1094              fb_app_rollo10
     0C:   00000489  A$fb_app_rollo10$1095              fb_app_rollo10
     0C:   0000048B  A$fb_app_rollo10$1098              fb_app_rollo10
     0C:   0000048B  C$fb_app_rollo10.c$280$1$1         fb_app_rollo10
     0C:   0000048D  A$fb_app_rollo10$1099              fb_app_rollo10
     0C:   0000048F  A$fb_app_rollo10$1100              fb_app_rollo10
     0C:   00000490  A$fb_app_rollo10$1101              fb_app_rollo10
     0C:   00000491  A$fb_app_rollo10$1102              fb_app_rollo10
     0C:   00000493  A$fb_app_rollo10$1103              fb_app_rollo10
     0C:   00000495  A$fb_app_rollo10$1104              fb_app_rollo10
     0C:   00000498  A$fb_app_rollo10$1105              fb_app_rollo10
     0C:   00000499  A$fb_app_rollo10$1107              fb_app_rollo10
     0C:   0000049B  A$fb_app_rollo10$1108              fb_app_rollo10
     0C:   0000049C  A$fb_app_rollo10$1109              fb_app_rollo10
     0C:   0000049D  A$fb_app_rollo10$1110              fb_app_rollo10
     0C:   0000049F  A$fb_app_rollo10$1111              fb_app_rollo10
     0C:   000004A0  A$fb_app_rollo10$1112              fb_app_rollo10
     0C:   000004A2  A$fb_app_rollo10$1113              fb_app_rollo10
     0C:   000004A4  A$fb_app_rollo10$1114              fb_app_rollo10
     0C:   000004A6  A$fb_app_rollo10$1115              fb_app_rollo10
     0C:   000004A8  A$fb_app_rollo10$1117              fb_app_rollo10
     0C:   000004AA  A$fb_app_rollo10$1119              fb_app_rollo10
     0C:   000004AD  A$fb_app_rollo10$1120              fb_app_rollo10
     0C:   000004AE  A$fb_app_rollo10$1121              fb_app_rollo10
     0C:   000004B0  A$fb_app_rollo10$1122              fb_app_rollo10
     0C:   000004B2  A$fb_app_rollo10$1126              fb_app_rollo10
     0C:   000004B2  C$fb_app_rollo10.c$282$2$4         fb_app_rollo10
     0C:   000004B3  A$fb_app_rollo10$1127              fb_app_rollo10
     0C:   000004B4  A$fb_app_rollo10$1128              fb_app_rollo10
     0C:   000004B6  A$fb_app_rollo10$1129              fb_app_rollo10
     0C:   000004B7  A$fb_app_rollo10$1130              fb_app_rollo10
     0C:   000004B9  A$fb_app_rollo10$1131              fb_app_rollo10
     0C:   000004BB  A$fb_app_rollo10$1132              fb_app_rollo10
     0C:   000004BD  A$fb_app_rollo10$1133              fb_app_rollo10
     0C:   000004BF  A$fb_app_rollo10$1135              fb_app_rollo10
     0C:   000004C1  A$fb_app_rollo10$1137              fb_app_rollo10
     0C:   000004C4  A$fb_app_rollo10$1138              fb_app_rollo10
ASxxxx Linker V02.00 + NoICE + sdld,  page 36.
Hexadecimal  [32-Bits]

Area                                    Addr        Size        Decimal Bytes (Attributes)
--------------------------------        ----        ----        ------- ----- ------------
CSEG                                0000007F    00001793 =        6035. bytes (REL,CON,CODE)

      Value  Global                              Global Defined In Module
      -----  --------------------------------   ------------------------
     0C:   000004C5  A$fb_app_rollo10$1139              fb_app_rollo10
     0C:   000004C7  A$fb_app_rollo10$1140              fb_app_rollo10
     0C:   000004C8  A$fb_app_rollo10$1141              fb_app_rollo10
     0C:   000004C9  A$fb_app_rollo10$1142              fb_app_rollo10
     0C:   000004CB  A$fb_app_rollo10$1145              fb_app_rollo10
     0C:   000004CB  C$fb_app_rollo10.c$283$2$4         fb_app_rollo10
     0C:   000004CD  A$fb_app_rollo10$1146              fb_app_rollo10
     0C:   000004CE  A$fb_app_rollo10$1147              fb_app_rollo10
     0C:   000004D0  A$fb_app_rollo10$1148              fb_app_rollo10
     0C:   000004D3  A$fb_app_rollo10$1152              fb_app_rollo10
     0C:   000004D3  C$fb_app_rollo10.c$285$1$1         fb_app_rollo10
     0C:   000004D6  A$fb_app_rollo10$1153              fb_app_rollo10
     0C:   000004D7  A$fb_app_rollo10$1154              fb_app_rollo10
     0C:   000004D8  A$fb_app_rollo10$1155              fb_app_rollo10
     0C:   000004D9  A$fb_app_rollo10$1156              fb_app_rollo10
     0C:   000004DB  A$fb_app_rollo10$1157              fb_app_rollo10
     0C:   000004DD  A$fb_app_rollo10$1160              fb_app_rollo10
     0C:   000004DD  C$fb_app_rollo10.c$286$1$1         fb_app_rollo10
     0C:   000004DE  A$fb_app_rollo10$1161              fb_app_rollo10
     0C:   000004DF  A$fb_app_rollo10$1162              fb_app_rollo10
     0C:   000004E0  A$fb_app_rollo10$1163              fb_app_rollo10
     0C:   000004E2  A$fb_app_rollo10$1166              fb_app_rollo10
     0C:   000004E2  C$fb_app_rollo10.c$288$1$1         fb_app_rollo10
     0C:   000004E4  A$fb_app_rollo10$1167              fb_app_rollo10
     0C:   000004E5  A$fb_app_rollo10$1168              fb_app_rollo10
     0C:   000004E6  A$fb_app_rollo10$1169              fb_app_rollo10
     0C:   000004E8  A$fb_app_rollo10$1170              fb_app_rollo10
     0C:   000004EA  A$fb_app_rollo10$1173              fb_app_rollo10
     0C:   000004EA  C$fb_app_rollo10.c$289$1$1         fb_app_rollo10
     0C:   000004EC  A$fb_app_rollo10$1174              fb_app_rollo10
     0C:   000004ED  A$fb_app_rollo10$1175              fb_app_rollo10
     0C:   000004EE  A$fb_app_rollo10$1176              fb_app_rollo10
     0C:   000004F0  A$fb_app_rollo10$1177              fb_app_rollo10
     0C:   000004F2  A$fb_app_rollo10$1180              fb_app_rollo10
     0C:   000004F2  C$fb_app_rollo10.c$293$1$1         fb_app_rollo10
     0C:   000004F5  A$fb_app_rollo10$1181              fb_app_rollo10
     0C:   000004F8  A$fb_app_rollo10$1185              fb_app_rollo10
     0C:   000004F8  C$fb_app_rollo10.c$294$2$5         fb_app_rollo10
     0C:   000004FB  A$fb_app_rollo10$1188              fb_app_rollo10
     0C:   000004FD  A$fb_app_rollo10$1190              fb_app_rollo10
     0C:   000004FE  A$fb_app_rollo10$1191              fb_app_rollo10
     0C:   00000500  A$fb_app_rollo10$1192              fb_app_rollo10
     0C:   00000502  A$fb_app_rollo10$1193              fb_app_rollo10
     0C:   00000505  A$fb_app_rollo10$1197              fb_app_rollo10
     0C:   00000505  C$fb_app_rollo10.c$297$3$6         fb_app_rollo10
     0C:   00000507  A$fb_app_rollo10$1200              fb_app_rollo10
     0C:   00000507  C$fb_app_rollo10.c$298$3$6         fb_app_rollo10
     0C:   00000508  A$fb_app_rollo10$1201              fb_app_rollo10
     0C:   0000050B  A$fb_app_rollo10$1204              fb_app_rollo10
     0C:   0000050B  C$fb_app_rollo10.c$299$2$1         fb_app_rollo10
     0C:   0000050D  A$fb_app_rollo10$1205              fb_app_rollo10
ASxxxx Linker V02.00 + NoICE + sdld,  page 37.
Hexadecimal  [32-Bits]

Area                                    Addr        Size        Decimal Bytes (Attributes)
--------------------------------        ----        ----        ------- ----- ------------
CSEG                                0000007F    00001793 =        6035. bytes (REL,CON,CODE)

      Value  Global                              Global Defined In Module
      -----  --------------------------------   ------------------------
     0C:   00000510  A$fb_app_rollo10$1206              fb_app_rollo10
     0C:   00000511  A$fb_app_rollo10$1207              fb_app_rollo10
     0C:   00000512  A$fb_app_rollo10$1208              fb_app_rollo10
     0C:   00000513  A$fb_app_rollo10$1209              fb_app_rollo10
     0C:   00000515  A$fb_app_rollo10$1210              fb_app_rollo10
     0C:   00000516  A$fb_app_rollo10$1211              fb_app_rollo10
     0C:   00000517  A$fb_app_rollo10$1212              fb_app_rollo10
     0C:   00000519  A$fb_app_rollo10$1213              fb_app_rollo10
     0C:   0000051A  A$fb_app_rollo10$1214              fb_app_rollo10
     0C:   0000051B  A$fb_app_rollo10$1215              fb_app_rollo10
     0C:   0000051C  A$fb_app_rollo10$1216              fb_app_rollo10
     0C:   0000051E  A$fb_app_rollo10$1217              fb_app_rollo10
     0C:   00000520  A$fb_app_rollo10$1218              fb_app_rollo10
     0C:   00000521  A$fb_app_rollo10$1219              fb_app_rollo10
     0C:   00000523  A$fb_app_rollo10$1221              fb_app_rollo10
     0C:   00000524  A$fb_app_rollo10$1222              fb_app_rollo10
     0C:   00000525  A$fb_app_rollo10$1224              fb_app_rollo10
     0C:   00000528  A$fb_app_rollo10$1225              fb_app_rollo10
     0C:   00000529  A$fb_app_rollo10$1226              fb_app_rollo10
     0C:   0000052B  A$fb_app_rollo10$1227              fb_app_rollo10
     0C:   0000052C  A$fb_app_rollo10$1228              fb_app_rollo10
     0C:   0000052D  A$fb_app_rollo10$1231              fb_app_rollo10
     0C:   0000052F  A$fb_app_rollo10$1237              fb_app_rollo10
     0C:   0000052F  C$fb_app_rollo10.c$299$3$6         fb_app_rollo10
     0C:   0000052F  C$fb_app_rollo10.c$301$3$6         fb_app_rollo10
     0C:   00000530  A$fb_app_rollo10$1238              fb_app_rollo10
     0C:   00000533  A$fb_app_rollo10$1241              fb_app_rollo10
     0C:   00000533  C$fb_app_rollo10.c$302$2$1         fb_app_rollo10
     0C:   00000535  A$fb_app_rollo10$1242              fb_app_rollo10
     0C:   00000538  A$fb_app_rollo10$1243              fb_app_rollo10
     0C:   00000539  A$fb_app_rollo10$1244              fb_app_rollo10
     0C:   0000053A  A$fb_app_rollo10$1245              fb_app_rollo10
     0C:   0000053B  A$fb_app_rollo10$1246              fb_app_rollo10
     0C:   0000053D  A$fb_app_rollo10$1247              fb_app_rollo10
     0C:   0000053E  A$fb_app_rollo10$1248              fb_app_rollo10
     0C:   0000053F  A$fb_app_rollo10$1249              fb_app_rollo10
     0C:   00000541  A$fb_app_rollo10$1250              fb_app_rollo10
     0C:   00000542  A$fb_app_rollo10$1251              fb_app_rollo10
     0C:   00000543  A$fb_app_rollo10$1252              fb_app_rollo10
     0C:   00000544  A$fb_app_rollo10$1253              fb_app_rollo10
     0C:   00000546  A$fb_app_rollo10$1254              fb_app_rollo10
     0C:   00000548  A$fb_app_rollo10$1255              fb_app_rollo10
     0C:   00000549  A$fb_app_rollo10$1256              fb_app_rollo10
     0C:   0000054B  A$fb_app_rollo10$1258              fb_app_rollo10
     0C:   0000054C  A$fb_app_rollo10$1259              fb_app_rollo10
     0C:   0000054D  A$fb_app_rollo10$1261              fb_app_rollo10
     0C:   00000550  A$fb_app_rollo10$1262              fb_app_rollo10
     0C:   00000551  A$fb_app_rollo10$1263              fb_app_rollo10
     0C:   00000553  A$fb_app_rollo10$1264              fb_app_rollo10
     0C:   00000554  A$fb_app_rollo10$1265              fb_app_rollo10
     0C:   00000555  A$fb_app_rollo10$1268              fb_app_rollo10
ASxxxx Linker V02.00 + NoICE + sdld,  page 38.
Hexadecimal  [32-Bits]

Area                                    Addr        Size        Decimal Bytes (Attributes)
--------------------------------        ----        ----        ------- ----- ------------
CSEG                                0000007F    00001793 =        6035. bytes (REL,CON,CODE)

      Value  Global                              Global Defined In Module
      -----  --------------------------------   ------------------------
     0C:   00000555  C$fb_app_rollo10.c$296$2$1         fb_app_rollo10
     0C:   00000557  A$fb_app_rollo10$1274              fb_app_rollo10
     0C:   00000557  C$fb_app_rollo10.c$302$3$6         fb_app_rollo10
     0C:   00000557  C$fb_app_rollo10.c$304$3$6         fb_app_rollo10
     0C:   00000558  A$fb_app_rollo10$1275              fb_app_rollo10
     0C:   0000055A  A$fb_app_rollo10$1278              fb_app_rollo10
     0C:   0000055A  C$fb_app_rollo10.c$305$4$9         fb_app_rollo10
     0C:   0000055B  A$fb_app_rollo10$1279              fb_app_rollo10
     0C:   0000055C  A$fb_app_rollo10$1280              fb_app_rollo10
     0C:   0000055D  A$fb_app_rollo10$1281              fb_app_rollo10
     0C:   0000055F  A$fb_app_rollo10$1282              fb_app_rollo10
     0C:   00000561  A$fb_app_rollo10$1283              fb_app_rollo10
     0C:   00000563  A$fb_app_rollo10$1284              fb_app_rollo10
     0C:   00000564  A$fb_app_rollo10$1285              fb_app_rollo10
     0C:   00000565  A$fb_app_rollo10$1286              fb_app_rollo10
     0C:   00000567  A$fb_app_rollo10$1287              fb_app_rollo10
     0C:   00000569  A$fb_app_rollo10$1288              fb_app_rollo10
     0C:   0000056B  A$fb_app_rollo10$1289              fb_app_rollo10
     0C:   0000056D  A$fb_app_rollo10$1290              fb_app_rollo10
     0C:   0000056F  A$fb_app_rollo10$1291              fb_app_rollo10
     0C:   00000572  A$fb_app_rollo10$1292              fb_app_rollo10
     0C:   00000574  A$fb_app_rollo10$1293              fb_app_rollo10
     0C:   00000577  A$fb_app_rollo10$1294              fb_app_rollo10
     0C:   00000579  A$fb_app_rollo10$1295              fb_app_rollo10
     0C:   0000057B  A$fb_app_rollo10$1296              fb_app_rollo10
     0C:   0000057D  A$fb_app_rollo10$1300              fb_app_rollo10
     0C:   0000057D  C$fb_app_rollo10.c$307$3$6         fb_app_rollo10
     0C:   0000057E  A$fb_app_rollo10$1301              fb_app_rollo10
     0C:   0000057F  A$fb_app_rollo10$1302              fb_app_rollo10
     0C:   00000580  A$fb_app_rollo10$1303              fb_app_rollo10
     0C:   00000581  A$fb_app_rollo10$1306              fb_app_rollo10
     0C:   00000581  C$fb_app_rollo10.c$308$3$6         fb_app_rollo10
     0C:   00000582  A$fb_app_rollo10$1307              fb_app_rollo10
     0C:   00000583  A$fb_app_rollo10$1308              fb_app_rollo10
     0C:   00000584  A$fb_app_rollo10$1309              fb_app_rollo10
     0C:   00000585  A$fb_app_rollo10$1312              fb_app_rollo10
     0C:   00000585  C$fb_app_rollo10.c$296$2$5         fb_app_rollo10
     0C:   00000586  A$fb_app_rollo10$1313              fb_app_rollo10
     0C:   00000589  A$fb_app_rollo10$1315              fb_app_rollo10
     0C:   0000058B  A$fb_app_rollo10$1318              fb_app_rollo10
     0C:   0000058B  C$fb_app_rollo10.c$311$2$1         fb_app_rollo10
     0C:   0000058B  XG$Sobject_schalten$0$0            fb_app_rollo10
     0C:   0000058C  A$fb_app_rollo10$1342              fb_app_rollo10
     0C:   0000058C  C$fb_app_rollo10.c$317$2$1         fb_app_rollo10
     0C:   0000058C  G$object_schalten$0$0              fb_app_rollo10
     0C:   0000058C  _object_schalten                   fb_app_rollo10
     0C:   0000058E  A$fb_app_rollo10$1343              fb_app_rollo10
     0C:   00000591  A$fb_app_rollo10$1344              fb_app_rollo10
     0C:   00000593  A$fb_app_rollo10$1345              fb_app_rollo10
     0C:   00000595  A$fb_app_rollo10$1346              fb_app_rollo10
     0C:   00000597  A$fb_app_rollo10$1349              fb_app_rollo10
ASxxxx Linker V02.00 + NoICE + sdld,  page 39.
Hexadecimal  [32-Bits]

Area                                    Addr        Size        Decimal Bytes (Attributes)
--------------------------------        ----        ----        ------- ----- ------------
CSEG                                0000007F    00001793 =        6035. bytes (REL,CON,CODE)

      Value  Global                              Global Defined In Module
      -----  --------------------------------   ------------------------
     0C:   00000597  C$fb_app_rollo10.c$326$1$1         fb_app_rollo10
     0C:   00000599  A$fb_app_rollo10$1350              fb_app_rollo10
     0C:   0000059A  A$fb_app_rollo10$1351              fb_app_rollo10
     0C:   0000059C  A$fb_app_rollo10$1352              fb_app_rollo10
     0C:   0000059D  A$fb_app_rollo10$1353              fb_app_rollo10
     0C:   0000059F  A$fb_app_rollo10$1354              fb_app_rollo10
     0C:   000005A1  A$fb_app_rollo10$1355              fb_app_rollo10
     0C:   000005A2  A$fb_app_rollo10$1356              fb_app_rollo10
     0C:   000005A4  A$fb_app_rollo10$1357              fb_app_rollo10
     0C:   000005A5  A$fb_app_rollo10$1358              fb_app_rollo10
     0C:   000005A6  A$fb_app_rollo10$1361              fb_app_rollo10
     0C:   000005A6  C$fb_app_rollo10.c$327$1$1         fb_app_rollo10
     0C:   000005A8  A$fb_app_rollo10$1362              fb_app_rollo10
     0C:   000005A9  A$fb_app_rollo10$1363              fb_app_rollo10
     0C:   000005AB  A$fb_app_rollo10$1366              fb_app_rollo10
     0C:   000005AB  C$fb_app_rollo10.c$328$1$1         fb_app_rollo10
     0C:   000005AE  A$fb_app_rollo10$1367              fb_app_rollo10
     0C:   000005B0  A$fb_app_rollo10$1368              fb_app_rollo10
     0C:   000005B1  A$fb_app_rollo10$1369              fb_app_rollo10
     0C:   000005B3  A$fb_app_rollo10$1370              fb_app_rollo10
     0C:   000005B5  A$fb_app_rollo10$1371              fb_app_rollo10
     0C:   000005B7  A$fb_app_rollo10$1372              fb_app_rollo10
     0C:   000005B9  A$fb_app_rollo10$1373              fb_app_rollo10
     0C:   000005BB  A$fb_app_rollo10$1374              fb_app_rollo10
     0C:   000005BD  A$fb_app_rollo10$1375              fb_app_rollo10
     0C:   000005BE  A$fb_app_rollo10$1376              fb_app_rollo10
     0C:   000005C0  A$fb_app_rollo10$1377              fb_app_rollo10
     0C:   000005C3  A$fb_app_rollo10$1378              fb_app_rollo10
     0C:   000005C5  A$fb_app_rollo10$1379              fb_app_rollo10
     0C:   000005C7  A$fb_app_rollo10$1380              fb_app_rollo10
     0C:   000005C9  A$fb_app_rollo10$1381              fb_app_rollo10
     0C:   000005CB  A$fb_app_rollo10$1382              fb_app_rollo10
     0C:   000005CD  A$fb_app_rollo10$1383              fb_app_rollo10
     0C:   000005CF  A$fb_app_rollo10$1387              fb_app_rollo10
     0C:   000005CF  C$fb_app_rollo10.c$329$1$1         fb_app_rollo10
     0C:   000005D1  A$fb_app_rollo10$1388              fb_app_rollo10
     0C:   000005D2  A$fb_app_rollo10$1389              fb_app_rollo10
     0C:   000005D4  A$fb_app_rollo10$1390              fb_app_rollo10
     0C:   000005D6  A$fb_app_rollo10$1391              fb_app_rollo10
     0C:   000005D8  A$fb_app_rollo10$1392              fb_app_rollo10
     0C:   000005DA  A$fb_app_rollo10$1393              fb_app_rollo10
     0C:   000005DB  A$fb_app_rollo10$1394              fb_app_rollo10
     0C:   000005DD  A$fb_app_rollo10$1395              fb_app_rollo10
     0C:   000005DF  A$fb_app_rollo10$1396              fb_app_rollo10
     0C:   000005E2  A$fb_app_rollo10$1397              fb_app_rollo10
     0C:   000005E4  A$fb_app_rollo10$1398              fb_app_rollo10
     0C:   000005E6  A$fb_app_rollo10$1399              fb_app_rollo10
     0C:   000005E8  A$fb_app_rollo10$1400              fb_app_rollo10
     0C:   000005EA  A$fb_app_rollo10$1401              fb_app_rollo10
     0C:   000005EC  A$fb_app_rollo10$1405              fb_app_rollo10
     0C:   000005EC  C$fb_app_rollo10.c$330$1$1         fb_app_rollo10
ASxxxx Linker V02.00 + NoICE + sdld,  page 40.
Hexadecimal  [32-Bits]

Area                                    Addr        Size        Decimal Bytes (Attributes)
--------------------------------        ----        ----        ------- ----- ------------
CSEG                                0000007F    00001793 =        6035. bytes (REL,CON,CODE)

      Value  Global                              Global Defined In Module
      -----  --------------------------------   ------------------------
     0C:   000005EE  A$fb_app_rollo10$1406              fb_app_rollo10
     0C:   000005EF  A$fb_app_rollo10$1407              fb_app_rollo10
     0C:   000005F0  A$fb_app_rollo10$1408              fb_app_rollo10
     0C:   000005F2  A$fb_app_rollo10$1409              fb_app_rollo10
     0C:   000005F4  A$fb_app_rollo10$1410              fb_app_rollo10
     0C:   000005F6  A$fb_app_rollo10$1411              fb_app_rollo10
     0C:   000005F8  A$fb_app_rollo10$1412              fb_app_rollo10
     0C:   000005FA  A$fb_app_rollo10$1413              fb_app_rollo10
     0C:   000005FD  A$fb_app_rollo10$1414              fb_app_rollo10
     0C:   000005FF  A$fb_app_rollo10$1415              fb_app_rollo10
     0C:   00000601  A$fb_app_rollo10$1416              fb_app_rollo10
     0C:   00000603  A$fb_app_rollo10$1417              fb_app_rollo10
     0C:   00000605  A$fb_app_rollo10$1418              fb_app_rollo10
     0C:   00000607  A$fb_app_rollo10$1421              fb_app_rollo10
     0C:   00000607  C$fb_app_rollo10.c$331$1$1         fb_app_rollo10
     0C:   00000609  A$fb_app_rollo10$1422              fb_app_rollo10
     0C:   0000060B  A$fb_app_rollo10$1423              fb_app_rollo10
     0C:   0000060D  A$fb_app_rollo10$1424              fb_app_rollo10
     0C:   0000060F  A$fb_app_rollo10$1426              fb_app_rollo10
     0C:   00000611  A$fb_app_rollo10$1428              fb_app_rollo10
     0C:   00000614  A$fb_app_rollo10$1431              fb_app_rollo10
     0C:   00000614  C$fb_app_rollo10.c$334$1$1         fb_app_rollo10
     0C:   00000616  A$fb_app_rollo10$1432              fb_app_rollo10
     0C:   00000618  A$fb_app_rollo10$1433              fb_app_rollo10
     0C:   0000061B  A$fb_app_rollo10$1434              fb_app_rollo10
     0C:   0000061E  A$fb_app_rollo10$1435              fb_app_rollo10
     0C:   00000620  A$fb_app_rollo10$1438              fb_app_rollo10
     0C:   00000623  A$fb_app_rollo10$1440              fb_app_rollo10
     0C:   00000625  A$fb_app_rollo10$1441              fb_app_rollo10
     0C:   00000628  A$fb_app_rollo10$1446              fb_app_rollo10
     0C:   00000628  C$fb_app_rollo10.c$335$2$2         fb_app_rollo10
     0C:   0000062B  A$fb_app_rollo10$1449              fb_app_rollo10
     0C:   0000062B  C$fb_app_rollo10.c$339$2$2         fb_app_rollo10
     0C:   0000062E  A$fb_app_rollo10$1451              fb_app_rollo10
     0C:   00000630  A$fb_app_rollo10$1452              fb_app_rollo10
     0C:   00000633  A$fb_app_rollo10$1456              fb_app_rollo10
     0C:   00000633  C$fb_app_rollo10.c$340$3$3         fb_app_rollo10
     0C:   00000634  A$fb_app_rollo10$1457              fb_app_rollo10
     0C:   00000635  A$fb_app_rollo10$1458              fb_app_rollo10
     0C:   00000636  A$fb_app_rollo10$1459              fb_app_rollo10
     0C:   00000638  A$fb_app_rollo10$1460              fb_app_rollo10
     0C:   0000063B  A$fb_app_rollo10$1461              fb_app_rollo10
     0C:   0000063C  A$fb_app_rollo10$1462              fb_app_rollo10
     0C:   0000063D  A$fb_app_rollo10$1463              fb_app_rollo10
     0C:   0000063F  A$fb_app_rollo10$1464              fb_app_rollo10
     0C:   00000640  A$fb_app_rollo10$1465              fb_app_rollo10
     0C:   00000643  A$fb_app_rollo10$1466              fb_app_rollo10
     0C:   00000644  A$fb_app_rollo10$1467              fb_app_rollo10
     0C:   00000646  A$fb_app_rollo10$1468              fb_app_rollo10
     0C:   00000648  A$fb_app_rollo10$1469              fb_app_rollo10
     0C:   00000649  A$fb_app_rollo10$1470              fb_app_rollo10
ASxxxx Linker V02.00 + NoICE + sdld,  page 41.
Hexadecimal  [32-Bits]

Area                                    Addr        Size        Decimal Bytes (Attributes)
--------------------------------        ----        ----        ------- ----- ------------
CSEG                                0000007F    00001793 =        6035. bytes (REL,CON,CODE)

      Value  Global                              Global Defined In Module
      -----  --------------------------------   ------------------------
     0C:   0000064B  A$fb_app_rollo10$1472              fb_app_rollo10
     0C:   0000064C  A$fb_app_rollo10$1473              fb_app_rollo10
     0C:   0000064D  A$fb_app_rollo10$1475              fb_app_rollo10
     0C:   00000650  A$fb_app_rollo10$1476              fb_app_rollo10
     0C:   00000652  A$fb_app_rollo10$1477              fb_app_rollo10
     0C:   00000653  A$fb_app_rollo10$1478              fb_app_rollo10
     0C:   00000656  A$fb_app_rollo10$1481              fb_app_rollo10
     0C:   00000656  C$fb_app_rollo10.c$341$3$3         fb_app_rollo10
     0C:   00000658  A$fb_app_rollo10$1482              fb_app_rollo10
     0C:   00000659  A$fb_app_rollo10$1483              fb_app_rollo10
     0C:   0000065C  A$fb_app_rollo10$1484              fb_app_rollo10
     0C:   0000065D  A$fb_app_rollo10$1487              fb_app_rollo10
     0C:   0000065D  C$fb_app_rollo10.c$342$3$3         fb_app_rollo10
     0C:   0000065E  A$fb_app_rollo10$1488              fb_app_rollo10
     0C:   0000065F  A$fb_app_rollo10$1489              fb_app_rollo10
     0C:   00000660  A$fb_app_rollo10$1490              fb_app_rollo10
     0C:   00000662  A$fb_app_rollo10$1491              fb_app_rollo10
     0C:   00000663  A$fb_app_rollo10$1492              fb_app_rollo10
     0C:   00000664  A$fb_app_rollo10$1495              fb_app_rollo10
     0C:   00000664  C$fb_app_rollo10.c$344$3$3         fb_app_rollo10
     0C:   00000667  A$fb_app_rollo10$1498              fb_app_rollo10
     0C:   00000667  C$fb_app_rollo10.c$346$4$4         fb_app_rollo10
     0C:   00000669  A$fb_app_rollo10$1499              fb_app_rollo10
     0C:   0000066A  A$fb_app_rollo10$1500              fb_app_rollo10
     0C:   0000066B  A$fb_app_rollo10$1501              fb_app_rollo10
     0C:   0000066D  A$fb_app_rollo10$1502              fb_app_rollo10
     0C:   0000066F  A$fb_app_rollo10$1505              fb_app_rollo10
     0C:   0000066F  C$fb_app_rollo10.c$347$5$5         fb_app_rollo10
     0C:   00000671  A$fb_app_rollo10$1506              fb_app_rollo10
     0C:   00000672  A$fb_app_rollo10$1507              fb_app_rollo10
     0C:   00000674  A$fb_app_rollo10$1508              fb_app_rollo10
     0C:   00000675  A$fb_app_rollo10$1509              fb_app_rollo10
     0C:   00000676  A$fb_app_rollo10$1510              fb_app_rollo10
     0C:   00000678  A$fb_app_rollo10$1511              fb_app_rollo10
     0C:   0000067A  A$fb_app_rollo10$1512              fb_app_rollo10
     0C:   0000067C  A$fb_app_rollo10$1513              fb_app_rollo10
     0C:   0000067F  A$fb_app_rollo10$1514              fb_app_rollo10
     0C:   00000681  A$fb_app_rollo10$1515              fb_app_rollo10
     0C:   00000683  A$fb_app_rollo10$1518              fb_app_rollo10
     0C:   00000683  C$fb_app_rollo10.c$349$5$5         fb_app_rollo10
     0C:   00000685  A$fb_app_rollo10$1519              fb_app_rollo10
     0C:   00000686  A$fb_app_rollo10$1520              fb_app_rollo10
     0C:   00000688  A$fb_app_rollo10$1521              fb_app_rollo10
     0C:   00000689  A$fb_app_rollo10$1522              fb_app_rollo10
     0C:   0000068A  A$fb_app_rollo10$1525              fb_app_rollo10
     0C:   0000068A  C$fb_app_rollo10.c$350$5$5         fb_app_rollo10
     0C:   0000068B  A$fb_app_rollo10$1526              fb_app_rollo10
     0C:   0000068D  A$fb_app_rollo10$1527              fb_app_rollo10
     0C:   0000068E  A$fb_app_rollo10$1528              fb_app_rollo10
     0C:   00000690  A$fb_app_rollo10$1531              fb_app_rollo10
     0C:   00000690  C$fb_app_rollo10.c$351$5$5         fb_app_rollo10
ASxxxx Linker V02.00 + NoICE + sdld,  page 42.
Hexadecimal  [32-Bits]

Area                                    Addr        Size        Decimal Bytes (Attributes)
--------------------------------        ----        ----        ------- ----- ------------
CSEG                                0000007F    00001793 =        6035. bytes (REL,CON,CODE)

      Value  Global                              Global Defined In Module
      -----  --------------------------------   ------------------------
     0C:   00000691  A$fb_app_rollo10$1532              fb_app_rollo10
     0C:   00000693  A$fb_app_rollo10$1533              fb_app_rollo10
     0C:   00000694  A$fb_app_rollo10$1534              fb_app_rollo10
     0C:   00000696  A$fb_app_rollo10$1537              fb_app_rollo10
     0C:   00000696  C$fb_app_rollo10.c$352$5$5         fb_app_rollo10
     0C:   00000698  A$fb_app_rollo10$1538              fb_app_rollo10
     0C:   00000699  A$fb_app_rollo10$1539              fb_app_rollo10
     0C:   0000069A  A$fb_app_rollo10$1540              fb_app_rollo10
     0C:   0000069C  A$fb_app_rollo10$1541              fb_app_rollo10
     0C:   0000069D  A$fb_app_rollo10$1542              fb_app_rollo10
     0C:   0000069F  A$fb_app_rollo10$1545              fb_app_rollo10
     0C:   0000069F  C$fb_app_rollo10.c$353$5$5         fb_app_rollo10
     0C:   000006A0  A$fb_app_rollo10$1546              fb_app_rollo10
     0C:   000006A2  A$fb_app_rollo10$1547              fb_app_rollo10
     0C:   000006A3  A$fb_app_rollo10$1548              fb_app_rollo10
     0C:   000006A5  A$fb_app_rollo10$1549              fb_app_rollo10
     0C:   000006A8  A$fb_app_rollo10$1553              fb_app_rollo10
     0C:   000006A8  C$fb_app_rollo10.c$356$4$4         fb_app_rollo10
     0C:   000006AA  A$fb_app_rollo10$1554              fb_app_rollo10
     0C:   000006AB  A$fb_app_rollo10$1555              fb_app_rollo10
     0C:   000006AC  A$fb_app_rollo10$1556              fb_app_rollo10
     0C:   000006AE  A$fb_app_rollo10$1557              fb_app_rollo10
     0C:   000006B0  A$fb_app_rollo10$1558              fb_app_rollo10
     0C:   000006B3  A$fb_app_rollo10$1560              fb_app_rollo10
     0C:   000006B4  A$fb_app_rollo10$1561              fb_app_rollo10
     0C:   000006B6  A$fb_app_rollo10$1562              fb_app_rollo10
     0C:   000006B9  A$fb_app_rollo10$1566              fb_app_rollo10
     0C:   000006B9  C$fb_app_rollo10.c$357$5$6         fb_app_rollo10
     0C:   000006BB  A$fb_app_rollo10$1567              fb_app_rollo10
     0C:   000006BC  A$fb_app_rollo10$1568              fb_app_rollo10
     0C:   000006BE  A$fb_app_rollo10$1569              fb_app_rollo10
     0C:   000006BF  A$fb_app_rollo10$1570              fb_app_rollo10
     0C:   000006C0  A$fb_app_rollo10$1573              fb_app_rollo10
     0C:   000006C0  C$fb_app_rollo10.c$358$5$6         fb_app_rollo10
     0C:   000006C3  A$fb_app_rollo10$1576              fb_app_rollo10
     0C:   000006C3  C$fb_app_rollo10.c$360$5$6         fb_app_rollo10
     0C:   000006C4  A$fb_app_rollo10$1577              fb_app_rollo10
     0C:   000006C6  A$fb_app_rollo10$1578              fb_app_rollo10
     0C:   000006C7  A$fb_app_rollo10$1579              fb_app_rollo10
     0C:   000006C9  A$fb_app_rollo10$1582              fb_app_rollo10
     0C:   000006C9  C$fb_app_rollo10.c$361$5$6         fb_app_rollo10
     0C:   000006CA  A$fb_app_rollo10$1583              fb_app_rollo10
     0C:   000006CC  A$fb_app_rollo10$1584              fb_app_rollo10
     0C:   000006CD  A$fb_app_rollo10$1585              fb_app_rollo10
     0C:   000006CF  A$fb_app_rollo10$1588              fb_app_rollo10
     0C:   000006CF  C$fb_app_rollo10.c$362$5$6         fb_app_rollo10
     0C:   000006D0  A$fb_app_rollo10$1589              fb_app_rollo10
     0C:   000006D2  A$fb_app_rollo10$1590              fb_app_rollo10
     0C:   000006D3  A$fb_app_rollo10$1591              fb_app_rollo10
     0C:   000006D5  A$fb_app_rollo10$1592              fb_app_rollo10
     0C:   000006D8  A$fb_app_rollo10$1596              fb_app_rollo10
ASxxxx Linker V02.00 + NoICE + sdld,  page 43.
Hexadecimal  [32-Bits]

Area                                    Addr        Size        Decimal Bytes (Attributes)
--------------------------------        ----        ----        ------- ----- ------------
CSEG                                0000007F    00001793 =        6035. bytes (REL,CON,CODE)

      Value  Global                              Global Defined In Module
      -----  --------------------------------   ------------------------
     0C:   000006D8  C$fb_app_rollo10.c$367$4$7         fb_app_rollo10
     0C:   000006DA  A$fb_app_rollo10$1597              fb_app_rollo10
     0C:   000006DB  A$fb_app_rollo10$1598              fb_app_rollo10
     0C:   000006DC  A$fb_app_rollo10$1599              fb_app_rollo10
     0C:   000006DE  A$fb_app_rollo10$1600              fb_app_rollo10
     0C:   000006E0  A$fb_app_rollo10$1603              fb_app_rollo10
     0C:   000006E0  C$fb_app_rollo10.c$368$5$8         fb_app_rollo10
     0C:   000006E2  A$fb_app_rollo10$1604              fb_app_rollo10
     0C:   000006E3  A$fb_app_rollo10$1605              fb_app_rollo10
     0C:   000006E5  A$fb_app_rollo10$1606              fb_app_rollo10
     0C:   000006E6  A$fb_app_rollo10$1607              fb_app_rollo10
     0C:   000006E7  A$fb_app_rollo10$1608              fb_app_rollo10
     0C:   000006E9  A$fb_app_rollo10$1609              fb_app_rollo10
     0C:   000006EB  A$fb_app_rollo10$1610              fb_app_rollo10
     0C:   000006ED  A$fb_app_rollo10$1611              fb_app_rollo10
     0C:   000006EF  A$fb_app_rollo10$1612              fb_app_rollo10
     0C:   000006F1  A$fb_app_rollo10$1613              fb_app_rollo10
     0C:   000006F4  A$fb_app_rollo10$1614              fb_app_rollo10
     0C:   000006F6  A$fb_app_rollo10$1615              fb_app_rollo10
     0C:   000006F8  A$fb_app_rollo10$1616              fb_app_rollo10
     0C:   000006FA  A$fb_app_rollo10$1617              fb_app_rollo10
     0C:   000006FC  A$fb_app_rollo10$1620              fb_app_rollo10
     0C:   000006FC  C$fb_app_rollo10.c$369$5$8         fb_app_rollo10
     0C:   000006FE  A$fb_app_rollo10$1621              fb_app_rollo10
     0C:   000006FF  A$fb_app_rollo10$1622              fb_app_rollo10
     0C:   00000701  A$fb_app_rollo10$1623              fb_app_rollo10
     0C:   00000702  A$fb_app_rollo10$1624              fb_app_rollo10
     0C:   00000703  A$fb_app_rollo10$1627              fb_app_rollo10
     0C:   00000703  C$fb_app_rollo10.c$372$5$8         fb_app_rollo10
     0C:   00000704  A$fb_app_rollo10$1628              fb_app_rollo10
     0C:   00000706  A$fb_app_rollo10$1629              fb_app_rollo10
     0C:   00000707  A$fb_app_rollo10$1630              fb_app_rollo10
     0C:   00000709  A$fb_app_rollo10$1633              fb_app_rollo10
     0C:   00000709  C$fb_app_rollo10.c$373$5$8         fb_app_rollo10
     0C:   0000070A  A$fb_app_rollo10$1634              fb_app_rollo10
     0C:   0000070C  A$fb_app_rollo10$1635              fb_app_rollo10
     0C:   0000070D  A$fb_app_rollo10$1636              fb_app_rollo10
     0C:   0000070F  A$fb_app_rollo10$1639              fb_app_rollo10
     0C:   0000070F  C$fb_app_rollo10.c$374$5$8         fb_app_rollo10
     0C:   00000711  A$fb_app_rollo10$1640              fb_app_rollo10
     0C:   00000712  A$fb_app_rollo10$1641              fb_app_rollo10
     0C:   00000713  A$fb_app_rollo10$1642              fb_app_rollo10
     0C:   00000715  A$fb_app_rollo10$1643              fb_app_rollo10
     0C:   00000716  A$fb_app_rollo10$1644              fb_app_rollo10
     0C:   00000718  A$fb_app_rollo10$1647              fb_app_rollo10
     0C:   00000718  C$fb_app_rollo10.c$375$5$8         fb_app_rollo10
     0C:   00000719  A$fb_app_rollo10$1648              fb_app_rollo10
     0C:   0000071B  A$fb_app_rollo10$1649              fb_app_rollo10
     0C:   0000071C  A$fb_app_rollo10$1650              fb_app_rollo10
     0C:   0000071E  A$fb_app_rollo10$1654              fb_app_rollo10
     0C:   0000071E  C$fb_app_rollo10.c$377$4$7         fb_app_rollo10
ASxxxx Linker V02.00 + NoICE + sdld,  page 44.
Hexadecimal  [32-Bits]

Area                                    Addr        Size        Decimal Bytes (Attributes)
--------------------------------        ----        ----        ------- ----- ------------
CSEG                                0000007F    00001793 =        6035. bytes (REL,CON,CODE)

      Value  Global                              Global Defined In Module
      -----  --------------------------------   ------------------------
     0C:   00000720  A$fb_app_rollo10$1655              fb_app_rollo10
     0C:   00000721  A$fb_app_rollo10$1656              fb_app_rollo10
     0C:   00000722  A$fb_app_rollo10$1657              fb_app_rollo10
     0C:   00000724  A$fb_app_rollo10$1658              fb_app_rollo10
     0C:   00000726  A$fb_app_rollo10$1659              fb_app_rollo10
     0C:   00000729  A$fb_app_rollo10$1661              fb_app_rollo10
     0C:   0000072A  A$fb_app_rollo10$1662              fb_app_rollo10
     0C:   0000072C  A$fb_app_rollo10$1663              fb_app_rollo10
     0C:   0000072F  A$fb_app_rollo10$1667              fb_app_rollo10
     0C:   0000072F  C$fb_app_rollo10.c$378$5$9         fb_app_rollo10
     0C:   00000731  A$fb_app_rollo10$1668              fb_app_rollo10
     0C:   00000732  A$fb_app_rollo10$1669              fb_app_rollo10
     0C:   00000734  A$fb_app_rollo10$1670              fb_app_rollo10
     0C:   00000735  A$fb_app_rollo10$1671              fb_app_rollo10
     0C:   00000736  A$fb_app_rollo10$1674              fb_app_rollo10
     0C:   00000736  C$fb_app_rollo10.c$379$5$9         fb_app_rollo10
     0C:   00000739  A$fb_app_rollo10$1677              fb_app_rollo10
     0C:   00000739  C$fb_app_rollo10.c$381$5$9         fb_app_rollo10
     0C:   0000073A  A$fb_app_rollo10$1678              fb_app_rollo10
     0C:   0000073C  A$fb_app_rollo10$1679              fb_app_rollo10
     0C:   0000073D  A$fb_app_rollo10$1680              fb_app_rollo10
     0C:   0000073F  A$fb_app_rollo10$1683              fb_app_rollo10
     0C:   0000073F  C$fb_app_rollo10.c$382$5$9         fb_app_rollo10
     0C:   00000740  A$fb_app_rollo10$1684              fb_app_rollo10
     0C:   00000742  A$fb_app_rollo10$1685              fb_app_rollo10
     0C:   00000743  A$fb_app_rollo10$1686              fb_app_rollo10
     0C:   00000745  A$fb_app_rollo10$1689              fb_app_rollo10
     0C:   00000745  C$fb_app_rollo10.c$383$5$9         fb_app_rollo10
     0C:   00000746  A$fb_app_rollo10$1690              fb_app_rollo10
     0C:   00000748  A$fb_app_rollo10$1691              fb_app_rollo10
     0C:   00000749  A$fb_app_rollo10$1692              fb_app_rollo10
     0C:   0000074B  A$fb_app_rollo10$1693              fb_app_rollo10
     0C:   0000074E  A$fb_app_rollo10$1697              fb_app_rollo10
     0C:   0000074E  C$fb_app_rollo10.c$390$2$1         fb_app_rollo10
     0C:   00000750  A$fb_app_rollo10$1698              fb_app_rollo10
     0C:   00000752  A$fb_app_rollo10$1699              fb_app_rollo10
     0C:   00000753  A$fb_app_rollo10$1700              fb_app_rollo10
     0C:   00000754  A$fb_app_rollo10$1701              fb_app_rollo10
     0C:   00000755  A$fb_app_rollo10$1702              fb_app_rollo10
     0C:   00000756  A$fb_app_rollo10$1703              fb_app_rollo10
     0C:   00000758  A$fb_app_rollo10$1704              fb_app_rollo10
     0C:   0000075B  A$fb_app_rollo10$1705              fb_app_rollo10
     0C:   0000075C  A$fb_app_rollo10$1706              fb_app_rollo10
     0C:   0000075D  A$fb_app_rollo10$1707              fb_app_rollo10
     0C:   0000075F  A$fb_app_rollo10$1708              fb_app_rollo10
     0C:   00000760  A$fb_app_rollo10$1709              fb_app_rollo10
     0C:   00000763  A$fb_app_rollo10$1710              fb_app_rollo10
     0C:   00000764  A$fb_app_rollo10$1711              fb_app_rollo10
     0C:   00000766  A$fb_app_rollo10$1712              fb_app_rollo10
     0C:   00000768  A$fb_app_rollo10$1713              fb_app_rollo10
     0C:   00000769  A$fb_app_rollo10$1714              fb_app_rollo10
ASxxxx Linker V02.00 + NoICE + sdld,  page 45.
Hexadecimal  [32-Bits]

Area                                    Addr        Size        Decimal Bytes (Attributes)
--------------------------------        ----        ----        ------- ----- ------------
CSEG                                0000007F    00001793 =        6035. bytes (REL,CON,CODE)

      Value  Global                              Global Defined In Module
      -----  --------------------------------   ------------------------
     0C:   0000076B  A$fb_app_rollo10$1716              fb_app_rollo10
     0C:   0000076C  A$fb_app_rollo10$1717              fb_app_rollo10
     0C:   0000076D  A$fb_app_rollo10$1719              fb_app_rollo10
     0C:   00000770  A$fb_app_rollo10$1720              fb_app_rollo10
     0C:   00000772  A$fb_app_rollo10$1721              fb_app_rollo10
     0C:   00000773  A$fb_app_rollo10$1722              fb_app_rollo10
     0C:   00000775  A$fb_app_rollo10$1723              fb_app_rollo10
     0C:   00000776  A$fb_app_rollo10$1724              fb_app_rollo10
     0C:   00000777  A$fb_app_rollo10$1727              fb_app_rollo10
     0C:   00000777  C$fb_app_rollo10.c$391$3$10        fb_app_rollo10
     0C:   00000779  A$fb_app_rollo10$1728              fb_app_rollo10
     0C:   0000077A  A$fb_app_rollo10$1729              fb_app_rollo10
     0C:   0000077D  A$fb_app_rollo10$1730              fb_app_rollo10
     0C:   0000077E  A$fb_app_rollo10$1733              fb_app_rollo10
     0C:   0000077E  C$fb_app_rollo10.c$392$3$10        fb_app_rollo10
     0C:   0000077F  A$fb_app_rollo10$1734              fb_app_rollo10
     0C:   00000780  A$fb_app_rollo10$1735              fb_app_rollo10
     0C:   00000781  A$fb_app_rollo10$1736              fb_app_rollo10
     0C:   00000783  A$fb_app_rollo10$1737              fb_app_rollo10
     0C:   00000784  A$fb_app_rollo10$1740              fb_app_rollo10
     0C:   00000784  C$fb_app_rollo10.c$393$3$10        fb_app_rollo10
     0C:   00000785  A$fb_app_rollo10$1741              fb_app_rollo10
     0C:   00000786  A$fb_app_rollo10$1742              fb_app_rollo10
     0C:   00000787  A$fb_app_rollo10$1743              fb_app_rollo10
     0C:   00000789  A$fb_app_rollo10$1744              fb_app_rollo10
     0C:   0000078A  A$fb_app_rollo10$1745              fb_app_rollo10
     0C:   0000078B  A$fb_app_rollo10$1748              fb_app_rollo10
     0C:   0000078B  C$fb_app_rollo10.c$394$3$10        fb_app_rollo10
     0C:   0000078E  A$fb_app_rollo10$1749              fb_app_rollo10
     0C:   0000078F  A$fb_app_rollo10$1750              fb_app_rollo10
     0C:   00000790  A$fb_app_rollo10$1751              fb_app_rollo10
     0C:   00000791  A$fb_app_rollo10$1752              fb_app_rollo10
     0C:   00000793  A$fb_app_rollo10$1753              fb_app_rollo10
     0C:   00000795  A$fb_app_rollo10$1754              fb_app_rollo10
     0C:   00000796  A$fb_app_rollo10$1755              fb_app_rollo10
     0C:   00000798  A$fb_app_rollo10$1757              fb_app_rollo10
     0C:   00000799  A$fb_app_rollo10$1758              fb_app_rollo10
     0C:   0000079A  A$fb_app_rollo10$1760              fb_app_rollo10
     0C:   0000079D  A$fb_app_rollo10$1761              fb_app_rollo10
     0C:   0000079E  A$fb_app_rollo10$1762              fb_app_rollo10
     0C:   000007A0  A$fb_app_rollo10$1763              fb_app_rollo10
     0C:   000007A1  A$fb_app_rollo10$1764              fb_app_rollo10
     0C:   000007A2  A$fb_app_rollo10$1765              fb_app_rollo10
     0C:   000007A4  A$fb_app_rollo10$1766              fb_app_rollo10
     0C:   000007A5  A$fb_app_rollo10$1767              fb_app_rollo10
     0C:   000007A6  A$fb_app_rollo10$1770              fb_app_rollo10
     0C:   000007A6  C$fb_app_rollo10.c$395$2$1         fb_app_rollo10
     0C:   000007A8  A$fb_app_rollo10$1771              fb_app_rollo10
     0C:   000007AB  A$fb_app_rollo10$1772              fb_app_rollo10
     0C:   000007AE  A$fb_app_rollo10$1776              fb_app_rollo10
     0C:   000007AE  C$fb_app_rollo10.c$396$4$11        fb_app_rollo10
ASxxxx Linker V02.00 + NoICE + sdld,  page 46.
Hexadecimal  [32-Bits]

Area                                    Addr        Size        Decimal Bytes (Attributes)
--------------------------------        ----        ----        ------- ----- ------------
CSEG                                0000007F    00001793 =        6035. bytes (REL,CON,CODE)

      Value  Global                              Global Defined In Module
      -----  --------------------------------   ------------------------
     0C:   000007B0  A$fb_app_rollo10$1777              fb_app_rollo10
     0C:   000007B1  A$fb_app_rollo10$1778              fb_app_rollo10
     0C:   000007B2  A$fb_app_rollo10$1779              fb_app_rollo10
     0C:   000007B4  A$fb_app_rollo10$1780              fb_app_rollo10
     0C:   000007B6  A$fb_app_rollo10$1783              fb_app_rollo10
     0C:   000007B6  C$fb_app_rollo10.c$397$5$12        fb_app_rollo10
     0C:   000007B8  A$fb_app_rollo10$1784              fb_app_rollo10
     0C:   000007B9  A$fb_app_rollo10$1785              fb_app_rollo10
     0C:   000007BB  A$fb_app_rollo10$1786              fb_app_rollo10
     0C:   000007BC  A$fb_app_rollo10$1787              fb_app_rollo10
     0C:   000007BD  A$fb_app_rollo10$1790              fb_app_rollo10
     0C:   000007BD  C$fb_app_rollo10.c$398$5$12        fb_app_rollo10
     0C:   000007BE  A$fb_app_rollo10$1791              fb_app_rollo10
     0C:   000007C0  A$fb_app_rollo10$1792              fb_app_rollo10
     0C:   000007C1  A$fb_app_rollo10$1793              fb_app_rollo10
     0C:   000007C3  A$fb_app_rollo10$1794              fb_app_rollo10
     0C:   000007C4  A$fb_app_rollo10$1795              fb_app_rollo10
     0C:   000007C6  A$fb_app_rollo10$1798              fb_app_rollo10
     0C:   000007C6  C$fb_app_rollo10.c$399$5$12        fb_app_rollo10
     0C:   000007C7  A$fb_app_rollo10$1799              fb_app_rollo10
     0C:   000007C9  A$fb_app_rollo10$1800              fb_app_rollo10
     0C:   000007CA  A$fb_app_rollo10$1801              fb_app_rollo10
     0C:   000007CC  A$fb_app_rollo10$1804              fb_app_rollo10
     0C:   000007CC  C$fb_app_rollo10.c$400$5$12        fb_app_rollo10
     0C:   000007CD  A$fb_app_rollo10$1805              fb_app_rollo10
     0C:   000007CF  A$fb_app_rollo10$1806              fb_app_rollo10
     0C:   000007D0  A$fb_app_rollo10$1807              fb_app_rollo10
     0C:   000007D2  A$fb_app_rollo10$1810              fb_app_rollo10
     0C:   000007D2  C$fb_app_rollo10.c$401$5$12        fb_app_rollo10
     0C:   000007D4  A$fb_app_rollo10$1811              fb_app_rollo10
     0C:   000007D5  A$fb_app_rollo10$1812              fb_app_rollo10
     0C:   000007D6  A$fb_app_rollo10$1813              fb_app_rollo10
     0C:   000007D7  A$fb_app_rollo10$1814              fb_app_rollo10
     0C:   000007D9  A$fb_app_rollo10$1817              fb_app_rollo10
     0C:   000007D9  C$fb_app_rollo10.c$403$6$13        fb_app_rollo10
     0C:   000007DA  A$fb_app_rollo10$1818              fb_app_rollo10
     0C:   000007DC  A$fb_app_rollo10$1819              fb_app_rollo10
     0C:   000007DD  A$fb_app_rollo10$1820              fb_app_rollo10
     0C:   000007DF  A$fb_app_rollo10$1823              fb_app_rollo10
     0C:   000007DF  C$fb_app_rollo10.c$404$6$13        fb_app_rollo10
     0C:   000007E0  A$fb_app_rollo10$1824              fb_app_rollo10
     0C:   000007E2  A$fb_app_rollo10$1825              fb_app_rollo10
     0C:   000007E3  A$fb_app_rollo10$1826              fb_app_rollo10
     0C:   000007E5  A$fb_app_rollo10$1829              fb_app_rollo10
     0C:   000007E5  C$fb_app_rollo10.c$405$6$13        fb_app_rollo10
     0C:   000007E6  A$fb_app_rollo10$1830              fb_app_rollo10
     0C:   000007E8  A$fb_app_rollo10$1831              fb_app_rollo10
     0C:   000007E9  A$fb_app_rollo10$1832              fb_app_rollo10
     0C:   000007EB  A$fb_app_rollo10$1836              fb_app_rollo10
     0C:   000007EB  C$fb_app_rollo10.c$408$4$11        fb_app_rollo10
     0C:   000007ED  A$fb_app_rollo10$1837              fb_app_rollo10
ASxxxx Linker V02.00 + NoICE + sdld,  page 47.
Hexadecimal  [32-Bits]

Area                                    Addr        Size        Decimal Bytes (Attributes)
--------------------------------        ----        ----        ------- ----- ------------
CSEG                                0000007F    00001793 =        6035. bytes (REL,CON,CODE)

      Value  Global                              Global Defined In Module
      -----  --------------------------------   ------------------------
     0C:   000007EE  A$fb_app_rollo10$1838              fb_app_rollo10
     0C:   000007EF  A$fb_app_rollo10$1839              fb_app_rollo10
     0C:   000007F1  A$fb_app_rollo10$1840              fb_app_rollo10
     0C:   000007F3  A$fb_app_rollo10$1843              fb_app_rollo10
     0C:   000007F3  C$fb_app_rollo10.c$409$5$14        fb_app_rollo10
     0C:   000007F5  A$fb_app_rollo10$1844              fb_app_rollo10
     0C:   000007F6  A$fb_app_rollo10$1845              fb_app_rollo10
     0C:   000007F8  A$fb_app_rollo10$1846              fb_app_rollo10
     0C:   000007F9  A$fb_app_rollo10$1847              fb_app_rollo10
     0C:   000007FA  A$fb_app_rollo10$1850              fb_app_rollo10
     0C:   000007FA  C$fb_app_rollo10.c$412$5$14        fb_app_rollo10
     0C:   000007FC  A$fb_app_rollo10$1851              fb_app_rollo10
     0C:   000007FD  A$fb_app_rollo10$1852              fb_app_rollo10
     0C:   000007FE  A$fb_app_rollo10$1853              fb_app_rollo10
     0C:   000007FF  A$fb_app_rollo10$1854              fb_app_rollo10
     0C:   00000801  A$fb_app_rollo10$1857              fb_app_rollo10
     0C:   00000801  C$fb_app_rollo10.c$414$6$15        fb_app_rollo10
     0C:   00000802  A$fb_app_rollo10$1858              fb_app_rollo10
     0C:   00000804  A$fb_app_rollo10$1859              fb_app_rollo10
     0C:   00000805  A$fb_app_rollo10$1860              fb_app_rollo10
     0C:   00000807  A$fb_app_rollo10$1863              fb_app_rollo10
     0C:   00000807  C$fb_app_rollo10.c$415$6$15        fb_app_rollo10
     0C:   00000808  A$fb_app_rollo10$1864              fb_app_rollo10
     0C:   0000080A  A$fb_app_rollo10$1865              fb_app_rollo10
     0C:   0000080B  A$fb_app_rollo10$1866              fb_app_rollo10
     0C:   0000080D  A$fb_app_rollo10$1869              fb_app_rollo10
     0C:   0000080D  C$fb_app_rollo10.c$416$6$15        fb_app_rollo10
     0C:   0000080E  A$fb_app_rollo10$1870              fb_app_rollo10
     0C:   00000810  A$fb_app_rollo10$1871              fb_app_rollo10
     0C:   00000811  A$fb_app_rollo10$1872              fb_app_rollo10
     0C:   00000813  A$fb_app_rollo10$1876              fb_app_rollo10
     0C:   00000813  C$fb_app_rollo10.c$420$4$11        fb_app_rollo10
     0C:   00000815  A$fb_app_rollo10$1877              fb_app_rollo10
     0C:   00000816  A$fb_app_rollo10$1878              fb_app_rollo10
     0C:   00000817  A$fb_app_rollo10$1879              fb_app_rollo10
     0C:   00000819  A$fb_app_rollo10$1880              fb_app_rollo10
     0C:   0000081B  A$fb_app_rollo10$1881              fb_app_rollo10
     0C:   0000081E  A$fb_app_rollo10$1885              fb_app_rollo10
     0C:   0000081E  C$fb_app_rollo10.c$421$5$16        fb_app_rollo10
     0C:   00000820  A$fb_app_rollo10$1886              fb_app_rollo10
     0C:   00000822  A$fb_app_rollo10$1887              fb_app_rollo10
     0C:   00000824  A$fb_app_rollo10$1888              fb_app_rollo10
     0C:   00000826  A$fb_app_rollo10$1889              fb_app_rollo10
     0C:   00000828  A$fb_app_rollo10$1890              fb_app_rollo10
     0C:   0000082A  A$fb_app_rollo10$1891              fb_app_rollo10
     0C:   0000082D  A$fb_app_rollo10$1892              fb_app_rollo10
     0C:   0000082F  A$fb_app_rollo10$1893              fb_app_rollo10
     0C:   00000831  A$fb_app_rollo10$1894              fb_app_rollo10
     0C:   00000833  A$fb_app_rollo10$1895              fb_app_rollo10
     0C:   00000835  A$fb_app_rollo10$1898              fb_app_rollo10
     0C:   00000835  C$fb_app_rollo10.c$422$5$16        fb_app_rollo10
ASxxxx Linker V02.00 + NoICE + sdld,  page 48.
Hexadecimal  [32-Bits]

Area                                    Addr        Size        Decimal Bytes (Attributes)
--------------------------------        ----        ----        ------- ----- ------------
CSEG                                0000007F    00001793 =        6035. bytes (REL,CON,CODE)

      Value  Global                              Global Defined In Module
      -----  --------------------------------   ------------------------
     0C:   00000837  A$fb_app_rollo10$1899              fb_app_rollo10
     0C:   00000838  A$fb_app_rollo10$1900              fb_app_rollo10
     0C:   0000083A  A$fb_app_rollo10$1901              fb_app_rollo10
     0C:   0000083B  A$fb_app_rollo10$1902              fb_app_rollo10
     0C:   0000083C  A$fb_app_rollo10$1905              fb_app_rollo10
     0C:   0000083C  C$fb_app_rollo10.c$423$5$16        fb_app_rollo10
     0C:   0000083F  A$fb_app_rollo10$1908              fb_app_rollo10
     0C:   0000083F  C$fb_app_rollo10.c$424$5$16        fb_app_rollo10
     0C:   00000841  A$fb_app_rollo10$1909              fb_app_rollo10
     0C:   00000842  A$fb_app_rollo10$1910              fb_app_rollo10
     0C:   00000843  A$fb_app_rollo10$1911              fb_app_rollo10
     0C:   00000844  A$fb_app_rollo10$1912              fb_app_rollo10
     0C:   00000846  A$fb_app_rollo10$1913              fb_app_rollo10
     0C:   00000849  A$fb_app_rollo10$1917              fb_app_rollo10
     0C:   00000849  C$fb_app_rollo10.c$426$6$17        fb_app_rollo10
     0C:   0000084A  A$fb_app_rollo10$1918              fb_app_rollo10
     0C:   0000084C  A$fb_app_rollo10$1919              fb_app_rollo10
     0C:   0000084D  A$fb_app_rollo10$1920              fb_app_rollo10
     0C:   0000084F  A$fb_app_rollo10$1921              fb_app_rollo10
     0C:   00000850  A$fb_app_rollo10$1922              fb_app_rollo10
     0C:   00000851  A$fb_app_rollo10$1925              fb_app_rollo10
     0C:   00000851  C$fb_app_rollo10.c$427$6$17        fb_app_rollo10
     0C:   00000852  A$fb_app_rollo10$1926              fb_app_rollo10
     0C:   00000854  A$fb_app_rollo10$1927              fb_app_rollo10
     0C:   00000855  A$fb_app_rollo10$1928              fb_app_rollo10
     0C:   00000857  A$fb_app_rollo10$1931              fb_app_rollo10
     0C:   00000857  C$fb_app_rollo10.c$428$6$17        fb_app_rollo10
     0C:   00000858  A$fb_app_rollo10$1932              fb_app_rollo10
     0C:   0000085A  A$fb_app_rollo10$1933              fb_app_rollo10
     0C:   0000085B  A$fb_app_rollo10$1934              fb_app_rollo10
     0C:   0000085D  A$fb_app_rollo10$1935              fb_app_rollo10
     0C:   00000860  A$fb_app_rollo10$1939              fb_app_rollo10
     0C:   00000860  C$fb_app_rollo10.c$434$4$18        fb_app_rollo10
     0C:   00000862  A$fb_app_rollo10$1940              fb_app_rollo10
     0C:   00000863  A$fb_app_rollo10$1941              fb_app_rollo10
     0C:   00000864  A$fb_app_rollo10$1942              fb_app_rollo10
     0C:   00000866  A$fb_app_rollo10$1943              fb_app_rollo10
     0C:   00000868  A$fb_app_rollo10$1946              fb_app_rollo10
     0C:   00000868  C$fb_app_rollo10.c$435$5$19        fb_app_rollo10
     0C:   0000086A  A$fb_app_rollo10$1947              fb_app_rollo10
     0C:   0000086B  A$fb_app_rollo10$1948              fb_app_rollo10
     0C:   0000086D  A$fb_app_rollo10$1949              fb_app_rollo10
     0C:   0000086E  A$fb_app_rollo10$1950              fb_app_rollo10
     0C:   0000086F  A$fb_app_rollo10$1953              fb_app_rollo10
     0C:   0000086F  C$fb_app_rollo10.c$436$5$19        fb_app_rollo10
     0C:   00000870  A$fb_app_rollo10$1954              fb_app_rollo10
     0C:   00000872  A$fb_app_rollo10$1955              fb_app_rollo10
     0C:   00000873  A$fb_app_rollo10$1956              fb_app_rollo10
     0C:   00000875  A$fb_app_rollo10$1957              fb_app_rollo10
     0C:   00000876  A$fb_app_rollo10$1958              fb_app_rollo10
     0C:   00000878  A$fb_app_rollo10$1961              fb_app_rollo10
ASxxxx Linker V02.00 + NoICE + sdld,  page 49.
Hexadecimal  [32-Bits]

Area                                    Addr        Size        Decimal Bytes (Attributes)
--------------------------------        ----        ----        ------- ----- ------------
CSEG                                0000007F    00001793 =        6035. bytes (REL,CON,CODE)

      Value  Global                              Global Defined In Module
      -----  --------------------------------   ------------------------
     0C:   00000878  C$fb_app_rollo10.c$437$5$19        fb_app_rollo10
     0C:   00000879  A$fb_app_rollo10$1962              fb_app_rollo10
     0C:   0000087B  A$fb_app_rollo10$1963              fb_app_rollo10
     0C:   0000087C  A$fb_app_rollo10$1964              fb_app_rollo10
     0C:   0000087E  A$fb_app_rollo10$1967              fb_app_rollo10
     0C:   0000087E  C$fb_app_rollo10.c$438$5$19        fb_app_rollo10
     0C:   0000087F  A$fb_app_rollo10$1968              fb_app_rollo10
     0C:   00000881  A$fb_app_rollo10$1969              fb_app_rollo10
     0C:   00000882  A$fb_app_rollo10$1970              fb_app_rollo10
     0C:   00000884  A$fb_app_rollo10$1973              fb_app_rollo10
     0C:   00000884  C$fb_app_rollo10.c$440$5$19        fb_app_rollo10
     0C:   00000886  A$fb_app_rollo10$1974              fb_app_rollo10
     0C:   00000887  A$fb_app_rollo10$1975              fb_app_rollo10
     0C:   00000888  A$fb_app_rollo10$1976              fb_app_rollo10
     0C:   00000889  A$fb_app_rollo10$1977              fb_app_rollo10
     0C:   0000088B  A$fb_app_rollo10$1980              fb_app_rollo10
     0C:   0000088B  C$fb_app_rollo10.c$442$6$20        fb_app_rollo10
     0C:   0000088C  A$fb_app_rollo10$1981              fb_app_rollo10
     0C:   0000088E  A$fb_app_rollo10$1982              fb_app_rollo10
     0C:   0000088F  A$fb_app_rollo10$1983              fb_app_rollo10
     0C:   00000891  A$fb_app_rollo10$1986              fb_app_rollo10
     0C:   00000891  C$fb_app_rollo10.c$443$6$20        fb_app_rollo10
     0C:   00000892  A$fb_app_rollo10$1987              fb_app_rollo10
     0C:   00000894  A$fb_app_rollo10$1988              fb_app_rollo10
     0C:   00000895  A$fb_app_rollo10$1989              fb_app_rollo10
     0C:   00000897  A$fb_app_rollo10$1992              fb_app_rollo10
     0C:   00000897  C$fb_app_rollo10.c$444$6$20        fb_app_rollo10
     0C:   00000898  A$fb_app_rollo10$1993              fb_app_rollo10
     0C:   0000089A  A$fb_app_rollo10$1994              fb_app_rollo10
     0C:   0000089B  A$fb_app_rollo10$1995              fb_app_rollo10
     0C:   0000089D  A$fb_app_rollo10$1999              fb_app_rollo10
     0C:   0000089D  C$fb_app_rollo10.c$447$4$18        fb_app_rollo10
     0C:   0000089F  A$fb_app_rollo10$2000              fb_app_rollo10
     0C:   000008A0  A$fb_app_rollo10$2001              fb_app_rollo10
     0C:   000008A1  A$fb_app_rollo10$2002              fb_app_rollo10
     0C:   000008A3  A$fb_app_rollo10$2003              fb_app_rollo10
     0C:   000008A5  A$fb_app_rollo10$2006              fb_app_rollo10
     0C:   000008A5  C$fb_app_rollo10.c$448$5$21        fb_app_rollo10
     0C:   000008A7  A$fb_app_rollo10$2007              fb_app_rollo10
     0C:   000008A8  A$fb_app_rollo10$2008              fb_app_rollo10
     0C:   000008AA  A$fb_app_rollo10$2009              fb_app_rollo10
     0C:   000008AB  A$fb_app_rollo10$2010              fb_app_rollo10
     0C:   000008AC  A$fb_app_rollo10$2013              fb_app_rollo10
     0C:   000008AC  C$fb_app_rollo10.c$451$5$21        fb_app_rollo10
     0C:   000008AD  A$fb_app_rollo10$2014              fb_app_rollo10
     0C:   000008AF  A$fb_app_rollo10$2015              fb_app_rollo10
     0C:   000008B0  A$fb_app_rollo10$2016              fb_app_rollo10
     0C:   000008B2  A$fb_app_rollo10$2017              fb_app_rollo10
     0C:   000008B3  A$fb_app_rollo10$2018              fb_app_rollo10
     0C:   000008B5  A$fb_app_rollo10$2021              fb_app_rollo10
     0C:   000008B5  C$fb_app_rollo10.c$452$5$21        fb_app_rollo10
ASxxxx Linker V02.00 + NoICE + sdld,  page 50.
Hexadecimal  [32-Bits]

Area                                    Addr        Size        Decimal Bytes (Attributes)
--------------------------------        ----        ----        ------- ----- ------------
CSEG                                0000007F    00001793 =        6035. bytes (REL,CON,CODE)

      Value  Global                              Global Defined In Module
      -----  --------------------------------   ------------------------
     0C:   000008B6  A$fb_app_rollo10$2022              fb_app_rollo10
     0C:   000008B8  A$fb_app_rollo10$2023              fb_app_rollo10
     0C:   000008B9  A$fb_app_rollo10$2024              fb_app_rollo10
     0C:   000008BB  A$fb_app_rollo10$2027              fb_app_rollo10
     0C:   000008BB  C$fb_app_rollo10.c$453$5$21        fb_app_rollo10
     0C:   000008BC  A$fb_app_rollo10$2028              fb_app_rollo10
     0C:   000008BE  A$fb_app_rollo10$2029              fb_app_rollo10
     0C:   000008BF  A$fb_app_rollo10$2030              fb_app_rollo10
     0C:   000008C1  A$fb_app_rollo10$2033              fb_app_rollo10
     0C:   000008C1  C$fb_app_rollo10.c$454$5$21        fb_app_rollo10
     0C:   000008C3  A$fb_app_rollo10$2034              fb_app_rollo10
     0C:   000008C4  A$fb_app_rollo10$2035              fb_app_rollo10
     0C:   000008C5  A$fb_app_rollo10$2036              fb_app_rollo10
     0C:   000008C6  A$fb_app_rollo10$2037              fb_app_rollo10
     0C:   000008C8  A$fb_app_rollo10$2040              fb_app_rollo10
     0C:   000008C8  C$fb_app_rollo10.c$456$6$22        fb_app_rollo10
     0C:   000008C9  A$fb_app_rollo10$2041              fb_app_rollo10
     0C:   000008CB  A$fb_app_rollo10$2042              fb_app_rollo10
     0C:   000008CC  A$fb_app_rollo10$2043              fb_app_rollo10
     0C:   000008CE  A$fb_app_rollo10$2046              fb_app_rollo10
     0C:   000008CE  C$fb_app_rollo10.c$457$6$22        fb_app_rollo10
     0C:   000008CF  A$fb_app_rollo10$2047              fb_app_rollo10
     0C:   000008D1  A$fb_app_rollo10$2048              fb_app_rollo10
     0C:   000008D2  A$fb_app_rollo10$2049              fb_app_rollo10
     0C:   000008D4  A$fb_app_rollo10$2052              fb_app_rollo10
     0C:   000008D4  C$fb_app_rollo10.c$458$6$22        fb_app_rollo10
     0C:   000008D5  A$fb_app_rollo10$2053              fb_app_rollo10
     0C:   000008D7  A$fb_app_rollo10$2054              fb_app_rollo10
     0C:   000008D8  A$fb_app_rollo10$2055              fb_app_rollo10
     0C:   000008DA  A$fb_app_rollo10$2059              fb_app_rollo10
     0C:   000008DA  C$fb_app_rollo10.c$461$4$18        fb_app_rollo10
     0C:   000008DC  A$fb_app_rollo10$2060              fb_app_rollo10
     0C:   000008DD  A$fb_app_rollo10$2061              fb_app_rollo10
     0C:   000008DE  A$fb_app_rollo10$2062              fb_app_rollo10
     0C:   000008E0  A$fb_app_rollo10$2063              fb_app_rollo10
     0C:   000008E2  A$fb_app_rollo10$2066              fb_app_rollo10
     0C:   000008E2  C$fb_app_rollo10.c$462$5$23        fb_app_rollo10
     0C:   000008E4  A$fb_app_rollo10$2067              fb_app_rollo10
     0C:   000008E6  A$fb_app_rollo10$2068              fb_app_rollo10
     0C:   000008E8  A$fb_app_rollo10$2069              fb_app_rollo10
     0C:   000008EA  A$fb_app_rollo10$2070              fb_app_rollo10
     0C:   000008EC  A$fb_app_rollo10$2071              fb_app_rollo10
     0C:   000008EE  A$fb_app_rollo10$2072              fb_app_rollo10
     0C:   000008F1  A$fb_app_rollo10$2073              fb_app_rollo10
     0C:   000008F3  A$fb_app_rollo10$2074              fb_app_rollo10
     0C:   000008F5  A$fb_app_rollo10$2075              fb_app_rollo10
     0C:   000008F7  A$fb_app_rollo10$2076              fb_app_rollo10
     0C:   000008F9  A$fb_app_rollo10$2079              fb_app_rollo10
     0C:   000008F9  C$fb_app_rollo10.c$463$5$23        fb_app_rollo10
     0C:   000008FB  A$fb_app_rollo10$2080              fb_app_rollo10
     0C:   000008FC  A$fb_app_rollo10$2081              fb_app_rollo10
ASxxxx Linker V02.00 + NoICE + sdld,  page 51.
Hexadecimal  [32-Bits]

Area                                    Addr        Size        Decimal Bytes (Attributes)
--------------------------------        ----        ----        ------- ----- ------------
CSEG                                0000007F    00001793 =        6035. bytes (REL,CON,CODE)

      Value  Global                              Global Defined In Module
      -----  --------------------------------   ------------------------
     0C:   000008FE  A$fb_app_rollo10$2082              fb_app_rollo10
     0C:   000008FF  A$fb_app_rollo10$2083              fb_app_rollo10
     0C:   00000900  A$fb_app_rollo10$2086              fb_app_rollo10
     0C:   00000900  C$fb_app_rollo10.c$464$5$23        fb_app_rollo10
     0C:   00000903  A$fb_app_rollo10$2089              fb_app_rollo10
     0C:   00000903  C$fb_app_rollo10.c$466$5$23        fb_app_rollo10
     0C:   00000904  A$fb_app_rollo10$2090              fb_app_rollo10
     0C:   00000906  A$fb_app_rollo10$2091              fb_app_rollo10
     0C:   00000907  A$fb_app_rollo10$2092              fb_app_rollo10
     0C:   00000909  A$fb_app_rollo10$2093              fb_app_rollo10
     0C:   0000090A  A$fb_app_rollo10$2094              fb_app_rollo10
     0C:   0000090C  A$fb_app_rollo10$2097              fb_app_rollo10
     0C:   0000090C  C$fb_app_rollo10.c$467$5$23        fb_app_rollo10
     0C:   0000090D  A$fb_app_rollo10$2098              fb_app_rollo10
     0C:   0000090F  A$fb_app_rollo10$2099              fb_app_rollo10
     0C:   00000910  A$fb_app_rollo10$2100              fb_app_rollo10
     0C:   00000912  A$fb_app_rollo10$2103              fb_app_rollo10
     0C:   00000912  C$fb_app_rollo10.c$468$5$23        fb_app_rollo10
     0C:   00000913  A$fb_app_rollo10$2104              fb_app_rollo10
     0C:   00000915  A$fb_app_rollo10$2105              fb_app_rollo10
     0C:   00000916  A$fb_app_rollo10$2106              fb_app_rollo10
     0C:   00000918  A$fb_app_rollo10$2109              fb_app_rollo10
     0C:   00000918  C$fb_app_rollo10.c$469$5$23        fb_app_rollo10
     0C:   0000091A  A$fb_app_rollo10$2110              fb_app_rollo10
     0C:   0000091B  A$fb_app_rollo10$2111              fb_app_rollo10
     0C:   0000091C  A$fb_app_rollo10$2112              fb_app_rollo10
     0C:   0000091D  A$fb_app_rollo10$2113              fb_app_rollo10
     0C:   0000091F  A$fb_app_rollo10$2116              fb_app_rollo10
     0C:   0000091F  C$fb_app_rollo10.c$471$6$24        fb_app_rollo10
     0C:   00000920  A$fb_app_rollo10$2117              fb_app_rollo10
     0C:   00000922  A$fb_app_rollo10$2118              fb_app_rollo10
     0C:   00000923  A$fb_app_rollo10$2119              fb_app_rollo10
     0C:   00000925  A$fb_app_rollo10$2120              fb_app_rollo10
     0C:   00000926  A$fb_app_rollo10$2121              fb_app_rollo10
     0C:   00000927  A$fb_app_rollo10$2124              fb_app_rollo10
     0C:   00000927  C$fb_app_rollo10.c$472$6$24        fb_app_rollo10
     0C:   00000928  A$fb_app_rollo10$2125              fb_app_rollo10
     0C:   0000092A  A$fb_app_rollo10$2126              fb_app_rollo10
     0C:   0000092B  A$fb_app_rollo10$2127              fb_app_rollo10
     0C:   0000092D  A$fb_app_rollo10$2130              fb_app_rollo10
     0C:   0000092D  C$fb_app_rollo10.c$473$6$24        fb_app_rollo10
     0C:   0000092E  A$fb_app_rollo10$2131              fb_app_rollo10
     0C:   00000930  A$fb_app_rollo10$2132              fb_app_rollo10
     0C:   00000931  A$fb_app_rollo10$2133              fb_app_rollo10
     0C:   00000933  A$fb_app_rollo10$2137              fb_app_rollo10
     0C:   00000933  C$fb_app_rollo10.c$482$2$2         fb_app_rollo10
     0C:   00000935  A$fb_app_rollo10$2138              fb_app_rollo10
     0C:   00000936  A$fb_app_rollo10$2139              fb_app_rollo10
     0C:   00000938  A$fb_app_rollo10$2142              fb_app_rollo10
     0C:   00000938  C$fb_app_rollo10.c$483$2$2         fb_app_rollo10
     0C:   00000939  A$fb_app_rollo10$2143              fb_app_rollo10
ASxxxx Linker V02.00 + NoICE + sdld,  page 52.
Hexadecimal  [32-Bits]

Area                                    Addr        Size        Decimal Bytes (Attributes)
--------------------------------        ----        ----        ------- ----- ------------
CSEG                                0000007F    00001793 =        6035. bytes (REL,CON,CODE)

      Value  Global                              Global Defined In Module
      -----  --------------------------------   ------------------------
     0C:   0000093B  A$fb_app_rollo10$2144              fb_app_rollo10
     0C:   0000093D  A$fb_app_rollo10$2147              fb_app_rollo10
     0C:   0000093D  C$fb_app_rollo10.c$484$3$25        fb_app_rollo10
     0C:   0000093F  A$fb_app_rollo10$2148              fb_app_rollo10
     0C:   00000940  A$fb_app_rollo10$2149              fb_app_rollo10
     0C:   00000942  A$fb_app_rollo10$2150              fb_app_rollo10
     0C:   00000944  A$fb_app_rollo10$2151              fb_app_rollo10
     0C:   00000945  A$fb_app_rollo10$2152              fb_app_rollo10
     0C:   00000947  A$fb_app_rollo10$2153              fb_app_rollo10
     0C:   0000094A  A$fb_app_rollo10$2156              fb_app_rollo10
     0C:   0000094A  C$fb_app_rollo10.c$486$3$25        fb_app_rollo10
     0C:   0000094D  A$fb_app_rollo10$2158              fb_app_rollo10
     0C:   0000094F  A$fb_app_rollo10$2159              fb_app_rollo10
     0C:   00000950  A$fb_app_rollo10$2160              fb_app_rollo10
     0C:   00000951  A$fb_app_rollo10$2161              fb_app_rollo10
     0C:   00000953  A$fb_app_rollo10$2162              fb_app_rollo10
     0C:   00000954  A$fb_app_rollo10$2163              fb_app_rollo10
     0C:   00000955  A$fb_app_rollo10$2164              fb_app_rollo10
     0C:   00000957  A$fb_app_rollo10$2165              fb_app_rollo10
     0C:   00000959  A$fb_app_rollo10$2168              fb_app_rollo10
     0C:   00000959  C$fb_app_rollo10.c$488$4$26        fb_app_rollo10
     0C:   0000095B  A$fb_app_rollo10$2169              fb_app_rollo10
     0C:   0000095C  A$fb_app_rollo10$2170              fb_app_rollo10
     0C:   0000095E  A$fb_app_rollo10$2171              fb_app_rollo10
     0C:   0000095F  A$fb_app_rollo10$2172              fb_app_rollo10
     0C:   00000961  A$fb_app_rollo10$2173              fb_app_rollo10
     0C:   00000962  A$fb_app_rollo10$2174              fb_app_rollo10
     0C:   00000964  A$fb_app_rollo10$2177              fb_app_rollo10
     0C:   00000964  C$fb_app_rollo10.c$489$4$26        fb_app_rollo10
     0C:   00000965  A$fb_app_rollo10$2178              fb_app_rollo10
     0C:   00000967  A$fb_app_rollo10$2179              fb_app_rollo10
     0C:   00000968  A$fb_app_rollo10$2180              fb_app_rollo10
     0C:   0000096A  A$fb_app_rollo10$2183              fb_app_rollo10
     0C:   0000096A  C$fb_app_rollo10.c$490$4$26        fb_app_rollo10
     0C:   0000096B  A$fb_app_rollo10$2184              fb_app_rollo10
     0C:   0000096D  A$fb_app_rollo10$2185              fb_app_rollo10
     0C:   0000096E  A$fb_app_rollo10$2186              fb_app_rollo10
     0C:   00000970  A$fb_app_rollo10$2189              fb_app_rollo10
     0C:   00000970  C$fb_app_rollo10.c$491$4$26        fb_app_rollo10
     0C:   00000972  A$fb_app_rollo10$2193              fb_app_rollo10
     0C:   00000972  C$fb_app_rollo10.c$494$3$25        fb_app_rollo10
     0C:   00000973  A$fb_app_rollo10$2194              fb_app_rollo10
     0C:   00000976  A$fb_app_rollo10$2197              fb_app_rollo10
     0C:   00000976  C$fb_app_rollo10.c$496$4$27        fb_app_rollo10
     0C:   00000979  A$fb_app_rollo10$2198              fb_app_rollo10
     0C:   0000097B  A$fb_app_rollo10$2202              fb_app_rollo10
     0C:   0000097B  C$fb_app_rollo10.c$499$4$28        fb_app_rollo10
     0C:   0000097C  A$fb_app_rollo10$2203              fb_app_rollo10
     0C:   0000097E  A$fb_app_rollo10$2206              fb_app_rollo10
     0C:   0000097E  C$fb_app_rollo10.c$500$5$29        fb_app_rollo10
     0C:   00000980  A$fb_app_rollo10$2207              fb_app_rollo10
ASxxxx Linker V02.00 + NoICE + sdld,  page 53.
Hexadecimal  [32-Bits]

Area                                    Addr        Size        Decimal Bytes (Attributes)
--------------------------------        ----        ----        ------- ----- ------------
CSEG                                0000007F    00001793 =        6035. bytes (REL,CON,CODE)

      Value  Global                              Global Defined In Module
      -----  --------------------------------   ------------------------
     0C:   00000981  A$fb_app_rollo10$2208              fb_app_rollo10
     0C:   00000982  A$fb_app_rollo10$2209              fb_app_rollo10
     0C:   00000983  A$fb_app_rollo10$2210              fb_app_rollo10
     0C:   00000985  A$fb_app_rollo10$2211              fb_app_rollo10
     0C:   00000986  A$fb_app_rollo10$2215              fb_app_rollo10
     0C:   00000986  C$fb_app_rollo10.c$506$2$2         fb_app_rollo10
     0C:   00000988  A$fb_app_rollo10$2216              fb_app_rollo10
     0C:   00000989  A$fb_app_rollo10$2217              fb_app_rollo10
     0C:   0000098B  A$fb_app_rollo10$2218              fb_app_rollo10
     0C:   0000098C  A$fb_app_rollo10$2219              fb_app_rollo10
     0C:   0000098E  A$fb_app_rollo10$2222              fb_app_rollo10
     0C:   0000098E  C$fb_app_rollo10.c$507$2$2         fb_app_rollo10
     0C:   00000990  A$fb_app_rollo10$2224              fb_app_rollo10
     0C:   00000993  A$fb_app_rollo10$2225              fb_app_rollo10
     0C:   00000995  A$fb_app_rollo10$2228              fb_app_rollo10
     0C:   00000995  C$fb_app_rollo10.c$511$2$1         fb_app_rollo10
     0C:   00000995  XG$object_schalten$0$0             fb_app_rollo10
     0C:   00000996  A$fb_app_rollo10$2246              fb_app_rollo10
     0C:   00000996  C$fb_app_rollo10.c$516$2$1         fb_app_rollo10
     0C:   00000996  C$fb_app_rollo10.c$525$1$1         fb_app_rollo10
     0C:   00000996  G$delay_timer$0$0                  fb_app_rollo10
     0C:   00000996  _delay_timer                       fb_app_rollo10
     0C:   00000999  A$fb_app_rollo10$2249              fb_app_rollo10
     0C:   00000999  C$fb_app_rollo10.c$527$1$1         fb_app_rollo10
     0C:   0000099B  A$fb_app_rollo10$2250              fb_app_rollo10
     0C:   0000099D  A$fb_app_rollo10$2251              fb_app_rollo10
     0C:   0000099F  A$fb_app_rollo10$2252              fb_app_rollo10
     0C:   000009A0  A$fb_app_rollo10$2253              fb_app_rollo10
     0C:   000009A2  A$fb_app_rollo10$2254              fb_app_rollo10
     0C:   000009A4  A$fb_app_rollo10$2257              fb_app_rollo10
     0C:   000009A4  C$fb_app_rollo10.c$528$1$1         fb_app_rollo10
     0C:   000009A6  A$fb_app_rollo10$2258              fb_app_rollo10
     0C:   000009A8  A$fb_app_rollo10$2259              fb_app_rollo10
     0C:   000009A9  A$fb_app_rollo10$2260              fb_app_rollo10
     0C:   000009AB  A$fb_app_rollo10$2261              fb_app_rollo10
     0C:   000009AD  A$fb_app_rollo10$2262              fb_app_rollo10
     0C:   000009AE  A$fb_app_rollo10$2263              fb_app_rollo10
     0C:   000009AF  A$fb_app_rollo10$2264              fb_app_rollo10
     0C:   000009B0  A$fb_app_rollo10$2265              fb_app_rollo10
     0C:   000009B1  A$fb_app_rollo10$2266              fb_app_rollo10
     0C:   000009B2  A$fb_app_rollo10$2267              fb_app_rollo10
     0C:   000009B3  A$fb_app_rollo10$2268              fb_app_rollo10
     0C:   000009B4  A$fb_app_rollo10$2269              fb_app_rollo10
     0C:   000009B6  A$fb_app_rollo10$2270              fb_app_rollo10
     0C:   000009B8  A$fb_app_rollo10$2271              fb_app_rollo10
     0C:   000009BA  A$fb_app_rollo10$2272              fb_app_rollo10
     0C:   000009BC  A$fb_app_rollo10$2275              fb_app_rollo10
     0C:   000009BC  C$fb_app_rollo10.c$531$4$4         fb_app_rollo10
     0C:   000009BE  A$fb_app_rollo10$2277              fb_app_rollo10
     0C:   000009C1  A$fb_app_rollo10$2279              fb_app_rollo10
     0C:   000009C3  A$fb_app_rollo10$2282              fb_app_rollo10
ASxxxx Linker V02.00 + NoICE + sdld,  page 54.
Hexadecimal  [32-Bits]

Area                                    Addr        Size        Decimal Bytes (Attributes)
--------------------------------        ----        ----        ------- ----- ------------
CSEG                                0000007F    00001793 =        6035. bytes (REL,CON,CODE)

      Value  Global                              Global Defined In Module
      -----  --------------------------------   ------------------------
     0C:   000009C3  C$fb_app_rollo10.c$533$2$2         fb_app_rollo10
     0C:   000009C4  A$fb_app_rollo10$2283              fb_app_rollo10
     0C:   000009C6  A$fb_app_rollo10$2284              fb_app_rollo10
     0C:   000009C7  A$fb_app_rollo10$2285              fb_app_rollo10
     0C:   000009C8  A$fb_app_rollo10$2286              fb_app_rollo10
     0C:   000009C9  A$fb_app_rollo10$2287              fb_app_rollo10
     0C:   000009CC  A$fb_app_rollo10$2290              fb_app_rollo10
     0C:   000009CC  C$fb_app_rollo10.c$534$3$3         fb_app_rollo10
     0C:   000009CD  A$fb_app_rollo10$2291              fb_app_rollo10
     0C:   000009CF  A$fb_app_rollo10$2292              fb_app_rollo10
     0C:   000009D0  A$fb_app_rollo10$2293              fb_app_rollo10
     0C:   000009D2  A$fb_app_rollo10$2294              fb_app_rollo10
     0C:   000009D5  A$fb_app_rollo10$2295              fb_app_rollo10
     0C:   000009D7  A$fb_app_rollo10$2297              fb_app_rollo10
     0C:   000009D8  A$fb_app_rollo10$2298              fb_app_rollo10
     0C:   000009DA  A$fb_app_rollo10$2299              fb_app_rollo10
     0C:   000009DB  A$fb_app_rollo10$2300              fb_app_rollo10
     0C:   000009DD  A$fb_app_rollo10$2301              fb_app_rollo10
     0C:   000009E0  A$fb_app_rollo10$2302              fb_app_rollo10
     0C:   000009E1  A$fb_app_rollo10$2303              fb_app_rollo10
     0C:   000009E2  A$fb_app_rollo10$2304              fb_app_rollo10
     0C:   000009E3  A$fb_app_rollo10$2305              fb_app_rollo10
     0C:   000009E6  A$fb_app_rollo10$2306              fb_app_rollo10
     0C:   000009E7  A$fb_app_rollo10$2307              fb_app_rollo10
     0C:   000009E8  A$fb_app_rollo10$2308              fb_app_rollo10
     0C:   000009E9  A$fb_app_rollo10$2309              fb_app_rollo10
     0C:   000009EA  A$fb_app_rollo10$2310              fb_app_rollo10
     0C:   000009EB  A$fb_app_rollo10$2311              fb_app_rollo10
     0C:   000009EC  A$fb_app_rollo10$2312              fb_app_rollo10
     0C:   000009EE  A$fb_app_rollo10$2313              fb_app_rollo10
     0C:   000009EF  A$fb_app_rollo10$2314              fb_app_rollo10
     0C:   000009F1  A$fb_app_rollo10$2315              fb_app_rollo10
     0C:   000009F2  A$fb_app_rollo10$2316              fb_app_rollo10
     0C:   000009F3  A$fb_app_rollo10$2317              fb_app_rollo10
     0C:   000009F5  A$fb_app_rollo10$2321              fb_app_rollo10
     0C:   000009F5  C$fb_app_rollo10.c$535$4$4         fb_app_rollo10
     0C:   000009F6  A$fb_app_rollo10$2322              fb_app_rollo10
     0C:   000009F8  A$fb_app_rollo10$2323              fb_app_rollo10
     0C:   000009F9  A$fb_app_rollo10$2324              fb_app_rollo10
     0C:   000009FA  A$fb_app_rollo10$2325              fb_app_rollo10
     0C:   000009FB  A$fb_app_rollo10$2326              fb_app_rollo10
     0C:   000009FD  A$fb_app_rollo10$2329              fb_app_rollo10
     0C:   000009FD  C$fb_app_rollo10.c$536$5$5         fb_app_rollo10
     0C:   000009FE  A$fb_app_rollo10$2330              fb_app_rollo10
     0C:   000009FF  A$fb_app_rollo10$2331              fb_app_rollo10
     0C:   00000A00  A$fb_app_rollo10$2335              fb_app_rollo10
     0C:   00000A00  C$fb_app_rollo10.c$531$1$1         fb_app_rollo10
     0C:   00000A01  A$fb_app_rollo10$2336              fb_app_rollo10
     0C:   00000A03  A$fb_app_rollo10$2340              fb_app_rollo10
     0C:   00000A03  C$fb_app_rollo10.c$547$5$14        fb_app_rollo10
     0C:   00000A05  A$fb_app_rollo10$2342              fb_app_rollo10
ASxxxx Linker V02.00 + NoICE + sdld,  page 55.
Hexadecimal  [32-Bits]

Area                                    Addr        Size        Decimal Bytes (Attributes)
--------------------------------        ----        ----        ------- ----- ------------
CSEG                                0000007F    00001793 =        6035. bytes (REL,CON,CODE)

      Value  Global                              Global Defined In Module
      -----  --------------------------------   ------------------------
     0C:   00000A06  A$fb_app_rollo10$2343              fb_app_rollo10
     0C:   00000A08  A$fb_app_rollo10$2344              fb_app_rollo10
     0C:   00000A0A  A$fb_app_rollo10$2345              fb_app_rollo10
     0C:   00000A0D  A$fb_app_rollo10$2349              fb_app_rollo10
     0C:   00000A0D  C$fb_app_rollo10.c$548$2$6         fb_app_rollo10
     0C:   00000A0E  A$fb_app_rollo10$2350              fb_app_rollo10
     0C:   00000A10  A$fb_app_rollo10$2351              fb_app_rollo10
     0C:   00000A11  A$fb_app_rollo10$2354              fb_app_rollo10
     0C:   00000A11  C$fb_app_rollo10.c$549$2$6         fb_app_rollo10
     0C:   00000A12  A$fb_app_rollo10$2355              fb_app_rollo10
     0C:   00000A13  A$fb_app_rollo10$2356              fb_app_rollo10
     0C:   00000A15  A$fb_app_rollo10$2357              fb_app_rollo10
     0C:   00000A18  A$fb_app_rollo10$2361              fb_app_rollo10
     0C:   00000A18  C$fb_app_rollo10.c$550$3$7         fb_app_rollo10
     0C:   00000A19  A$fb_app_rollo10$2362              fb_app_rollo10
     0C:   00000A1B  A$fb_app_rollo10$2363              fb_app_rollo10
     0C:   00000A1C  A$fb_app_rollo10$2364              fb_app_rollo10
     0C:   00000A1D  A$fb_app_rollo10$2365              fb_app_rollo10
     0C:   00000A1F  A$fb_app_rollo10$2366              fb_app_rollo10
     0C:   00000A22  A$fb_app_rollo10$2368              fb_app_rollo10
     0C:   00000A23  A$fb_app_rollo10$2369              fb_app_rollo10
     0C:   00000A25  A$fb_app_rollo10$2370              fb_app_rollo10
     0C:   00000A26  A$fb_app_rollo10$2371              fb_app_rollo10
     0C:   00000A28  A$fb_app_rollo10$2372              fb_app_rollo10
     0C:   00000A2A  A$fb_app_rollo10$2373              fb_app_rollo10
     0C:   00000A2C  A$fb_app_rollo10$2374              fb_app_rollo10
     0C:   00000A2E  A$fb_app_rollo10$2375              fb_app_rollo10
     0C:   00000A2F  A$fb_app_rollo10$2376              fb_app_rollo10
     0C:   00000A32  A$fb_app_rollo10$2377              fb_app_rollo10
     0C:   00000A35  A$fb_app_rollo10$2381              fb_app_rollo10
     0C:   00000A35  C$fb_app_rollo10.c$551$4$8         fb_app_rollo10
     0C:   00000A36  A$fb_app_rollo10$2382              fb_app_rollo10
     0C:   00000A38  A$fb_app_rollo10$2383              fb_app_rollo10
     0C:   00000A3A  A$fb_app_rollo10$2386              fb_app_rollo10
     0C:   00000A3A  C$fb_app_rollo10.c$552$5$9         fb_app_rollo10
     0C:   00000A3B  A$fb_app_rollo10$2387              fb_app_rollo10
     0C:   00000A3D  A$fb_app_rollo10$2388              fb_app_rollo10
     0C:   00000A3F  A$fb_app_rollo10$2389              fb_app_rollo10
     0C:   00000A40  A$fb_app_rollo10$2390              fb_app_rollo10
     0C:   00000A42  A$fb_app_rollo10$2391              fb_app_rollo10
     0C:   00000A44  A$fb_app_rollo10$2398              fb_app_rollo10
     0C:   00000A44  C$fb_app_rollo10.c$553$5$9         fb_app_rollo10
     0C:   00000A44  C$fb_app_rollo10.c$554$5$9         fb_app_rollo10
     0C:   00000A44  C$fb_app_rollo10.c$555$5$9         fb_app_rollo10
     0C:   00000A45  A$fb_app_rollo10$2399              fb_app_rollo10
     0C:   00000A46  A$fb_app_rollo10$2400              fb_app_rollo10
     0C:   00000A47  A$fb_app_rollo10$2401              fb_app_rollo10
     0C:   00000A49  A$fb_app_rollo10$2402              fb_app_rollo10
     0C:   00000A4A  A$fb_app_rollo10$2403              fb_app_rollo10
     0C:   00000A4C  A$fb_app_rollo10$2404              fb_app_rollo10
     0C:   00000A4D  A$fb_app_rollo10$2405              fb_app_rollo10
ASxxxx Linker V02.00 + NoICE + sdld,  page 56.
Hexadecimal  [32-Bits]

Area                                    Addr        Size        Decimal Bytes (Attributes)
--------------------------------        ----        ----        ------- ----- ------------
CSEG                                0000007F    00001793 =        6035. bytes (REL,CON,CODE)

      Value  Global                              Global Defined In Module
      -----  --------------------------------   ------------------------
     0C:   00000A4F  A$fb_app_rollo10$2408              fb_app_rollo10
     0C:   00000A4F  C$fb_app_rollo10.c$556$5$9         fb_app_rollo10
     0C:   00000A51  A$fb_app_rollo10$2409              fb_app_rollo10
     0C:   00000A53  A$fb_app_rollo10$2410              fb_app_rollo10
     0C:   00000A55  A$fb_app_rollo10$2411              fb_app_rollo10
     0C:   00000A57  A$fb_app_rollo10$2412              fb_app_rollo10
     0C:   00000A5A  A$fb_app_rollo10$2413              fb_app_rollo10
     0C:   00000A5C  A$fb_app_rollo10$2414              fb_app_rollo10
     0C:   00000A5E  A$fb_app_rollo10$2415              fb_app_rollo10
     0C:   00000A60  A$fb_app_rollo10$2419              fb_app_rollo10
     0C:   00000A60  C$fb_app_rollo10.c$559$4$8         fb_app_rollo10
     0C:   00000A63  A$fb_app_rollo10$2422              fb_app_rollo10
     0C:   00000A63  C$fb_app_rollo10.c$560$5$10        fb_app_rollo10
     0C:   00000A66  A$fb_app_rollo10$2425              fb_app_rollo10
     0C:   00000A66  C$fb_app_rollo10.c$561$6$11        fb_app_rollo10
     0C:   00000A69  A$fb_app_rollo10$2428              fb_app_rollo10
     0C:   00000A69  C$fb_app_rollo10.c$562$6$11        fb_app_rollo10
     0C:   00000A6B  A$fb_app_rollo10$2429              fb_app_rollo10
     0C:   00000A6D  A$fb_app_rollo10$2430              fb_app_rollo10
     0C:   00000A6F  A$fb_app_rollo10$2431              fb_app_rollo10
     0C:   00000A71  A$fb_app_rollo10$2432              fb_app_rollo10
     0C:   00000A74  A$fb_app_rollo10$2433              fb_app_rollo10
     0C:   00000A77  A$fb_app_rollo10$2434              fb_app_rollo10
     0C:   00000A79  A$fb_app_rollo10$2435              fb_app_rollo10
     0C:   00000A7B  A$fb_app_rollo10$2436              fb_app_rollo10
     0C:   00000A7D  A$fb_app_rollo10$2440              fb_app_rollo10
     0C:   00000A7D  C$fb_app_rollo10.c$566$4$8         fb_app_rollo10
     0C:   00000A80  A$fb_app_rollo10$2443              fb_app_rollo10
     0C:   00000A80  C$fb_app_rollo10.c$567$5$12        fb_app_rollo10
     0C:   00000A83  A$fb_app_rollo10$2446              fb_app_rollo10
     0C:   00000A83  C$fb_app_rollo10.c$568$6$13        fb_app_rollo10
     0C:   00000A86  A$fb_app_rollo10$2449              fb_app_rollo10
     0C:   00000A86  C$fb_app_rollo10.c$569$6$13        fb_app_rollo10
     0C:   00000A88  A$fb_app_rollo10$2450              fb_app_rollo10
     0C:   00000A8A  A$fb_app_rollo10$2451              fb_app_rollo10
     0C:   00000A8C  A$fb_app_rollo10$2452              fb_app_rollo10
     0C:   00000A8E  A$fb_app_rollo10$2453              fb_app_rollo10
     0C:   00000A91  A$fb_app_rollo10$2454              fb_app_rollo10
     0C:   00000A94  A$fb_app_rollo10$2455              fb_app_rollo10
     0C:   00000A96  A$fb_app_rollo10$2456              fb_app_rollo10
     0C:   00000A98  A$fb_app_rollo10$2457              fb_app_rollo10
     0C:   00000A9A  A$fb_app_rollo10$2461              fb_app_rollo10
     0C:   00000A9A  C$fb_app_rollo10.c$573$4$8         fb_app_rollo10
     0C:   00000A9D  A$fb_app_rollo10$2463              fb_app_rollo10
     0C:   00000A9F  A$fb_app_rollo10$2464              fb_app_rollo10
     0C:   00000AA0  A$fb_app_rollo10$2465              fb_app_rollo10
     0C:   00000AA2  A$fb_app_rollo10$2466              fb_app_rollo10
     0C:   00000AA4  A$fb_app_rollo10$2469              fb_app_rollo10
     0C:   00000AA4  C$fb_app_rollo10.c$574$5$14        fb_app_rollo10
     0C:   00000AA5  A$fb_app_rollo10$2470              fb_app_rollo10
     0C:   00000AA7  A$fb_app_rollo10$2471              fb_app_rollo10
ASxxxx Linker V02.00 + NoICE + sdld,  page 57.
Hexadecimal  [32-Bits]

Area                                    Addr        Size        Decimal Bytes (Attributes)
--------------------------------        ----        ----        ------- ----- ------------
CSEG                                0000007F    00001793 =        6035. bytes (REL,CON,CODE)

      Value  Global                              Global Defined In Module
      -----  --------------------------------   ------------------------
     0C:   00000AA9  A$fb_app_rollo10$2472              fb_app_rollo10
     0C:   00000AAA  A$fb_app_rollo10$2473              fb_app_rollo10
     0C:   00000AAB  A$fb_app_rollo10$2474              fb_app_rollo10
     0C:   00000AAC  A$fb_app_rollo10$2475              fb_app_rollo10
     0C:   00000AAE  A$fb_app_rollo10$2476              fb_app_rollo10
     0C:   00000AAF  A$fb_app_rollo10$2477              fb_app_rollo10
     0C:   00000AB0  A$fb_app_rollo10$2480              fb_app_rollo10
     0C:   00000AB0  C$fb_app_rollo10.c$575$5$14        fb_app_rollo10
     0C:   00000AB1  A$fb_app_rollo10$2481              fb_app_rollo10
     0C:   00000AB3  A$fb_app_rollo10$2482              fb_app_rollo10
     0C:   00000AB4  A$fb_app_rollo10$2483              fb_app_rollo10
     0C:   00000AB6  A$fb_app_rollo10$2486              fb_app_rollo10
     0C:   00000AB6  C$fb_app_rollo10.c$576$5$14        fb_app_rollo10
     0C:   00000AB7  A$fb_app_rollo10$2487              fb_app_rollo10
     0C:   00000AB9  A$fb_app_rollo10$2488              fb_app_rollo10
     0C:   00000ABA  A$fb_app_rollo10$2489              fb_app_rollo10
     0C:   00000ABC  A$fb_app_rollo10$2492              fb_app_rollo10
     0C:   00000ABC  C$fb_app_rollo10.c$577$5$14        fb_app_rollo10
     0C:   00000ABD  A$fb_app_rollo10$2493              fb_app_rollo10
     0C:   00000ABF  A$fb_app_rollo10$2494              fb_app_rollo10
     0C:   00000AC0  A$fb_app_rollo10$2495              fb_app_rollo10
     0C:   00000AC2  A$fb_app_rollo10$2498              fb_app_rollo10
     0C:   00000AC2  C$fb_app_rollo10.c$578$5$14        fb_app_rollo10
     0C:   00000AC3  A$fb_app_rollo10$2499              fb_app_rollo10
     0C:   00000AC5  A$fb_app_rollo10$2500              fb_app_rollo10
     0C:   00000AC7  A$fb_app_rollo10$2501              fb_app_rollo10
     0C:   00000AC8  A$fb_app_rollo10$2502              fb_app_rollo10
     0C:   00000AC9  A$fb_app_rollo10$2503              fb_app_rollo10
     0C:   00000ACB  A$fb_app_rollo10$2504              fb_app_rollo10
     0C:   00000ACC  A$fb_app_rollo10$2505              fb_app_rollo10
     0C:   00000ACE  A$fb_app_rollo10$2506              fb_app_rollo10
     0C:   00000ACF  A$fb_app_rollo10$2507              fb_app_rollo10
     0C:   00000AD1  A$fb_app_rollo10$2508              fb_app_rollo10
     0C:   00000AD2  A$fb_app_rollo10$2509              fb_app_rollo10
     0C:   00000AD3  A$fb_app_rollo10$2510              fb_app_rollo10
     0C:   00000AD5  A$fb_app_rollo10$2511              fb_app_rollo10
     0C:   00000AD6  A$fb_app_rollo10$2512              fb_app_rollo10
     0C:   00000AD8  A$fb_app_rollo10$2513              fb_app_rollo10
     0C:   00000ADA  A$fb_app_rollo10$2514              fb_app_rollo10
     0C:   00000ADB  A$fb_app_rollo10$2515              fb_app_rollo10
     0C:   00000ADC  A$fb_app_rollo10$2519              fb_app_rollo10
     0C:   00000ADC  C$fb_app_rollo10.c$580$4$8         fb_app_rollo10
     0C:   00000ADF  A$fb_app_rollo10$2521              fb_app_rollo10
     0C:   00000AE1  A$fb_app_rollo10$2524              fb_app_rollo10
     0C:   00000AE1  C$fb_app_rollo10.c$582$5$15        fb_app_rollo10
     0C:   00000AE4  A$fb_app_rollo10$2525              fb_app_rollo10
     0C:   00000AE7  A$fb_app_rollo10$2529              fb_app_rollo10
     0C:   00000AE7  C$fb_app_rollo10.c$583$5$15        fb_app_rollo10
     0C:   00000AEA  A$fb_app_rollo10$2532              fb_app_rollo10
     0C:   00000AEA  C$fb_app_rollo10.c$584$6$16        fb_app_rollo10
     0C:   00000AED  A$fb_app_rollo10$2535              fb_app_rollo10
ASxxxx Linker V02.00 + NoICE + sdld,  page 58.
Hexadecimal  [32-Bits]

Area                                    Addr        Size        Decimal Bytes (Attributes)
--------------------------------        ----        ----        ------- ----- ------------
CSEG                                0000007F    00001793 =        6035. bytes (REL,CON,CODE)

      Value  Global                              Global Defined In Module
      -----  --------------------------------   ------------------------
     0C:   00000AED  C$fb_app_rollo10.c$585$6$16        fb_app_rollo10
     0C:   00000AF0  A$fb_app_rollo10$2538              fb_app_rollo10
     0C:   00000AF0  C$fb_app_rollo10.c$586$6$16        fb_app_rollo10
     0C:   00000AF3  A$fb_app_rollo10$2542              fb_app_rollo10
     0C:   00000AF3  C$fb_app_rollo10.c$589$5$15        fb_app_rollo10
     0C:   00000AF6  A$fb_app_rollo10$2543              fb_app_rollo10
     0C:   00000AF9  A$fb_app_rollo10$2547              fb_app_rollo10
     0C:   00000AF9  C$fb_app_rollo10.c$591$4$8         fb_app_rollo10
     0C:   00000AFB  A$fb_app_rollo10$2551              fb_app_rollo10
     0C:   00000AFB  C$fb_app_rollo10.c$547$1$1         fb_app_rollo10
     0C:   00000AFC  A$fb_app_rollo10$2552              fb_app_rollo10
     0C:   00000AFF  A$fb_app_rollo10$2556              fb_app_rollo10
     0C:   00000AFF  C$fb_app_rollo10.c$601$1$1         fb_app_rollo10
     0C:   00000B02  A$fb_app_rollo10$2557              fb_app_rollo10
     0C:   00000B03  A$fb_app_rollo10$2558              fb_app_rollo10
     0C:   00000B04  A$fb_app_rollo10$2559              fb_app_rollo10
     0C:   00000B05  A$fb_app_rollo10$2560              fb_app_rollo10
     0C:   00000B07  A$fb_app_rollo10$2561              fb_app_rollo10
     0C:   00000B09  A$fb_app_rollo10$2564              fb_app_rollo10
     0C:   00000B09  C$fb_app_rollo10.c$602$2$17        fb_app_rollo10
     0C:   00000B0C  A$fb_app_rollo10$2568              fb_app_rollo10
     0C:   00000B0C  C$fb_app_rollo10.c$606$2$1         fb_app_rollo10
     0C:   00000B0C  XG$delay_timer$0$0                 fb_app_rollo10
     0C:   00000B0D  A$fb_app_rollo10$2586              fb_app_rollo10
     0C:   00000B0D  C$fb_app_rollo10.c$681$2$1         fb_app_rollo10
     0C:   00000B0D  C$fb_app_rollo10.c$696$1$1         fb_app_rollo10
     0C:   00000B0D  G$handsteuerung$0$0                fb_app_rollo10
     0C:   00000B0D  _handsteuerung                     fb_app_rollo10
     0C:   00000B0F  A$fb_app_rollo10$2587              fb_app_rollo10
     0C:   00000B11  A$fb_app_rollo10$2588              fb_app_rollo10
     0C:   00000B12  A$fb_app_rollo10$2589              fb_app_rollo10
     0C:   00000B15  A$fb_app_rollo10$2590              fb_app_rollo10
     0C:   00000B17  A$fb_app_rollo10$2592              fb_app_rollo10
     0C:   00000B1A  A$fb_app_rollo10$2594              fb_app_rollo10
     0C:   00000B1C  A$fb_app_rollo10$2595              fb_app_rollo10
     0C:   00000B1E  A$fb_app_rollo10$2596              fb_app_rollo10
     0C:   00000B21  A$fb_app_rollo10$2601              fb_app_rollo10
     0C:   00000B21  C$fb_app_rollo10.c$698$2$2         fb_app_rollo10
     0C:   00000B24  A$fb_app_rollo10$2602              fb_app_rollo10
     0C:   00000B26  A$fb_app_rollo10$2603              fb_app_rollo10
     0C:   00000B28  A$fb_app_rollo10$2604              fb_app_rollo10
     0C:   00000B2A  A$fb_app_rollo10$2607              fb_app_rollo10
     0C:   00000B2A  C$fb_app_rollo10.c$717$2$2         fb_app_rollo10
     0C:   00000B2C  A$fb_app_rollo10$2608              fb_app_rollo10
     0C:   00000B2E  A$fb_app_rollo10$2609              fb_app_rollo10
     0C:   00000B2F  A$fb_app_rollo10$2610              fb_app_rollo10
     0C:   00000B31  A$fb_app_rollo10$2611              fb_app_rollo10
     0C:   00000B33  A$fb_app_rollo10$2612              fb_app_rollo10
     0C:   00000B35  A$fb_app_rollo10$2613              fb_app_rollo10
     0C:   00000B37  A$fb_app_rollo10$2615              fb_app_rollo10
     0C:   00000B39  A$fb_app_rollo10$2617              fb_app_rollo10
ASxxxx Linker V02.00 + NoICE + sdld,  page 59.
Hexadecimal  [32-Bits]

Area                                    Addr        Size        Decimal Bytes (Attributes)
--------------------------------        ----        ----        ------- ----- ------------
CSEG                                0000007F    00001793 =        6035. bytes (REL,CON,CODE)

      Value  Global                              Global Defined In Module
      -----  --------------------------------   ------------------------
     0C:   00000B3C  A$fb_app_rollo10$2620              fb_app_rollo10
     0C:   00000B3C  C$fb_app_rollo10.c$718$2$2         fb_app_rollo10
     0C:   00000B3D  A$fb_app_rollo10$2621              fb_app_rollo10
     0C:   00000B3E  A$fb_app_rollo10$2622              fb_app_rollo10
     0C:   00000B40  A$fb_app_rollo10$2625              fb_app_rollo10
     0C:   00000B40  C$fb_app_rollo10.c$719$2$2         fb_app_rollo10
     0C:   00000B43  A$fb_app_rollo10$2628              fb_app_rollo10
     0C:   00000B43  C$fb_app_rollo10.c$720$3$3         fb_app_rollo10
     0C:   00000B45  A$fb_app_rollo10$2629              fb_app_rollo10
     0C:   00000B47  A$fb_app_rollo10$2630              fb_app_rollo10
     0C:   00000B49  A$fb_app_rollo10$2631              fb_app_rollo10
     0C:   00000B4B  A$fb_app_rollo10$2632              fb_app_rollo10
     0C:   00000B4D  A$fb_app_rollo10$2633              fb_app_rollo10
     0C:   00000B4F  A$fb_app_rollo10$2637              fb_app_rollo10
     0C:   00000B4F  C$fb_app_rollo10.c$722$2$2         fb_app_rollo10
     0C:   00000B52  A$fb_app_rollo10$2640              fb_app_rollo10
     0C:   00000B52  C$fb_app_rollo10.c$725$2$2         fb_app_rollo10
     0C:   00000B55  A$fb_app_rollo10$2641              fb_app_rollo10
     0C:   00000B57  A$fb_app_rollo10$2643              fb_app_rollo10
     0C:   00000B5A  A$fb_app_rollo10$2647              fb_app_rollo10
     0C:   00000B5A  C$fb_app_rollo10.c$726$3$4         fb_app_rollo10
     0C:   00000B5C  A$fb_app_rollo10$2650              fb_app_rollo10
     0C:   00000B5C  C$fb_app_rollo10.c$727$3$4         fb_app_rollo10
     0C:   00000B5F  A$fb_app_rollo10$2653              fb_app_rollo10
     0C:   00000B5F  C$fb_app_rollo10.c$731$3$4         fb_app_rollo10
     0C:   00000B60  A$fb_app_rollo10$2654              fb_app_rollo10
     0C:   00000B63  A$fb_app_rollo10$2657              fb_app_rollo10
     0C:   00000B63  C$fb_app_rollo10.c$732$4$5         fb_app_rollo10
     0C:   00000B65  A$fb_app_rollo10$2658              fb_app_rollo10
     0C:   00000B67  A$fb_app_rollo10$2659              fb_app_rollo10
     0C:   00000B6A  A$fb_app_rollo10$2663              fb_app_rollo10
     0C:   00000B6A  C$fb_app_rollo10.c$735$5$6         fb_app_rollo10
     0C:   00000B6D  A$fb_app_rollo10$2666              fb_app_rollo10
     0C:   00000B6D  C$fb_app_rollo10.c$736$5$6         fb_app_rollo10
     0C:   00000B70  A$fb_app_rollo10$2669              fb_app_rollo10
     0C:   00000B70  C$fb_app_rollo10.c$737$5$6         fb_app_rollo10
     0C:   00000B73  A$fb_app_rollo10$2670              fb_app_rollo10
     0C:   00000B76  A$fb_app_rollo10$2674              fb_app_rollo10
     0C:   00000B76  C$fb_app_rollo10.c$741$4$7         fb_app_rollo10
     0C:   00000B78  A$fb_app_rollo10$2675              fb_app_rollo10
     0C:   00000B7B  A$fb_app_rollo10$2676              fb_app_rollo10
     0C:   00000B7E  A$fb_app_rollo10$2680              fb_app_rollo10
     0C:   00000B7E  C$fb_app_rollo10.c$742$5$8         fb_app_rollo10
     0C:   00000B80  A$fb_app_rollo10$2681              fb_app_rollo10
     0C:   00000B83  A$fb_app_rollo10$2684              fb_app_rollo10
     0C:   00000B83  C$fb_app_rollo10.c$743$6$9         fb_app_rollo10
     0C:   00000B85  A$fb_app_rollo10$2687              fb_app_rollo10
     0C:   00000B85  C$fb_app_rollo10.c$744$6$9         fb_app_rollo10
     0C:   00000B88  A$fb_app_rollo10$2690              fb_app_rollo10
     0C:   00000B88  C$fb_app_rollo10.c$745$6$9         fb_app_rollo10
     0C:   00000B8B  A$fb_app_rollo10$2693              fb_app_rollo10
ASxxxx Linker V02.00 + NoICE + sdld,  page 60.
Hexadecimal  [32-Bits]

Area                                    Addr        Size        Decimal Bytes (Attributes)
--------------------------------        ----        ----        ------- ----- ------------
CSEG                                0000007F    00001793 =        6035. bytes (REL,CON,CODE)

      Value  Global                              Global Defined In Module
      -----  --------------------------------   ------------------------
     0C:   00000B8B  C$fb_app_rollo10.c$746$6$9         fb_app_rollo10
     0C:   00000B8E  A$fb_app_rollo10$2696              fb_app_rollo10
     0C:   00000B8E  C$fb_app_rollo10.c$747$6$9         fb_app_rollo10
     0C:   00000B91  A$fb_app_rollo10$2699              fb_app_rollo10
     0C:   00000B91  C$fb_app_rollo10.c$748$7$10        fb_app_rollo10
     0C:   00000B93  A$fb_app_rollo10$2701              fb_app_rollo10
     0C:   00000B94  A$fb_app_rollo10$2702              fb_app_rollo10
     0C:   00000B96  A$fb_app_rollo10$2703              fb_app_rollo10
     0C:   00000B98  A$fb_app_rollo10$2704              fb_app_rollo10
     0C:   00000B99  A$fb_app_rollo10$2705              fb_app_rollo10
     0C:   00000B9B  A$fb_app_rollo10$2706              fb_app_rollo10
     0C:   00000B9C  A$fb_app_rollo10$2707              fb_app_rollo10
     0C:   00000B9E  A$fb_app_rollo10$2708              fb_app_rollo10
     0C:   00000B9F  A$fb_app_rollo10$2709              fb_app_rollo10
     0C:   00000BA1  A$fb_app_rollo10$2713              fb_app_rollo10
     0C:   00000BA1  C$fb_app_rollo10.c$749$7$10        fb_app_rollo10
     0C:   00000BA3  A$fb_app_rollo10$2714              fb_app_rollo10
     0C:   00000BA5  A$fb_app_rollo10$2718              fb_app_rollo10
     0C:   00000BA5  C$fb_app_rollo10.c$752$7$11        fb_app_rollo10
     0C:   00000BA7  A$fb_app_rollo10$2719              fb_app_rollo10
     0C:   00000BAA  A$fb_app_rollo10$2720              fb_app_rollo10
     0C:   00000BAC  A$fb_app_rollo10$2724              fb_app_rollo10
     0C:   00000BAC  C$fb_app_rollo10.c$755$5$8         fb_app_rollo10
     0C:   00000BAF  A$fb_app_rollo10$2727              fb_app_rollo10
     0C:   00000BAF  C$fb_app_rollo10.c$756$6$12        fb_app_rollo10
     0C:   00000BB1  A$fb_app_rollo10$2728              fb_app_rollo10
     0C:   00000BB4  A$fb_app_rollo10$2731              fb_app_rollo10
     0C:   00000BB4  C$fb_app_rollo10.c$757$7$13        fb_app_rollo10
     0C:   00000BB6  A$fb_app_rollo10$2732              fb_app_rollo10
     0C:   00000BB8  A$fb_app_rollo10$2733              fb_app_rollo10
     0C:   00000BBA  A$fb_app_rollo10$2734              fb_app_rollo10
     0C:   00000BBC  A$fb_app_rollo10$2735              fb_app_rollo10
     0C:   00000BBE  A$fb_app_rollo10$2736              fb_app_rollo10
     0C:   00000BC0  A$fb_app_rollo10$2737              fb_app_rollo10
     0C:   00000BC1  A$fb_app_rollo10$2738              fb_app_rollo10
     0C:   00000BC2  A$fb_app_rollo10$2739              fb_app_rollo10
     0C:   00000BC4  A$fb_app_rollo10$2740              fb_app_rollo10
     0C:   00000BC6  A$fb_app_rollo10$2741              fb_app_rollo10
     0C:   00000BC8  A$fb_app_rollo10$2742              fb_app_rollo10
     0C:   00000BCA  A$fb_app_rollo10$2743              fb_app_rollo10
     0C:   00000BCC  A$fb_app_rollo10$2744              fb_app_rollo10
     0C:   00000BCF  A$fb_app_rollo10$2745              fb_app_rollo10
     0C:   00000BD2  A$fb_app_rollo10$2746              fb_app_rollo10
     0C:   00000BD4  A$fb_app_rollo10$2747              fb_app_rollo10
     0C:   00000BD6  A$fb_app_rollo10$2751              fb_app_rollo10
     0C:   00000BD6  C$fb_app_rollo10.c$760$7$14        fb_app_rollo10
     0C:   00000BD8  A$fb_app_rollo10$2752              fb_app_rollo10
     0C:   00000BDA  A$fb_app_rollo10$2753              fb_app_rollo10
     0C:   00000BDC  A$fb_app_rollo10$2754              fb_app_rollo10
     0C:   00000BDE  A$fb_app_rollo10$2755              fb_app_rollo10
     0C:   00000BE0  A$fb_app_rollo10$2756              fb_app_rollo10
ASxxxx Linker V02.00 + NoICE + sdld,  page 61.
Hexadecimal  [32-Bits]

Area                                    Addr        Size        Decimal Bytes (Attributes)
--------------------------------        ----        ----        ------- ----- ------------
CSEG                                0000007F    00001793 =        6035. bytes (REL,CON,CODE)

      Value  Global                              Global Defined In Module
      -----  --------------------------------   ------------------------
     0C:   00000BE2  A$fb_app_rollo10$2757              fb_app_rollo10
     0C:   00000BE3  A$fb_app_rollo10$2758              fb_app_rollo10
     0C:   00000BE4  A$fb_app_rollo10$2759              fb_app_rollo10
     0C:   00000BE6  A$fb_app_rollo10$2760              fb_app_rollo10
     0C:   00000BE8  A$fb_app_rollo10$2761              fb_app_rollo10
     0C:   00000BEA  A$fb_app_rollo10$2762              fb_app_rollo10
     0C:   00000BEC  A$fb_app_rollo10$2763              fb_app_rollo10
     0C:   00000BEE  A$fb_app_rollo10$2764              fb_app_rollo10
     0C:   00000BF1  A$fb_app_rollo10$2765              fb_app_rollo10
     0C:   00000BF4  A$fb_app_rollo10$2766              fb_app_rollo10
     0C:   00000BF6  A$fb_app_rollo10$2770              fb_app_rollo10
     0C:   00000BF6  C$fb_app_rollo10.c$764$5$8         fb_app_rollo10
     0C:   00000BF9  A$fb_app_rollo10$2773              fb_app_rollo10
     0C:   00000BF9  C$fb_app_rollo10.c$765$5$8         fb_app_rollo10
     0C:   00000BFC  A$fb_app_rollo10$2776              fb_app_rollo10
     0C:   00000BFC  C$fb_app_rollo10.c$766$5$8         fb_app_rollo10
     0C:   00000BFF  A$fb_app_rollo10$2780              fb_app_rollo10
     0C:   00000BFF  C$fb_app_rollo10.c$769$3$4         fb_app_rollo10
     0C:   00000C01  A$fb_app_rollo10$2783              fb_app_rollo10
     0C:   00000C01  C$fb_app_rollo10.c$771$3$4         fb_app_rollo10
     0C:   00000C03  A$fb_app_rollo10$2784              fb_app_rollo10
     0C:   00000C06  A$fb_app_rollo10$2787              fb_app_rollo10
     0C:   00000C06  C$fb_app_rollo10.c$772$4$15        fb_app_rollo10
     0C:   00000C08  A$fb_app_rollo10$2790              fb_app_rollo10
     0C:   00000C08  C$fb_app_rollo10.c$774$4$15        fb_app_rollo10
     0C:   00000C0B  A$fb_app_rollo10$2793              fb_app_rollo10
     0C:   00000C0B  C$fb_app_rollo10.c$775$4$15        fb_app_rollo10
     0C:   00000C0E  A$fb_app_rollo10$2796              fb_app_rollo10
     0C:   00000C0E  C$fb_app_rollo10.c$776$4$15        fb_app_rollo10
     0C:   00000C11  A$fb_app_rollo10$2799              fb_app_rollo10
     0C:   00000C11  C$fb_app_rollo10.c$777$4$15        fb_app_rollo10
     0C:   00000C14  A$fb_app_rollo10$2803              fb_app_rollo10
     0C:   00000C14  C$fb_app_rollo10.c$782$1$1         fb_app_rollo10
     0C:   00000C14  XG$handsteuerung$0$0               fb_app_rollo10
     0C:   00000C15  A$fb_app_rollo10$2816              fb_app_rollo10
     0C:   00000C15  C$fb_app_rollo10.c$786$1$1         fb_app_rollo10
     0C:   00000C15  C$fb_app_rollo10.c$788$1$1         fb_app_rollo10
     0C:   00000C15  G$sobj_update$0$0                  fb_app_rollo10
     0C:   00000C15  _sobj_update                       fb_app_rollo10
     0C:   00000C18  A$fb_app_rollo10$2817              fb_app_rollo10
     0C:   00000C1B  A$fb_app_rollo10$2818              fb_app_rollo10
     0C:   00000C1D  A$fb_app_rollo10$2819              fb_app_rollo10
     0C:   00000C20  A$fb_app_rollo10$2820              fb_app_rollo10
     0C:   00000C22  A$fb_app_rollo10$2821              fb_app_rollo10
     0C:   00000C25  A$fb_app_rollo10$2822              fb_app_rollo10
     0C:   00000C28  A$fb_app_rollo10$2823              fb_app_rollo10
     0C:   00000C2A  A$fb_app_rollo10$2826              fb_app_rollo10
     0C:   00000C2A  C$fb_app_rollo10.c$789$1$1         fb_app_rollo10
     0C:   00000C2D  A$fb_app_rollo10$2827              fb_app_rollo10
     0C:   00000C30  A$fb_app_rollo10$2828              fb_app_rollo10
     0C:   00000C32  A$fb_app_rollo10$2829              fb_app_rollo10
ASxxxx Linker V02.00 + NoICE + sdld,  page 62.
Hexadecimal  [32-Bits]

Area                                    Addr        Size        Decimal Bytes (Attributes)
--------------------------------        ----        ----        ------- ----- ------------
CSEG                                0000007F    00001793 =        6035. bytes (REL,CON,CODE)

      Value  Global                              Global Defined In Module
      -----  --------------------------------   ------------------------
     0C:   00000C35  A$fb_app_rollo10$2830              fb_app_rollo10
     0C:   00000C37  A$fb_app_rollo10$2831              fb_app_rollo10
     0C:   00000C3A  A$fb_app_rollo10$2832              fb_app_rollo10
     0C:   00000C3D  A$fb_app_rollo10$2833              fb_app_rollo10
     0C:   00000C3F  A$fb_app_rollo10$2836              fb_app_rollo10
     0C:   00000C3F  C$fb_app_rollo10.c$790$1$1         fb_app_rollo10
     0C:   00000C3F  XG$sobj_update$0$0                 fb_app_rollo10
     0C:   00000C40  A$fb_app_rollo10$2852              fb_app_rollo10
     0C:   00000C40  C$fb_app_rollo10.c$791$1$1         fb_app_rollo10
     0C:   00000C40  G$set_pause$0$0                    fb_app_rollo10
     0C:   00000C40  _set_pause                         fb_app_rollo10
     0C:   00000C42  A$fb_app_rollo10$2853              fb_app_rollo10
     0C:   00000C45  A$fb_app_rollo10$2854              fb_app_rollo10
     0C:   00000C47  A$fb_app_rollo10$2857              fb_app_rollo10
     0C:   00000C47  C$fb_app_rollo10.c$794$1$1         fb_app_rollo10
     0C:   00000C4A  A$fb_app_rollo10$2858              fb_app_rollo10
     0C:   00000C4C  A$fb_app_rollo10$2859              fb_app_rollo10
     0C:   00000C4D  A$fb_app_rollo10$2862              fb_app_rollo10
     0C:   00000C4D  C$fb_app_rollo10.c$795$1$1         fb_app_rollo10
     0C:   00000C4E  A$fb_app_rollo10$2863              fb_app_rollo10
     0C:   00000C50  A$fb_app_rollo10$2864              fb_app_rollo10
     0C:   00000C51  A$fb_app_rollo10$2865              fb_app_rollo10
     0C:   00000C53  A$fb_app_rollo10$2866              fb_app_rollo10
     0C:   00000C55  A$fb_app_rollo10$2867              fb_app_rollo10
     0C:   00000C56  A$fb_app_rollo10$2868              fb_app_rollo10
     0C:   00000C57  A$fb_app_rollo10$2869              fb_app_rollo10
     0C:   00000C58  A$fb_app_rollo10$2872              fb_app_rollo10
     0C:   00000C58  C$fb_app_rollo10.c$796$1$1         fb_app_rollo10
     0C:   00000C5B  A$fb_app_rollo10$2873              fb_app_rollo10
     0C:   00000C5C  A$fb_app_rollo10$2874              fb_app_rollo10
     0C:   00000C5D  A$fb_app_rollo10$2875              fb_app_rollo10
     0C:   00000C5E  A$fb_app_rollo10$2876              fb_app_rollo10
     0C:   00000C5F  A$fb_app_rollo10$2877              fb_app_rollo10
     0C:   00000C60  A$fb_app_rollo10$2878              fb_app_rollo10
     0C:   00000C62  A$fb_app_rollo10$2879              fb_app_rollo10
     0C:   00000C63  A$fb_app_rollo10$2880              fb_app_rollo10
     0C:   00000C64  A$fb_app_rollo10$2881              fb_app_rollo10
     0C:   00000C65  A$fb_app_rollo10$2882              fb_app_rollo10
     0C:   00000C67  A$fb_app_rollo10$2883              fb_app_rollo10
     0C:   00000C69  A$fb_app_rollo10$2884              fb_app_rollo10
     0C:   00000C6A  A$fb_app_rollo10$2885              fb_app_rollo10
     0C:   00000C6C  A$fb_app_rollo10$2887              fb_app_rollo10
     0C:   00000C6D  A$fb_app_rollo10$2888              fb_app_rollo10
     0C:   00000C6E  A$fb_app_rollo10$2890              fb_app_rollo10
     0C:   00000C71  A$fb_app_rollo10$2891              fb_app_rollo10
     0C:   00000C73  A$fb_app_rollo10$2892              fb_app_rollo10
     0C:   00000C74  A$fb_app_rollo10$2893              fb_app_rollo10
     0C:   00000C76  A$fb_app_rollo10$2894              fb_app_rollo10
     0C:   00000C79  A$fb_app_rollo10$2895              fb_app_rollo10
     0C:   00000C7B  A$fb_app_rollo10$2899              fb_app_rollo10
     0C:   00000C7B  C$fb_app_rollo10.c$797$2$2         fb_app_rollo10
ASxxxx Linker V02.00 + NoICE + sdld,  page 63.
Hexadecimal  [32-Bits]

Area                                    Addr        Size        Decimal Bytes (Attributes)
--------------------------------        ----        ----        ------- ----- ------------
CSEG                                0000007F    00001793 =        6035. bytes (REL,CON,CODE)

      Value  Global                              Global Defined In Module
      -----  --------------------------------   ------------------------
     0C:   00000C7E  A$fb_app_rollo10$2900              fb_app_rollo10
     0C:   00000C80  A$fb_app_rollo10$2904              fb_app_rollo10
     0C:   00000C80  C$fb_app_rollo10.c$798$2$2         fb_app_rollo10
     0C:   00000C82  A$fb_app_rollo10$2909              fb_app_rollo10
     0C:   00000C82  C$fb_app_rollo10.c$799$2$2         fb_app_rollo10
     0C:   00000C82  C$fb_app_rollo10.c$800$2$2         fb_app_rollo10
     0C:   00000C84  A$fb_app_rollo10$2913              fb_app_rollo10
     0C:   00000C84  C$fb_app_rollo10.c$801$2$2         fb_app_rollo10
     0C:   00000C86  A$fb_app_rollo10$2918              fb_app_rollo10
     0C:   00000C86  C$fb_app_rollo10.c$802$2$2         fb_app_rollo10
     0C:   00000C86  C$fb_app_rollo10.c$803$2$2         fb_app_rollo10
     0C:   00000C88  A$fb_app_rollo10$2922              fb_app_rollo10
     0C:   00000C88  C$fb_app_rollo10.c$804$2$2         fb_app_rollo10
     0C:   00000C8A  A$fb_app_rollo10$2927              fb_app_rollo10
     0C:   00000C8A  C$fb_app_rollo10.c$805$2$2         fb_app_rollo10
     0C:   00000C8A  C$fb_app_rollo10.c$806$2$2         fb_app_rollo10
     0C:   00000C8C  A$fb_app_rollo10$2931              fb_app_rollo10
     0C:   00000C8C  C$fb_app_rollo10.c$807$2$2         fb_app_rollo10
     0C:   00000C8E  A$fb_app_rollo10$2937              fb_app_rollo10
     0C:   00000C8E  C$fb_app_rollo10.c$809$1$1         fb_app_rollo10
     0C:   00000C8E  C$fb_app_rollo10.c$810$1$1         fb_app_rollo10
     0C:   00000C8F  A$fb_app_rollo10$2938              fb_app_rollo10
     0C:   00000C91  A$fb_app_rollo10$2939              fb_app_rollo10
     0C:   00000C92  A$fb_app_rollo10$2940              fb_app_rollo10
     0C:   00000C94  A$fb_app_rollo10$2943              fb_app_rollo10
     0C:   00000C94  C$fb_app_rollo10.c$811$1$1         fb_app_rollo10
     0C:   00000C95  A$fb_app_rollo10$2944              fb_app_rollo10
     0C:   00000C97  A$fb_app_rollo10$2945              fb_app_rollo10
     0C:   00000C98  A$fb_app_rollo10$2946              fb_app_rollo10
     0C:   00000C9A  A$fb_app_rollo10$2947              fb_app_rollo10
     0C:   00000C9C  A$fb_app_rollo10$2950              fb_app_rollo10
     0C:   00000C9C  C$fb_app_rollo10.c$813$1$1         fb_app_rollo10
     0C:   00000C9C  XG$set_pause$0$0                   fb_app_rollo10
     0C:   00000C9D  A$fb_app_rollo10$2964              fb_app_rollo10
     0C:   00000C9D  C$fb_app_rollo10.c$816$1$1         fb_app_rollo10
     0C:   00000C9D  G$set_entriegeln$0$0               fb_app_rollo10
     0C:   00000C9D  _set_entriegeln                    fb_app_rollo10
     0C:   00000C9F  A$fb_app_rollo10$2967              fb_app_rollo10
     0C:   00000C9F  C$fb_app_rollo10.c$821$1$1         fb_app_rollo10
     0C:   00000CA2  A$fb_app_rollo10$2968              fb_app_rollo10
     0C:   00000CA3  A$fb_app_rollo10$2969              fb_app_rollo10
     0C:   00000CA4  A$fb_app_rollo10$2972              fb_app_rollo10
     0C:   00000CA4  C$fb_app_rollo10.c$822$1$1         fb_app_rollo10
     0C:   00000CA6  A$fb_app_rollo10$2973              fb_app_rollo10
     0C:   00000CA7  A$fb_app_rollo10$2974              fb_app_rollo10
     0C:   00000CA9  A$fb_app_rollo10$2977              fb_app_rollo10
     0C:   00000CA9  C$fb_app_rollo10.c$823$2$2         fb_app_rollo10
     0C:   00000CAA  A$fb_app_rollo10$2978              fb_app_rollo10
     0C:   00000CAC  A$fb_app_rollo10$2979              fb_app_rollo10
     0C:   00000CAD  A$fb_app_rollo10$2980              fb_app_rollo10
     0C:   00000CAE  A$fb_app_rollo10$2981              fb_app_rollo10
ASxxxx Linker V02.00 + NoICE + sdld,  page 64.
Hexadecimal  [32-Bits]

Area                                    Addr        Size        Decimal Bytes (Attributes)
--------------------------------        ----        ----        ------- ----- ------------
CSEG                                0000007F    00001793 =        6035. bytes (REL,CON,CODE)

      Value  Global                              Global Defined In Module
      -----  --------------------------------   ------------------------
     0C:   00000CB1  A$fb_app_rollo10$2982              fb_app_rollo10
     0C:   00000CB2  A$fb_app_rollo10$2983              fb_app_rollo10
     0C:   00000CB3  A$fb_app_rollo10$2984              fb_app_rollo10
     0C:   00000CB4  A$fb_app_rollo10$2987              fb_app_rollo10
     0C:   00000CB4  C$fb_app_rollo10.c$824$2$2         fb_app_rollo10
     0C:   00000CB5  A$fb_app_rollo10$2988              fb_app_rollo10
     0C:   00000CB7  A$fb_app_rollo10$2989              fb_app_rollo10
     0C:   00000CB8  A$fb_app_rollo10$2990              fb_app_rollo10
     0C:   00000CBA  A$fb_app_rollo10$2993              fb_app_rollo10
     0C:   00000CBA  C$fb_app_rollo10.c$825$2$2         fb_app_rollo10
     0C:   00000CBB  A$fb_app_rollo10$2994              fb_app_rollo10
     0C:   00000CBD  A$fb_app_rollo10$2995              fb_app_rollo10
     0C:   00000CBE  A$fb_app_rollo10$2996              fb_app_rollo10
     0C:   00000CC0  A$fb_app_rollo10$2997              fb_app_rollo10
     0C:   00000CC2  A$fb_app_rollo10$3001              fb_app_rollo10
     0C:   00000CC2  C$fb_app_rollo10.c$828$2$3         fb_app_rollo10
     0C:   00000CC3  A$fb_app_rollo10$3002              fb_app_rollo10
     0C:   00000CC5  A$fb_app_rollo10$3003              fb_app_rollo10
     0C:   00000CC6  A$fb_app_rollo10$3004              fb_app_rollo10
     0C:   00000CC8  A$fb_app_rollo10$3007              fb_app_rollo10
     0C:   00000CC8  C$fb_app_rollo10.c$829$2$3         fb_app_rollo10
     0C:   00000CC9  A$fb_app_rollo10$3008              fb_app_rollo10
     0C:   00000CCB  A$fb_app_rollo10$3009              fb_app_rollo10
     0C:   00000CCC  A$fb_app_rollo10$3010              fb_app_rollo10
     0C:   00000CCE  A$fb_app_rollo10$3014              fb_app_rollo10
     0C:   00000CCE  C$fb_app_rollo10.c$832$1$1         fb_app_rollo10
     0C:   00000CCE  XG$set_entriegeln$0$0              fb_app_rollo10
     0C:   00000CCF  A$fb_app_rollo10$3029              fb_app_rollo10
     0C:   00000CCF  C$fb_app_rollo10.c$894$1$1         fb_app_rollo10
     0C:   00000CCF  C$fb_app_rollo10.c$898$1$1         fb_app_rollo10
     0C:   00000CCF  G$port_schalten$0$0                fb_app_rollo10
     0C:   00000CCF  _port_schalten                     fb_app_rollo10
     0C:   00000CD2  A$fb_app_rollo10$3032              fb_app_rollo10
     0C:   00000CD2  C$fb_app_rollo10.c$899$1$1         fb_app_rollo10
     0C:   00000CD5  A$fb_app_rollo10$3033              fb_app_rollo10
     0C:   00000CD6  A$fb_app_rollo10$3034              fb_app_rollo10
     0C:   00000CD7  A$fb_app_rollo10$3035              fb_app_rollo10
     0C:   00000CD8  A$fb_app_rollo10$3036              fb_app_rollo10
     0C:   00000CDB  A$fb_app_rollo10$3037              fb_app_rollo10
     0C:   00000CDD  A$fb_app_rollo10$3038              fb_app_rollo10
     0C:   00000CDF  A$fb_app_rollo10$3042              fb_app_rollo10
     0C:   00000CDF  C$fb_app_rollo10.c$900$1$1         fb_app_rollo10
     0C:   00000CE1  A$fb_app_rollo10$3046              fb_app_rollo10
     0C:   00000CE4  A$fb_app_rollo10$3048              fb_app_rollo10
     0C:   00000CE6  A$fb_app_rollo10$3049              fb_app_rollo10
     0C:   00000CE8  A$fb_app_rollo10$3050              fb_app_rollo10
     0C:   00000CEA  A$fb_app_rollo10$3053              fb_app_rollo10
     0C:   00000CEA  C$fb_app_rollo10.c$902$2$2         fb_app_rollo10
     0C:   00000CEB  A$fb_app_rollo10$3054              fb_app_rollo10
     0C:   00000CED  A$fb_app_rollo10$3055              fb_app_rollo10
     0C:   00000CEF  A$fb_app_rollo10$3056              fb_app_rollo10
ASxxxx Linker V02.00 + NoICE + sdld,  page 65.
Hexadecimal  [32-Bits]

Area                                    Addr        Size        Decimal Bytes (Attributes)
--------------------------------        ----        ----        ------- ----- ------------
CSEG                                0000007F    00001793 =        6035. bytes (REL,CON,CODE)

      Value  Global                              Global Defined In Module
      -----  --------------------------------   ------------------------
     0C:   00000CF0  A$fb_app_rollo10$3057              fb_app_rollo10
     0C:   00000CF2  A$fb_app_rollo10$3058              fb_app_rollo10
     0C:   00000CF5  A$fb_app_rollo10$3059              fb_app_rollo10
     0C:   00000CF7  A$fb_app_rollo10$3060              fb_app_rollo10
     0C:   00000CF9  A$fb_app_rollo10$3061              fb_app_rollo10
     0C:   00000CFA  A$fb_app_rollo10$3062              fb_app_rollo10
     0C:   00000CFC  A$fb_app_rollo10$3063              fb_app_rollo10
     0C:   00000CFE  A$fb_app_rollo10$3064              fb_app_rollo10
     0C:   00000CFF  A$fb_app_rollo10$3065              fb_app_rollo10
     0C:   00000D01  A$fb_app_rollo10$3067              fb_app_rollo10
     0C:   00000D03  A$fb_app_rollo10$3069              fb_app_rollo10
     0C:   00000D06  A$fb_app_rollo10$3070              fb_app_rollo10
     0C:   00000D07  A$fb_app_rollo10$3071              fb_app_rollo10
     0C:   00000D09  A$fb_app_rollo10$3074              fb_app_rollo10
     0C:   00000D09  C$fb_app_rollo10.c$901$1$1         fb_app_rollo10
     0C:   00000D0B  A$fb_app_rollo10$3075              fb_app_rollo10
     0C:   00000D0D  A$fb_app_rollo10$3079              fb_app_rollo10
     0C:   00000D0D  C$fb_app_rollo10.c$967$1$1         fb_app_rollo10
     0C:   00000D0F  A$fb_app_rollo10$3080              fb_app_rollo10
     0C:   00000D11  A$fb_app_rollo10$3081              fb_app_rollo10
     0C:   00000D12  A$fb_app_rollo10$3082              fb_app_rollo10
     0C:   00000D13  A$fb_app_rollo10$3083              fb_app_rollo10
     0C:   00000D14  A$fb_app_rollo10$3084              fb_app_rollo10
     0C:   00000D15  A$fb_app_rollo10$3085              fb_app_rollo10
     0C:   00000D16  A$fb_app_rollo10$3086              fb_app_rollo10
     0C:   00000D17  A$fb_app_rollo10$3087              fb_app_rollo10
     0C:   00000D19  A$fb_app_rollo10$3088              fb_app_rollo10
     0C:   00000D1B  A$fb_app_rollo10$3089              fb_app_rollo10
     0C:   00000D1C  A$fb_app_rollo10$3090              fb_app_rollo10
     0C:   00000D1E  A$fb_app_rollo10$3091              fb_app_rollo10
     0C:   00000D1F  A$fb_app_rollo10$3092              fb_app_rollo10
     0C:   00000D21  A$fb_app_rollo10$3093              fb_app_rollo10
     0C:   00000D22  A$fb_app_rollo10$3094              fb_app_rollo10
     0C:   00000D23  A$fb_app_rollo10$3095              fb_app_rollo10
     0C:   00000D25  A$fb_app_rollo10$3098              fb_app_rollo10
     0C:   00000D25  C$fb_app_rollo10.c$968$2$3         fb_app_rollo10
     0C:   00000D27  A$fb_app_rollo10$3101              fb_app_rollo10
     0C:   00000D27  C$fb_app_rollo10.c$969$2$3         fb_app_rollo10
     0C:   00000D2A  A$fb_app_rollo10$3104              fb_app_rollo10
     0C:   00000D2A  C$fb_app_rollo10.c$972$2$3         fb_app_rollo10
     0C:   00000D2C  A$fb_app_rollo10$3107              fb_app_rollo10
     0C:   00000D2C  C$fb_app_rollo10.c$974$2$3         fb_app_rollo10
     0C:   00000D2F  A$fb_app_rollo10$3110              fb_app_rollo10
     0C:   00000D2F  C$fb_app_rollo10.c$975$2$3         fb_app_rollo10
     0C:   00000D31  A$fb_app_rollo10$3117              fb_app_rollo10
     0C:   00000D31  C$fb_app_rollo10.c$976$2$3         fb_app_rollo10
     0C:   00000D31  C$fb_app_rollo10.c$977$2$3         fb_app_rollo10
     0C:   00000D31  C$fb_app_rollo10.c$978$2$3         fb_app_rollo10
     0C:   00000D32  A$fb_app_rollo10$3118              fb_app_rollo10
     0C:   00000D34  A$fb_app_rollo10$3119              fb_app_rollo10
     0C:   00000D36  A$fb_app_rollo10$3120              fb_app_rollo10
ASxxxx Linker V02.00 + NoICE + sdld,  page 66.
Hexadecimal  [32-Bits]

Area                                    Addr        Size        Decimal Bytes (Attributes)
--------------------------------        ----        ----        ------- ----- ------------
CSEG                                0000007F    00001793 =        6035. bytes (REL,CON,CODE)

      Value  Global                              Global Defined In Module
      -----  --------------------------------   ------------------------
     0C:   00000D38  A$fb_app_rollo10$3121              fb_app_rollo10
     0C:   00000D3A  A$fb_app_rollo10$3122              fb_app_rollo10
     0C:   00000D3B  A$fb_app_rollo10$3123              fb_app_rollo10
     0C:   00000D3D  A$fb_app_rollo10$3126              fb_app_rollo10
     0C:   00000D3D  C$fb_app_rollo10.c$979$2$3         fb_app_rollo10
     0C:   00000D40  A$fb_app_rollo10$3129              fb_app_rollo10
     0C:   00000D40  C$fb_app_rollo10.c$980$2$3         fb_app_rollo10
     0C:   00000D42  A$fb_app_rollo10$3130              fb_app_rollo10
     0C:   00000D44  A$fb_app_rollo10$3134              fb_app_rollo10
     0C:   00000D44  C$fb_app_rollo10.c$982$1$1         fb_app_rollo10
     0C:   00000D47  A$fb_app_rollo10$3138              fb_app_rollo10
     0C:   00000D47  C$fb_app_rollo10.c$985$1$1         fb_app_rollo10
     0C:   00000D4A  A$fb_app_rollo10$3141              fb_app_rollo10
     0C:   00000D4A  C$fb_app_rollo10.c$986$1$1         fb_app_rollo10
     0C:   00000D4C  A$fb_app_rollo10$3144              fb_app_rollo10
     0C:   00000D4C  C$fb_app_rollo10.c$990$1$1         fb_app_rollo10
     0C:   00000D4C  XG$port_schalten$0$0               fb_app_rollo10
     0C:   00000D4D  A$fb_app_rollo10$3159              fb_app_rollo10
     0C:   00000D4D  C$fb_app_rollo10.c$1112$1$1        fb_app_rollo10
     0C:   00000D4D  C$fb_app_rollo10.c$1115$1$1        fb_app_rollo10
     0C:   00000D4D  G$bus_return$0$0                   fb_app_rollo10
     0C:   00000D4D  _bus_return                        fb_app_rollo10
     0C:   00000D50  A$fb_app_rollo10$3160              fb_app_rollo10
     0C:   00000D51  A$fb_app_rollo10$3161              fb_app_rollo10
     0C:   00000D52  A$fb_app_rollo10$3162              fb_app_rollo10
     0C:   00000D54  A$fb_app_rollo10$3167              fb_app_rollo10
     0C:   00000D54  C$fb_app_rollo10.c$1116$1$1        fb_app_rollo10
     0C:   00000D54  C$fb_app_rollo10.c$1117$2$2        fb_app_rollo10
     0C:   00000D55  A$fb_app_rollo10$3168              fb_app_rollo10
     0C:   00000D57  A$fb_app_rollo10$3169              fb_app_rollo10
     0C:   00000D59  A$fb_app_rollo10$3170              fb_app_rollo10
     0C:   00000D5A  A$fb_app_rollo10$3172              fb_app_rollo10
     0C:   00000D5B  A$fb_app_rollo10$3173              fb_app_rollo10
     0C:   00000D5D  A$fb_app_rollo10$3174              fb_app_rollo10
     0C:   00000D5F  A$fb_app_rollo10$3177              fb_app_rollo10
     0C:   00000D5F  C$fb_app_rollo10.c$1118$2$2        fb_app_rollo10
     0C:   00000D60  A$fb_app_rollo10$3178              fb_app_rollo10
     0C:   00000D62  A$fb_app_rollo10$3179              fb_app_rollo10
     0C:   00000D63  A$fb_app_rollo10$3180              fb_app_rollo10
     0C:   00000D65  A$fb_app_rollo10$3183              fb_app_rollo10
     0C:   00000D65  C$fb_app_rollo10.c$1119$2$2        fb_app_rollo10
     0C:   00000D66  A$fb_app_rollo10$3184              fb_app_rollo10
     0C:   00000D68  A$fb_app_rollo10$3185              fb_app_rollo10
     0C:   00000D69  A$fb_app_rollo10$3186              fb_app_rollo10
     0C:   00000D6B  A$fb_app_rollo10$3189              fb_app_rollo10
     0C:   00000D6B  C$fb_app_rollo10.c$1120$2$2        fb_app_rollo10
     0C:   00000D6C  A$fb_app_rollo10$3190              fb_app_rollo10
     0C:   00000D6E  A$fb_app_rollo10$3191              fb_app_rollo10
     0C:   00000D6F  A$fb_app_rollo10$3192              fb_app_rollo10
     0C:   00000D71  A$fb_app_rollo10$3195              fb_app_rollo10
     0C:   00000D71  C$fb_app_rollo10.c$1117$1$1        fb_app_rollo10
ASxxxx Linker V02.00 + NoICE + sdld,  page 67.
Hexadecimal  [32-Bits]

Area                                    Addr        Size        Decimal Bytes (Attributes)
--------------------------------        ----        ----        ------- ----- ------------
CSEG                                0000007F    00001793 =        6035. bytes (REL,CON,CODE)

      Value  Global                              Global Defined In Module
      -----  --------------------------------   ------------------------
     0C:   00000D72  A$fb_app_rollo10$3196              fb_app_rollo10
     0C:   00000D74  A$fb_app_rollo10$3200              fb_app_rollo10
     0C:   00000D76  A$fb_app_rollo10$3202              fb_app_rollo10
     0C:   00000D77  A$fb_app_rollo10$3203              fb_app_rollo10
     0C:   00000D79  A$fb_app_rollo10$3204              fb_app_rollo10
     0C:   00000D7B  A$fb_app_rollo10$3207              fb_app_rollo10
     0C:   00000D7B  C$fb_app_rollo10.c$1123$2$3        fb_app_rollo10
     0C:   00000D7E  A$fb_app_rollo10$3208              fb_app_rollo10
     0C:   00000D7F  A$fb_app_rollo10$3209              fb_app_rollo10
     0C:   00000D80  A$fb_app_rollo10$3210              fb_app_rollo10
     0C:   00000D81  A$fb_app_rollo10$3211              fb_app_rollo10
     0C:   00000D83  A$fb_app_rollo10$3212              fb_app_rollo10
     0C:   00000D85  A$fb_app_rollo10$3213              fb_app_rollo10
     0C:   00000D86  A$fb_app_rollo10$3214              fb_app_rollo10
     0C:   00000D88  A$fb_app_rollo10$3216              fb_app_rollo10
     0C:   00000D89  A$fb_app_rollo10$3217              fb_app_rollo10
     0C:   00000D8A  A$fb_app_rollo10$3219              fb_app_rollo10
     0C:   00000D8D  A$fb_app_rollo10$3220              fb_app_rollo10
     0C:   00000D8F  A$fb_app_rollo10$3221              fb_app_rollo10
     0C:   00000D91  A$fb_app_rollo10$3222              fb_app_rollo10
     0C:   00000D93  A$fb_app_rollo10$3226              fb_app_rollo10
     0C:   00000D93  C$fb_app_rollo10.c$1124$3$4        fb_app_rollo10
     0C:   00000D95  A$fb_app_rollo10$3227              fb_app_rollo10
     0C:   00000D97  A$fb_app_rollo10$3228              fb_app_rollo10
     0C:   00000D99  A$fb_app_rollo10$3229              fb_app_rollo10
     0C:   00000D9B  A$fb_app_rollo10$3231              fb_app_rollo10
     0C:   00000D9D  A$fb_app_rollo10$3233              fb_app_rollo10
     0C:   00000DA0  A$fb_app_rollo10$3234              fb_app_rollo10
     0C:   00000DA1  A$fb_app_rollo10$3235              fb_app_rollo10
     0C:   00000DA2  A$fb_app_rollo10$3236              fb_app_rollo10
     0C:   00000DA4  A$fb_app_rollo10$3240              fb_app_rollo10
     0C:   00000DA4  C$fb_app_rollo10.c$1126$2$3        fb_app_rollo10
     0C:   00000DA7  A$fb_app_rollo10$3241              fb_app_rollo10
     0C:   00000DA8  A$fb_app_rollo10$3242              fb_app_rollo10
     0C:   00000DA9  A$fb_app_rollo10$3243              fb_app_rollo10
     0C:   00000DAA  A$fb_app_rollo10$3244              fb_app_rollo10
     0C:   00000DAD  A$fb_app_rollo10$3245              fb_app_rollo10
     0C:   00000DB0  A$fb_app_rollo10$3246              fb_app_rollo10
     0C:   00000DB2  A$fb_app_rollo10$3250              fb_app_rollo10
     0C:   00000DB2  C$fb_app_rollo10.c$1127$3$5        fb_app_rollo10
     0C:   00000DB5  A$fb_app_rollo10$3251              fb_app_rollo10
     0C:   00000DB7  A$fb_app_rollo10$3255              fb_app_rollo10
     0C:   00000DB7  C$fb_app_rollo10.c$1128$3$5        fb_app_rollo10
     0C:   00000DB9  A$fb_app_rollo10$3256              fb_app_rollo10
     0C:   00000DBA  A$fb_app_rollo10$3257              fb_app_rollo10
     0C:   00000DBC  A$fb_app_rollo10$3258              fb_app_rollo10
     0C:   00000DBE  A$fb_app_rollo10$3259              fb_app_rollo10
     0C:   00000DC0  A$fb_app_rollo10$3260              fb_app_rollo10
     0C:   00000DC3  A$fb_app_rollo10$3261              fb_app_rollo10
     0C:   00000DC6  A$fb_app_rollo10$3262              fb_app_rollo10
     0C:   00000DC8  A$fb_app_rollo10$3267              fb_app_rollo10
ASxxxx Linker V02.00 + NoICE + sdld,  page 68.
Hexadecimal  [32-Bits]

Area                                    Addr        Size        Decimal Bytes (Attributes)
--------------------------------        ----        ----        ------- ----- ------------
CSEG                                0000007F    00001793 =        6035. bytes (REL,CON,CODE)

      Value  Global                              Global Defined In Module
      -----  --------------------------------   ------------------------
     0C:   00000DC8  C$fb_app_rollo10.c$1129$3$5        fb_app_rollo10
     0C:   00000DC8  C$fb_app_rollo10.c$1130$3$5        fb_app_rollo10
     0C:   00000DCA  A$fb_app_rollo10$3271              fb_app_rollo10
     0C:   00000DCA  C$fb_app_rollo10.c$1131$3$5        fb_app_rollo10
     0C:   00000DCC  A$fb_app_rollo10$3272              fb_app_rollo10
     0C:   00000DCD  A$fb_app_rollo10$3273              fb_app_rollo10
     0C:   00000DCF  A$fb_app_rollo10$3274              fb_app_rollo10
     0C:   00000DD1  A$fb_app_rollo10$3275              fb_app_rollo10
     0C:   00000DD3  A$fb_app_rollo10$3276              fb_app_rollo10
     0C:   00000DD6  A$fb_app_rollo10$3277              fb_app_rollo10
     0C:   00000DD9  A$fb_app_rollo10$3278              fb_app_rollo10
     0C:   00000DDB  A$fb_app_rollo10$3284              fb_app_rollo10
     0C:   00000DDB  C$fb_app_rollo10.c$1122$1$1        fb_app_rollo10
     0C:   00000DDB  C$fb_app_rollo10.c$1134$2$3        fb_app_rollo10
     0C:   00000DDC  A$fb_app_rollo10$3285              fb_app_rollo10
     0C:   00000DDE  A$fb_app_rollo10$3289              fb_app_rollo10
     0C:   00000DDE  C$fb_app_rollo10.c$1138$1$1        fb_app_rollo10
     0C:   00000DE1  A$fb_app_rollo10$3292              fb_app_rollo10
     0C:   00000DE1  C$fb_app_rollo10.c$1139$1$1        fb_app_rollo10
     0C:   00000DE3  A$fb_app_rollo10$3295              fb_app_rollo10
     0C:   00000DE3  C$fb_app_rollo10.c$1141$1$1        fb_app_rollo10
     0C:   00000DE6  A$fb_app_rollo10$3296              fb_app_rollo10
     0C:   00000DE9  A$fb_app_rollo10$3299              fb_app_rollo10
     0C:   00000DE9  C$fb_app_rollo10.c$1142$1$1        fb_app_rollo10
     0C:   00000DEC  A$fb_app_rollo10$3300              fb_app_rollo10
     0C:   00000DEF  A$fb_app_rollo10$3303              fb_app_rollo10
     0C:   00000DEF  C$fb_app_rollo10.c$1145$1$1        fb_app_rollo10
     0C:   00000DEF  XG$bus_return$0$0                  fb_app_rollo10
     0C:   00000DF0  A$fb_app_rollo10$3316              fb_app_rollo10
     0C:   00000DF0  C$fb_app_rollo10.c$1148$1$1        fb_app_rollo10
     0C:   00000DF0  C$fb_app_rollo10.c$1151$1$1        fb_app_rollo10
     0C:   00000DF0  G$restart_app$0$0                  fb_app_rollo10
     0C:   00000DF0  _restart_app                       fb_app_rollo10
     0C:   00000DF3  A$fb_app_rollo10$3319              fb_app_rollo10
     0C:   00000DF3  C$fb_app_rollo10.c$1152$1$1        fb_app_rollo10
     0C:   00000DF5  A$fb_app_rollo10$3322              fb_app_rollo10
     0C:   00000DF5  C$fb_app_rollo10.c$1154$1$1        fb_app_rollo10
     0C:   00000DF8  A$fb_app_rollo10$3325              fb_app_rollo10
     0C:   00000DF8  C$fb_app_rollo10.c$1155$1$1        fb_app_rollo10
     0C:   00000DFB  A$fb_app_rollo10$3328              fb_app_rollo10
     0C:   00000DFB  C$fb_app_rollo10.c$1156$1$1        fb_app_rollo10
     0C:   00000DFE  A$fb_app_rollo10$3331              fb_app_rollo10
     0C:   00000DFE  C$fb_app_rollo10.c$1161$1$1        fb_app_rollo10
     0C:   00000E00  A$fb_app_rollo10$3332              fb_app_rollo10
     0C:   00000E02  A$fb_app_rollo10$3333              fb_app_rollo10
     0C:   00000E04  A$fb_app_rollo10$3334              fb_app_rollo10
     0C:   00000E06  A$fb_app_rollo10$3337              fb_app_rollo10
     0C:   00000E06  C$fb_app_rollo10.c$1162$1$1        fb_app_rollo10
     0C:   00000E09  A$fb_app_rollo10$3340              fb_app_rollo10
     0C:   00000E09  C$fb_app_rollo10.c$1163$1$1        fb_app_rollo10
     0C:   00000E0C  A$fb_app_rollo10$3343              fb_app_rollo10
ASxxxx Linker V02.00 + NoICE + sdld,  page 69.
Hexadecimal  [32-Bits]

Area                                    Addr        Size        Decimal Bytes (Attributes)
--------------------------------        ----        ----        ------- ----- ------------
CSEG                                0000007F    00001793 =        6035. bytes (REL,CON,CODE)

      Value  Global                              Global Defined In Module
      -----  --------------------------------   ------------------------
     0C:   00000E0C  C$fb_app_rollo10.c$1164$1$1        fb_app_rollo10
     0C:   00000E0F  A$fb_app_rollo10$3346              fb_app_rollo10
     0C:   00000E0F  C$fb_app_rollo10.c$1165$1$1        fb_app_rollo10
     0C:   00000E11  A$fb_app_rollo10$3349              fb_app_rollo10
     0C:   00000E11  C$fb_app_rollo10.c$1170$1$1        fb_app_rollo10
     0C:   00000E13  A$fb_app_rollo10$3352              fb_app_rollo10
     0C:   00000E13  C$fb_app_rollo10.c$1171$1$1        fb_app_rollo10
     0C:   00000E15  A$fb_app_rollo10$3359              fb_app_rollo10
     0C:   00000E15  C$fb_app_rollo10.c$1172$1$1        fb_app_rollo10
     0C:   00000E15  C$fb_app_rollo10.c$1173$1$1        fb_app_rollo10
     0C:   00000E15  C$fb_app_rollo10.c$1176$1$1        fb_app_rollo10
     0C:   00000E16  A$fb_app_rollo10$3360              fb_app_rollo10
     0C:   00000E18  A$fb_app_rollo10$3361              fb_app_rollo10
     0C:   00000E1A  A$fb_app_rollo10$3362              fb_app_rollo10
     0C:   00000E1C  A$fb_app_rollo10$3363              fb_app_rollo10
     0C:   00000E1E  A$fb_app_rollo10$3366              fb_app_rollo10
     0C:   00000E1E  C$fb_app_rollo10.c$1178$1$1        fb_app_rollo10
     0C:   00000E20  A$fb_app_rollo10$3369              fb_app_rollo10
     0C:   00000E20  C$fb_app_rollo10.c$1179$1$1        fb_app_rollo10
     0C:   00000E23  A$fb_app_rollo10$3372              fb_app_rollo10
     0C:   00000E23  C$fb_app_rollo10.c$1180$1$1        fb_app_rollo10
     0C:   00000E26  A$fb_app_rollo10$3373              fb_app_rollo10
     0C:   00000E29  A$fb_app_rollo10$3374              fb_app_rollo10
     0C:   00000E2C  A$fb_app_rollo10$3377              fb_app_rollo10
     0C:   00000E2C  C$fb_app_rollo10.c$1181$1$1        fb_app_rollo10
     0C:   00000E2F  A$fb_app_rollo10$3378              fb_app_rollo10
     0C:   00000E32  A$fb_app_rollo10$3379              fb_app_rollo10
     0C:   00000E35  A$fb_app_rollo10$3382              fb_app_rollo10
     0C:   00000E35  C$fb_app_rollo10.c$1182$1$1        fb_app_rollo10
     0C:   00000E38  A$fb_app_rollo10$3383              fb_app_rollo10
     0C:   00000E3B  A$fb_app_rollo10$3384              fb_app_rollo10
     0C:   00000E3E  A$fb_app_rollo10$3387              fb_app_rollo10
     0C:   00000E3E  C$fb_app_rollo10.c$1183$1$1        fb_app_rollo10
     0C:   00000E41  A$fb_app_rollo10$3388              fb_app_rollo10
     0C:   00000E44  A$fb_app_rollo10$3389              fb_app_rollo10
     0C:   00000E47  A$fb_app_rollo10$3392              fb_app_rollo10
     0C:   00000E47  C$fb_app_rollo10.c$1184$1$1        fb_app_rollo10
     0C:   00000E4A  A$fb_app_rollo10$3393              fb_app_rollo10
     0C:   00000E4D  A$fb_app_rollo10$3394              fb_app_rollo10
     0C:   00000E50  A$fb_app_rollo10$3397              fb_app_rollo10
     0C:   00000E50  C$fb_app_rollo10.c$1185$1$1        fb_app_rollo10
     0C:   00000E53  A$fb_app_rollo10$3398              fb_app_rollo10
     0C:   00000E56  A$fb_app_rollo10$3399              fb_app_rollo10
     0C:   00000E59  A$fb_app_rollo10$3402              fb_app_rollo10
     0C:   00000E59  C$fb_app_rollo10.c$1186$1$1        fb_app_rollo10
     0C:   00000E5C  A$fb_app_rollo10$3403              fb_app_rollo10
     0C:   00000E5F  A$fb_app_rollo10$3404              fb_app_rollo10
     0C:   00000E62  A$fb_app_rollo10$3407              fb_app_rollo10
     0C:   00000E62  C$fb_app_rollo10.c$1187$1$1        fb_app_rollo10
     0C:   00000E65  A$fb_app_rollo10$3408              fb_app_rollo10
     0C:   00000E68  A$fb_app_rollo10$3409              fb_app_rollo10
ASxxxx Linker V02.00 + NoICE + sdld,  page 70.
Hexadecimal  [32-Bits]

Area                                    Addr        Size        Decimal Bytes (Attributes)
--------------------------------        ----        ----        ------- ----- ------------
CSEG                                0000007F    00001793 =        6035. bytes (REL,CON,CODE)

      Value  Global                              Global Defined In Module
      -----  --------------------------------   ------------------------
     0C:   00000E6B  A$fb_app_rollo10$3412              fb_app_rollo10
     0C:   00000E6B  C$fb_app_rollo10.c$1188$1$1        fb_app_rollo10
     0C:   00000E6E  A$fb_app_rollo10$3415              fb_app_rollo10
     0C:   00000E6E  C$fb_app_rollo10.c$1189$1$1        fb_app_rollo10
     0C:   00000E70  A$fb_app_rollo10$3418              fb_app_rollo10
     0C:   00000E70  C$fb_app_rollo10.c$1191$1$1        fb_app_rollo10
     0C:   00000E73  A$fb_app_rollo10$3421              fb_app_rollo10
     0C:   00000E73  C$fb_app_rollo10.c$1192$1$1        fb_app_rollo10
     0C:   00000E76  A$fb_app_rollo10$3424              fb_app_rollo10
     0C:   00000E76  C$fb_app_rollo10.c$1193$1$1        fb_app_rollo10
     0C:   00000E79  A$fb_app_rollo10$3427              fb_app_rollo10
     0C:   00000E79  C$fb_app_rollo10.c$1194$1$1        fb_app_rollo10
     0C:   00000E7C  A$fb_app_rollo10$3430              fb_app_rollo10
     0C:   00000E7C  C$fb_app_rollo10.c$1195$1$1        fb_app_rollo10
     0C:   00000E7C  XG$restart_app$0$0                 fb_app_rollo10
     0C:   00000E7D  A$fb_lpc922$682                    fb_lpc922
     0C:   00000E7D  C$fb_lpc922.c$63$0$0               fb_lpc922
     0C:   00000E7D  G$X1_int$0$0                       fb_lpc922
     0C:   00000E7D  _X1_int                            fb_lpc922
     0C:   00000E7F  A$fb_lpc922$683                    fb_lpc922
     0C:   00000E81  A$fb_lpc922$686                    fb_lpc922
     0C:   00000E81  C$fb_lpc922.c$66$1$1               fb_lpc922
     0C:   00000E83  A$fb_lpc922$689                    fb_lpc922
     0C:   00000E83  C$fb_lpc922.c$67$1$1               fb_lpc922
     0C:   00000E85  A$fb_lpc922$692                    fb_lpc922
     0C:   00000E85  C$fb_lpc922.c$68$1$1               fb_lpc922
     0C:   00000E87  A$fb_lpc922$693                    fb_lpc922
     0C:   00000E89  A$fb_lpc922$694                    fb_lpc922
     0C:   00000E8B  A$fb_lpc922$695                    fb_lpc922
     0C:   00000E8D  A$fb_lpc922$698                    fb_lpc922
     0C:   00000E8D  C$fb_lpc922.c$69$1$1               fb_lpc922
     0C:   00000E90  A$fb_lpc922$701                    fb_lpc922
     0C:   00000E90  C$fb_lpc922.c$70$1$1               fb_lpc922
     0C:   00000E93  A$fb_lpc922$704                    fb_lpc922
     0C:   00000E93  C$fb_lpc922.c$71$1$1               fb_lpc922
     0C:   00000E95  A$fb_lpc922$707                    fb_lpc922
     0C:   00000E95  C$fb_lpc922.c$72$1$1               fb_lpc922
     0C:   00000E97  A$fb_lpc922$710                    fb_lpc922
     0C:   00000E97  C$fb_lpc922.c$73$1$1               fb_lpc922
     0C:   00000E99  A$fb_lpc922$713                    fb_lpc922
     0C:   00000E99  C$fb_lpc922.c$74$1$1               fb_lpc922
     0C:   00000E9C  A$fb_lpc922$716                    fb_lpc922
     0C:   00000E9C  C$fb_lpc922.c$75$1$1               fb_lpc922
     0C:   00000E9E  A$fb_lpc922$719                    fb_lpc922
     0C:   00000E9E  C$fb_lpc922.c$76$1$1               fb_lpc922
     0C:   00000EA0  A$fb_lpc922$722                    fb_lpc922
     0C:   00000EA0  C$fb_lpc922.c$77$1$1               fb_lpc922
     0C:   00000EA3  A$fb_lpc922$725                    fb_lpc922
     0C:   00000EA3  C$fb_lpc922.c$78$1$1               fb_lpc922
     0C:   00000EA6  A$fb_lpc922$728                    fb_lpc922
     0C:   00000EA6  C$fb_lpc922.c$79$1$1               fb_lpc922
ASxxxx Linker V02.00 + NoICE + sdld,  page 71.
Hexadecimal  [32-Bits]

Area                                    Addr        Size        Decimal Bytes (Attributes)
--------------------------------        ----        ----        ------- ----- ------------
CSEG                                0000007F    00001793 =        6035. bytes (REL,CON,CODE)

      Value  Global                              Global Defined In Module
      -----  --------------------------------   ------------------------
     0C:   00000EA8  A$fb_lpc922$729                    fb_lpc922
     0C:   00000EAA  A$fb_lpc922$730                    fb_lpc922
     0C:   00000EAC  A$fb_lpc922$733                    fb_lpc922
     0C:   00000EAC  C$fb_lpc922.c$80$1$1               fb_lpc922
     0C:   00000EAC  XG$X1_int$0$0                      fb_lpc922
     0C:   00000EAD  A$fb_lpc922$751                    fb_lpc922
     0C:   00000EAD  C$fb_lpc922.c$84$1$1               fb_lpc922
     0C:   00000EAD  G$T1_int$0$0                       fb_lpc922
     0C:   00000EAD  _T1_int                            fb_lpc922
     0C:   00000EAF  A$fb_lpc922$752                    fb_lpc922
     0C:   00000EB1  A$fb_lpc922$753                    fb_lpc922
     0C:   00000EB3  A$fb_lpc922$754                    fb_lpc922
     0C:   00000EB5  A$fb_lpc922$755                    fb_lpc922
     0C:   00000EB7  A$fb_lpc922$756                    fb_lpc922
     0C:   00000EB9  A$fb_lpc922$757                    fb_lpc922
     0C:   00000EBB  A$fb_lpc922$758                    fb_lpc922
     0C:   00000EBD  A$fb_lpc922$759                    fb_lpc922
     0C:   00000EBF  A$fb_lpc922$760                    fb_lpc922
     0C:   00000EC1  A$fb_lpc922$761                    fb_lpc922
     0C:   00000EC3  A$fb_lpc922$762                    fb_lpc922
     0C:   00000EC5  A$fb_lpc922$763                    fb_lpc922
     0C:   00000EC7  A$fb_lpc922$764                    fb_lpc922
     0C:   00000EC9  A$fb_lpc922$765                    fb_lpc922
     0C:   00000ECC  A$fb_lpc922$768                    fb_lpc922
     0C:   00000ECC  C$fb_lpc922.c$90$1$1               fb_lpc922
     0C:   00000ECE  A$fb_lpc922$769                    fb_lpc922
     0C:   00000ECF  A$fb_lpc922$770                    fb_lpc922
     0C:   00000ED1  A$fb_lpc922$771                    fb_lpc922
     0C:   00000ED3  A$fb_lpc922$772                    fb_lpc922
     0C:   00000ED6  A$fb_lpc922$774                    fb_lpc922
     0C:   00000ED7  A$fb_lpc922$775                    fb_lpc922
     0C:   00000ED8  A$fb_lpc922$776                    fb_lpc922
     0C:   00000ED9  A$fb_lpc922$777                    fb_lpc922
     0C:   00000EDC  A$fb_lpc922$778                    fb_lpc922
     0C:   00000EDD  A$fb_lpc922$780                    fb_lpc922
     0C:   00000EE0  A$fb_lpc922$781                    fb_lpc922
     0C:   00000EE3  A$fb_lpc922$782                    fb_lpc922
     0C:   00000EE6  A$fb_lpc922$783                    fb_lpc922
     0C:   00000EE9  A$fb_lpc922$784                    fb_lpc922
     0C:   00000EEC  A$fb_lpc922$785                    fb_lpc922
     0C:   00000EEF  A$fb_lpc922$786                    fb_lpc922
     0C:   00000EF2  A$fb_lpc922$787                    fb_lpc922
     0C:   00000EF5  A$fb_lpc922$788                    fb_lpc922
     0C:   00000EF8  A$fb_lpc922$789                    fb_lpc922
     0C:   00000EFB  A$fb_lpc922$790                    fb_lpc922
     0C:   00000EFE  A$fb_lpc922$791                    fb_lpc922
     0C:   00000F01  A$fb_lpc922$792                    fb_lpc922
     0C:   00000F04  A$fb_lpc922$793                    fb_lpc922
     0C:   00000F07  A$fb_lpc922$794                    fb_lpc922
     0C:   00000F0A  A$fb_lpc922$800                    fb_lpc922
     0C:   00000F0A  C$fb_lpc922.c$94$2$2               fb_lpc922
ASxxxx Linker V02.00 + NoICE + sdld,  page 72.
Hexadecimal  [32-Bits]

Area                                    Addr        Size        Decimal Bytes (Attributes)
--------------------------------        ----        ----        ------- ----- ------------
CSEG                                0000007F    00001793 =        6035. bytes (REL,CON,CODE)

      Value  Global                              Global Defined In Module
      -----  --------------------------------   ------------------------
     0C:   00000F0A  C$fb_lpc922.c$95$2$2               fb_lpc922
     0C:   00000F0C  A$fb_lpc922$803                    fb_lpc922
     0C:   00000F0C  C$fb_lpc922.c$96$2$2               fb_lpc922
     0C:   00000F0E  A$fb_lpc922$804                    fb_lpc922
     0C:   00000F10  A$fb_lpc922$805                    fb_lpc922
     0C:   00000F12  A$fb_lpc922$806                    fb_lpc922
     0C:   00000F14  A$fb_lpc922$809                    fb_lpc922
     0C:   00000F14  C$fb_lpc922.c$97$2$2               fb_lpc922
     0C:   00000F17  A$fb_lpc922$812                    fb_lpc922
     0C:   00000F17  C$fb_lpc922.c$98$2$2               fb_lpc922
     0C:   00000F1A  A$fb_lpc922$815                    fb_lpc922
     0C:   00000F1A  C$fb_lpc922.c$99$2$2               fb_lpc922
     0C:   00000F1C  A$fb_lpc922$818                    fb_lpc922
     0C:   00000F1C  C$fb_lpc922.c$100$2$2              fb_lpc922
     0C:   00000F1E  A$fb_lpc922$821                    fb_lpc922
     0C:   00000F1E  C$fb_lpc922.c$101$2$2              fb_lpc922
     0C:   00000F20  A$fb_lpc922$822                    fb_lpc922
     0C:   00000F23  A$fb_lpc922$823                    fb_lpc922
     0C:   00000F25  A$fb_lpc922$827                    fb_lpc922
     0C:   00000F25  C$fb_lpc922.c$102$3$3              fb_lpc922
     0C:   00000F27  A$fb_lpc922$828                    fb_lpc922
     0C:   00000F29  A$fb_lpc922$829                    fb_lpc922
     0C:   00000F2A  A$fb_lpc922$830                    fb_lpc922
     0C:   00000F2C  A$fb_lpc922$831                    fb_lpc922
     0C:   00000F2F  A$fb_lpc922$832                    fb_lpc922
     0C:   00000F31  A$fb_lpc922$835                    fb_lpc922
     0C:   00000F31  C$fb_lpc922.c$103$4$4              fb_lpc922
     0C:   00000F33  A$fb_lpc922$838                    fb_lpc922
     0C:   00000F33  C$fb_lpc922.c$104$4$4              fb_lpc922
     0C:   00000F35  A$fb_lpc922$839                    fb_lpc922
     0C:   00000F37  A$fb_lpc922$842                    fb_lpc922
     0C:   00000F37  C$fb_lpc922.c$105$5$5              fb_lpc922
     0C:   00000F39  A$fb_lpc922$843                    fb_lpc922
     0C:   00000F3B  A$fb_lpc922$844                    fb_lpc922
     0C:   00000F3C  A$fb_lpc922$845                    fb_lpc922
     0C:   00000F3D  A$fb_lpc922$846                    fb_lpc922
     0C:   00000F3E  A$fb_lpc922$847                    fb_lpc922
     0C:   00000F41  A$fb_lpc922$850                    fb_lpc922
     0C:   00000F41  C$fb_lpc922.c$106$6$6              fb_lpc922
     0C:   00000F43  A$fb_lpc922$851                    fb_lpc922
     0C:   00000F44  A$fb_lpc922$852                    fb_lpc922
     0C:   00000F45  A$fb_lpc922$855                    fb_lpc922
     0C:   00000F45  C$fb_lpc922.c$107$6$6              fb_lpc922
     0C:   00000F48  A$fb_lpc922$859                    fb_lpc922
     0C:   00000F48  C$fb_lpc922.c$109$5$5              fb_lpc922
     0C:   00000F4A  A$fb_lpc922$860                    fb_lpc922
     0C:   00000F4C  A$fb_lpc922$861                    fb_lpc922
     0C:   00000F4E  A$fb_lpc922$862                    fb_lpc922
     0C:   00000F51  A$fb_lpc922$863                    fb_lpc922
     0C:   00000F53  A$fb_lpc922$867                    fb_lpc922
     0C:   00000F53  C$fb_lpc922.c$111$6$7              fb_lpc922
ASxxxx Linker V02.00 + NoICE + sdld,  page 73.
Hexadecimal  [32-Bits]

Area                                    Addr        Size        Decimal Bytes (Attributes)
--------------------------------        ----        ----        ------- ----- ------------
CSEG                                0000007F    00001793 =        6035. bytes (REL,CON,CODE)

      Value  Global                              Global Defined In Module
      -----  --------------------------------   ------------------------
     0C:   00000F55  A$fb_lpc922$870                    fb_lpc922
     0C:   00000F55  C$fb_lpc922.c$112$6$7              fb_lpc922
     0C:   00000F58  A$fb_lpc922$873                    fb_lpc922
     0C:   00000F58  C$fb_lpc922.c$113$6$7              fb_lpc922
     0C:   00000F5A  A$fb_lpc922$876                    fb_lpc922
     0C:   00000F5A  C$fb_lpc922.c$114$6$7              fb_lpc922
     0C:   00000F5C  A$fb_lpc922$879                    fb_lpc922
     0C:   00000F5C  C$fb_lpc922.c$115$6$7              fb_lpc922
     0C:   00000F5F  A$fb_lpc922$882                    fb_lpc922
     0C:   00000F5F  C$fb_lpc922.c$116$6$7              fb_lpc922
     0C:   00000F61  A$fb_lpc922$885                    fb_lpc922
     0C:   00000F61  C$fb_lpc922.c$117$6$7              fb_lpc922
     0C:   00000F64  A$fb_lpc922$888                    fb_lpc922
     0C:   00000F64  C$fb_lpc922.c$118$6$7              fb_lpc922
     0C:   00000F67  A$fb_lpc922$891                    fb_lpc922
     0C:   00000F67  C$fb_lpc922.c$119$6$7              fb_lpc922
     0C:   00000F69  A$fb_lpc922$895                    fb_lpc922
     0C:   00000F69  C$fb_lpc922.c$122$4$4              fb_lpc922
     0C:   00000F6B  A$fb_lpc922$896                    fb_lpc922
     0C:   00000F6E  A$fb_lpc922$900                    fb_lpc922
     0C:   00000F6E  C$fb_lpc922.c$125$4$8              fb_lpc922
     0C:   00000F70  A$fb_lpc922$903                    fb_lpc922
     0C:   00000F70  C$fb_lpc922.c$126$4$8              fb_lpc922
     0C:   00000F73  A$fb_lpc922$904                    fb_lpc922
     0C:   00000F76  A$fb_lpc922$908                    fb_lpc922
     0C:   00000F76  C$fb_lpc922.c$130$3$9              fb_lpc922
     0C:   00000F78  A$fb_lpc922$911                    fb_lpc922
     0C:   00000F78  C$fb_lpc922.c$131$3$9              fb_lpc922
     0C:   00000F7A  A$fb_lpc922$914                    fb_lpc922
     0C:   00000F7A  C$fb_lpc922.c$133$2$2              fb_lpc922
     0C:   00000F7D  A$fb_lpc922$920                    fb_lpc922
     0C:   00000F7D  C$fb_lpc922.c$136$2$2              fb_lpc922
     0C:   00000F7D  C$fb_lpc922.c$137$2$2              fb_lpc922
     0C:   00000F7F  A$fb_lpc922$921                    fb_lpc922
     0C:   00000F80  A$fb_lpc922$922                    fb_lpc922
     0C:   00000F82  A$fb_lpc922$925                    fb_lpc922
     0C:   00000F82  C$fb_lpc922.c$138$2$2              fb_lpc922
     0C:   00000F84  A$fb_lpc922$928                    fb_lpc922
     0C:   00000F84  C$fb_lpc922.c$139$2$2              fb_lpc922
     0C:   00000F87  A$fb_lpc922$931                    fb_lpc922
     0C:   00000F87  C$fb_lpc922.c$140$2$2              fb_lpc922
     0C:   00000F8A  A$fb_lpc922$934                    fb_lpc922
     0C:   00000F8A  C$fb_lpc922.c$141$2$2              fb_lpc922
     0C:   00000F8C  A$fb_lpc922$935                    fb_lpc922
     0C:   00000F8E  A$fb_lpc922$938                    fb_lpc922
     0C:   00000F8E  C$fb_lpc922.c$142$3$10             fb_lpc922
     0C:   00000F91  A$fb_lpc922$941                    fb_lpc922
     0C:   00000F91  C$fb_lpc922.c$143$3$10             fb_lpc922
     0C:   00000F93  A$fb_lpc922$944                    fb_lpc922
     0C:   00000F93  C$fb_lpc922.c$144$3$10             fb_lpc922
     0C:   00000F95  A$fb_lpc922$945                    fb_lpc922
ASxxxx Linker V02.00 + NoICE + sdld,  page 74.
Hexadecimal  [32-Bits]

Area                                    Addr        Size        Decimal Bytes (Attributes)
--------------------------------        ----        ----        ------- ----- ------------
CSEG                                0000007F    00001793 =        6035. bytes (REL,CON,CODE)

      Value  Global                              Global Defined In Module
      -----  --------------------------------   ------------------------
     0C:   00000F98  A$fb_lpc922$949                    fb_lpc922
     0C:   00000F98  C$fb_lpc922.c$147$3$11             fb_lpc922
     0C:   00000F9A  A$fb_lpc922$950                    fb_lpc922
     0C:   00000F9C  A$fb_lpc922$951                    fb_lpc922
     0C:   00000F9E  A$fb_lpc922$954                    fb_lpc922
     0C:   00000F9E  C$fb_lpc922.c$148$4$12             fb_lpc922
     0C:   00000FA1  A$fb_lpc922$957                    fb_lpc922
     0C:   00000FA1  C$fb_lpc922.c$149$5$13             fb_lpc922
     0C:   00000FA3  A$fb_lpc922$960                    fb_lpc922
     0C:   00000FA3  C$fb_lpc922.c$150$5$13             fb_lpc922
     0C:   00000FA5  A$fb_lpc922$961                    fb_lpc922
     0C:   00000FA7  A$fb_lpc922$962                    fb_lpc922
     0C:   00000FA9  A$fb_lpc922$966                    fb_lpc922
     0C:   00000FA9  C$fb_lpc922.c$152$4$12             fb_lpc922
     0C:   00000FAB  A$fb_lpc922$967                    fb_lpc922
     0C:   00000FAD  A$fb_lpc922$970                    fb_lpc922
     0C:   00000FAD  C$fb_lpc922.c$153$4$12             fb_lpc922
     0C:   00000FAF  A$fb_lpc922$971                    fb_lpc922
     0C:   00000FB1  A$fb_lpc922$972                    fb_lpc922
     0C:   00000FB4  A$fb_lpc922$974                    fb_lpc922
     0C:   00000FB7  A$fb_lpc922$975                    fb_lpc922
     0C:   00000FBA  A$fb_lpc922$979                    fb_lpc922
     0C:   00000FBA  C$fb_lpc922.c$156$4$14             fb_lpc922
     0C:   00000FBC  A$fb_lpc922$982                    fb_lpc922
     0C:   00000FBC  C$fb_lpc922.c$157$4$14             fb_lpc922
     0C:   00000FBE  A$fb_lpc922$985                    fb_lpc922
     0C:   00000FBE  C$fb_lpc922.c$158$4$14             fb_lpc922
     0C:   00000FC0  A$fb_lpc922$986                    fb_lpc922
     0C:   00000FC3  A$fb_lpc922$987                    fb_lpc922
     0C:   00000FC4  A$fb_lpc922$989                    fb_lpc922
     0C:   00000FC6  A$fb_lpc922$992                    fb_lpc922
     0C:   00000FC6  C$fb_lpc922.c$159$5$15             fb_lpc922
     0C:   00000FC8  A$fb_lpc922$993                    fb_lpc922
     0C:   00000FCA  A$fb_lpc922$996                    fb_lpc922
     0C:   00000FCA  C$fb_lpc922.c$160$6$16             fb_lpc922
     0C:   00000FCC  A$fb_lpc922$997                    fb_lpc922
     0C:   00000FCF  A$fb_lpc922$998                    fb_lpc922
     0C:   00000FD1  A$fb_lpc922$1002                   fb_lpc922
     0C:   00000FD1  C$fb_lpc922.c$161$6$16             fb_lpc922
     0C:   00000FD3  A$fb_lpc922$1003                   fb_lpc922
     0C:   00000FD6  A$fb_lpc922$1004                   fb_lpc922
     0C:   00000FD8  A$fb_lpc922$1008                   fb_lpc922
     0C:   00000FD8  C$fb_lpc922.c$163$5$15             fb_lpc922
     0C:   00000FDB  A$fb_lpc922$1009                   fb_lpc922
     0C:   00000FDE  A$fb_lpc922$1012                   fb_lpc922
     0C:   00000FDE  C$fb_lpc922.c$164$6$17             fb_lpc922
     0C:   00000FE0  A$fb_lpc922$1013                   fb_lpc922
     0C:   00000FE2  A$fb_lpc922$1014                   fb_lpc922
     0C:   00000FE3  A$fb_lpc922$1017                   fb_lpc922
     0C:   00000FE3  C$fb_lpc922.c$165$6$17             fb_lpc922
     0C:   00000FE5  A$fb_lpc922$1018                   fb_lpc922
ASxxxx Linker V02.00 + NoICE + sdld,  page 75.
Hexadecimal  [32-Bits]

Area                                    Addr        Size        Decimal Bytes (Attributes)
--------------------------------        ----        ----        ------- ----- ------------
CSEG                                0000007F    00001793 =        6035. bytes (REL,CON,CODE)

      Value  Global                              Global Defined In Module
      -----  --------------------------------   ------------------------
     0C:   00000FE6  A$fb_lpc922$1019                   fb_lpc922
     0C:   00000FE8  A$fb_lpc922$1022                   fb_lpc922
     0C:   00000FE8  C$fb_lpc922.c$166$6$17             fb_lpc922
     0C:   00000FEA  A$fb_lpc922$1023                   fb_lpc922
     0C:   00000FEC  A$fb_lpc922$1027                   fb_lpc922
     0C:   00000FEC  C$fb_lpc922.c$169$4$14             fb_lpc922
     0C:   00000FEE  A$fb_lpc922$1033                   fb_lpc922
     0C:   00000FEE  C$fb_lpc922.c$171$4$14             fb_lpc922
     0C:   00000FEE  C$fb_lpc922.c$172$5$18             fb_lpc922
     0C:   00000FF1  A$fb_lpc922$1034                   fb_lpc922
     0C:   00000FF3  A$fb_lpc922$1038                   fb_lpc922
     0C:   00000FF3  C$fb_lpc922.c$173$5$18             fb_lpc922
     0C:   00000FF6  A$fb_lpc922$1039                   fb_lpc922
     0C:   00000FF9  A$fb_lpc922$1042                   fb_lpc922
     0C:   00000FF9  C$fb_lpc922.c$174$6$19             fb_lpc922
     0C:   00000FFC  A$fb_lpc922$1047                   fb_lpc922
     0C:   00000FFC  C$fb_lpc922.c$175$6$19             fb_lpc922
     0C:   00000FFC  C$fb_lpc922.c$176$7$20             fb_lpc922
     0C:   00000FFF  A$fb_lpc922$1048                   fb_lpc922
     0C:   00001001  A$fb_lpc922$1052                   fb_lpc922
     0C:   00001001  C$fb_lpc922.c$177$7$20             fb_lpc922
     0C:   00001003  A$fb_lpc922$1053                   fb_lpc922
     0C:   00001005  A$fb_lpc922$1054                   fb_lpc922
     0C:   00001007  A$fb_lpc922$1057                   fb_lpc922
     0C:   00001007  C$fb_lpc922.c$178$7$20             fb_lpc922
     0C:   0000100A  A$fb_lpc922$1061                   fb_lpc922
     0C:   0000100A  C$fb_lpc922.c$181$5$18             fb_lpc922
     0C:   0000100D  A$fb_lpc922$1062                   fb_lpc922
     0C:   00001010  A$fb_lpc922$1066                   fb_lpc922
     0C:   00001010  C$fb_lpc922.c$184$5$21             fb_lpc922
     0C:   00001013  A$fb_lpc922$1067                   fb_lpc922
     0C:   00001016  A$fb_lpc922$1068                   fb_lpc922
     0C:   00001019  A$fb_lpc922$1071                   fb_lpc922
     0C:   00001019  C$fb_lpc922.c$185$6$22             fb_lpc922
     0C:   0000101B  A$fb_lpc922$1072                   fb_lpc922
     0C:   0000101D  A$fb_lpc922$1073                   fb_lpc922
     0C:   0000101F  A$fb_lpc922$1074                   fb_lpc922
     0C:   00001021  A$fb_lpc922$1077                   fb_lpc922
     0C:   00001021  C$fb_lpc922.c$186$6$22             fb_lpc922
     0C:   00001024  A$fb_lpc922$1080                   fb_lpc922
     0C:   00001024  C$fb_lpc922.c$187$6$22             fb_lpc922
     0C:   00001027  A$fb_lpc922$1083                   fb_lpc922
     0C:   00001027  C$fb_lpc922.c$188$6$22             fb_lpc922
     0C:   00001029  A$fb_lpc922$1086                   fb_lpc922
     0C:   00001029  C$fb_lpc922.c$189$6$22             fb_lpc922
     0C:   0000102C  A$fb_lpc922$1089                   fb_lpc922
     0C:   0000102C  C$fb_lpc922.c$190$6$22             fb_lpc922
     0C:   0000102E  A$fb_lpc922$1090                   fb_lpc922
     0C:   00001031  A$fb_lpc922$1094                   fb_lpc922
     0C:   00001031  C$fb_lpc922.c$192$5$21             fb_lpc922
     0C:   00001034  A$fb_lpc922$1097                   fb_lpc922
ASxxxx Linker V02.00 + NoICE + sdld,  page 76.
Hexadecimal  [32-Bits]

Area                                    Addr        Size        Decimal Bytes (Attributes)
--------------------------------        ----        ----        ------- ----- ------------
CSEG                                0000007F    00001793 =        6035. bytes (REL,CON,CODE)

      Value  Global                              Global Defined In Module
      -----  --------------------------------   ------------------------
     0C:   00001034  C$fb_lpc922.c$196$2$2              fb_lpc922
     0C:   00001037  A$fb_lpc922$1103                   fb_lpc922
     0C:   00001037  C$fb_lpc922.c$198$2$2              fb_lpc922
     0C:   00001037  C$fb_lpc922.c$199$2$2              fb_lpc922
     0C:   0000103A  A$fb_lpc922$1106                   fb_lpc922
     0C:   0000103A  C$fb_lpc922.c$200$2$2              fb_lpc922
     0C:   0000103D  A$fb_lpc922$1109                   fb_lpc922
     0C:   0000103D  C$fb_lpc922.c$201$2$2              fb_lpc922
     0C:   00001040  A$fb_lpc922$1115                   fb_lpc922
     0C:   00001040  C$fb_lpc922.c$203$2$2              fb_lpc922
     0C:   00001040  C$fb_lpc922.c$204$2$2              fb_lpc922
     0C:   00001043  A$fb_lpc922$1116                   fb_lpc922
     0C:   00001045  A$fb_lpc922$1117                   fb_lpc922
     0C:   00001047  A$fb_lpc922$1118                   fb_lpc922
     0C:   00001049  A$fb_lpc922$1121                   fb_lpc922
     0C:   00001049  C$fb_lpc922.c$205$3$23             fb_lpc922
     0C:   0000104B  A$fb_lpc922$1124                   fb_lpc922
     0C:   0000104B  C$fb_lpc922.c$206$3$23             fb_lpc922
     0C:   0000104D  A$fb_lpc922$1125                   fb_lpc922
     0C:   0000104F  A$fb_lpc922$1126                   fb_lpc922
     0C:   00001051  A$fb_lpc922$1127                   fb_lpc922
     0C:   00001053  A$fb_lpc922$1130                   fb_lpc922
     0C:   00001053  C$fb_lpc922.c$207$3$23             fb_lpc922
     0C:   00001056  A$fb_lpc922$1133                   fb_lpc922
     0C:   00001056  C$fb_lpc922.c$208$3$23             fb_lpc922
     0C:   00001059  A$fb_lpc922$1136                   fb_lpc922
     0C:   00001059  C$fb_lpc922.c$209$3$23             fb_lpc922
     0C:   0000105B  A$fb_lpc922$1139                   fb_lpc922
     0C:   0000105B  C$fb_lpc922.c$210$3$23             fb_lpc922
     0C:   0000105D  A$fb_lpc922$1140                   fb_lpc922
     0C:   0000105F  A$fb_lpc922$1143                   fb_lpc922
     0C:   0000105F  C$fb_lpc922.c$211$3$23             fb_lpc922
     0C:   00001061  A$fb_lpc922$1144                   fb_lpc922
     0C:   00001064  A$fb_lpc922$1147                   fb_lpc922
     0C:   00001064  C$fb_lpc922.c$212$4$24             fb_lpc922
     0C:   00001067  A$fb_lpc922$1148                   fb_lpc922
     0C:   00001069  A$fb_lpc922$1149                   fb_lpc922
     0C:   0000106C  A$fb_lpc922$1150                   fb_lpc922
     0C:   0000106E  A$fb_lpc922$1151                   fb_lpc922
     0C:   00001070  A$fb_lpc922$1152                   fb_lpc922
     0C:   00001073  A$fb_lpc922$1153                   fb_lpc922
     0C:   00001075  A$fb_lpc922$1155                   fb_lpc922
     0C:   00001077  A$fb_lpc922$1159                   fb_lpc922
     0C:   00001077  C$fb_lpc922.c$213$4$24             fb_lpc922
     0C:   00001079  A$fb_lpc922$1160                   fb_lpc922
     0C:   0000107B  A$fb_lpc922$1161                   fb_lpc922
     0C:   0000107D  A$fb_lpc922$1162                   fb_lpc922
     0C:   0000107F  A$fb_lpc922$1163                   fb_lpc922
     0C:   00001081  A$fb_lpc922$1164                   fb_lpc922
     0C:   00001083  A$fb_lpc922$1168                   fb_lpc922
     0C:   00001083  C$fb_lpc922.c$215$3$23             fb_lpc922
ASxxxx Linker V02.00 + NoICE + sdld,  page 77.
Hexadecimal  [32-Bits]

Area                                    Addr        Size        Decimal Bytes (Attributes)
--------------------------------        ----        ----        ------- ----- ------------
CSEG                                0000007F    00001793 =        6035. bytes (REL,CON,CODE)

      Value  Global                              Global Defined In Module
      -----  --------------------------------   ------------------------
     0C:   00001086  A$fb_lpc922$1169                   fb_lpc922
     0C:   00001087  A$fb_lpc922$1170                   fb_lpc922
     0C:   00001088  A$fb_lpc922$1171                   fb_lpc922
     0C:   00001089  A$fb_lpc922$1172                   fb_lpc922
     0C:   0000108C  A$fb_lpc922$1173                   fb_lpc922
     0C:   0000108F  A$fb_lpc922$1174                   fb_lpc922
     0C:   00001090  A$fb_lpc922$1175                   fb_lpc922
     0C:   00001091  A$fb_lpc922$1176                   fb_lpc922
     0C:   00001092  A$fb_lpc922$1177                   fb_lpc922
     0C:   00001095  A$fb_lpc922$1178                   fb_lpc922
     0C:   00001097  A$fb_lpc922$1182                   fb_lpc922
     0C:   00001097  C$fb_lpc922.c$216$3$23             fb_lpc922
     0C:   00001099  A$fb_lpc922$1183                   fb_lpc922
     0C:   0000109C  A$fb_lpc922$1184                   fb_lpc922
     0C:   0000109F  A$fb_lpc922$1185                   fb_lpc922
     0C:   000010A1  A$fb_lpc922$1189                   fb_lpc922
     0C:   000010A1  C$fb_lpc922.c$217$3$23             fb_lpc922
     0C:   000010A4  A$fb_lpc922$1190                   fb_lpc922
     0C:   000010A7  A$fb_lpc922$1194                   fb_lpc922
     0C:   000010A7  C$fb_lpc922.c$221$3$25             fb_lpc922
     0C:   000010A9  A$fb_lpc922$1195                   fb_lpc922
     0C:   000010AB  A$fb_lpc922$1196                   fb_lpc922
     0C:   000010AD  A$fb_lpc922$1197                   fb_lpc922
     0C:   000010AF  A$fb_lpc922$1201                   fb_lpc922
     0C:   000010AF  C$fb_lpc922.c$222$3$25             fb_lpc922
     0C:   000010B2  A$fb_lpc922$1204                   fb_lpc922
     0C:   000010B2  C$fb_lpc922.c$224$2$2              fb_lpc922
     0C:   000010B5  A$fb_lpc922$1210                   fb_lpc922
     0C:   000010B5  C$fb_lpc922.c$226$2$2              fb_lpc922
     0C:   000010B5  C$fb_lpc922.c$227$2$2              fb_lpc922
     0C:   000010B7  A$fb_lpc922$1213                   fb_lpc922
     0C:   000010B7  C$fb_lpc922.c$228$2$2              fb_lpc922
     0C:   000010B9  A$fb_lpc922$1214                   fb_lpc922
     0C:   000010BC  A$fb_lpc922$1217                   fb_lpc922
     0C:   000010BC  C$fb_lpc922.c$229$3$26             fb_lpc922
     0C:   000010BF  A$fb_lpc922$1220                   fb_lpc922
     0C:   000010BF  C$fb_lpc922.c$230$4$27             fb_lpc922
     0C:   000010C1  A$fb_lpc922$1223                   fb_lpc922
     0C:   000010C1  C$fb_lpc922.c$231$4$27             fb_lpc922
     0C:   000010C4  A$fb_lpc922$1226                   fb_lpc922
     0C:   000010C4  C$fb_lpc922.c$232$4$27             fb_lpc922
     0C:   000010C6  A$fb_lpc922$1227                   fb_lpc922
     0C:   000010C9  A$fb_lpc922$1231                   fb_lpc922
     0C:   000010C9  C$fb_lpc922.c$234$3$26             fb_lpc922
     0C:   000010CC  A$fb_lpc922$1232                   fb_lpc922
     0C:   000010CF  A$fb_lpc922$1236                   fb_lpc922
     0C:   000010CF  C$fb_lpc922.c$237$3$28             fb_lpc922
     0C:   000010D1  A$fb_lpc922$1239                   fb_lpc922
     0C:   000010D1  C$fb_lpc922.c$238$3$28             fb_lpc922
     0C:   000010D4  A$fb_lpc922$1242                   fb_lpc922
     0C:   000010D4  C$fb_lpc922.c$239$3$28             fb_lpc922
ASxxxx Linker V02.00 + NoICE + sdld,  page 78.
Hexadecimal  [32-Bits]

Area                                    Addr        Size        Decimal Bytes (Attributes)
--------------------------------        ----        ----        ------- ----- ------------
CSEG                                0000007F    00001793 =        6035. bytes (REL,CON,CODE)

      Value  Global                              Global Defined In Module
      -----  --------------------------------   ------------------------
     0C:   000010D6  A$fb_lpc922$1245                   fb_lpc922
     0C:   000010D6  C$fb_lpc922.c$241$2$2              fb_lpc922
     0C:   000010D9  A$fb_lpc922$1251                   fb_lpc922
     0C:   000010D9  C$fb_lpc922.c$245$2$2              fb_lpc922
     0C:   000010D9  C$fb_lpc922.c$246$2$2              fb_lpc922
     0C:   000010DB  A$fb_lpc922$1252                   fb_lpc922
     0C:   000010DD  A$fb_lpc922$1253                   fb_lpc922
     0C:   000010DE  A$fb_lpc922$1254                   fb_lpc922
     0C:   000010E0  A$fb_lpc922$1257                   fb_lpc922
     0C:   000010E0  C$fb_lpc922.c$247$2$2              fb_lpc922
     0C:   000010E3  A$fb_lpc922$1258                   fb_lpc922
     0C:   000010E5  A$fb_lpc922$1262                   fb_lpc922
     0C:   000010E5  C$fb_lpc922.c$248$2$2              fb_lpc922
     0C:   000010E8  A$fb_lpc922$1263                   fb_lpc922
     0C:   000010EA  A$fb_lpc922$1267                   fb_lpc922
     0C:   000010EA  C$fb_lpc922.c$249$2$2              fb_lpc922
     0C:   000010EC  A$fb_lpc922$1270                   fb_lpc922
     0C:   000010EC  C$fb_lpc922.c$250$2$2              fb_lpc922
     0C:   000010EE  A$fb_lpc922$1271                   fb_lpc922
     0C:   000010F1  A$fb_lpc922$1272                   fb_lpc922
     0C:   000010F3  A$fb_lpc922$1274                   fb_lpc922
     0C:   000010F6  A$fb_lpc922$1278                   fb_lpc922
     0C:   000010F6  C$fb_lpc922.c$251$3$29             fb_lpc922
     0C:   000010F8  A$fb_lpc922$1279                   fb_lpc922
     0C:   000010FA  A$fb_lpc922$1280                   fb_lpc922
     0C:   000010FC  A$fb_lpc922$1283                   fb_lpc922
     0C:   000010FC  C$fb_lpc922.c$252$4$30             fb_lpc922
     0C:   000010FE  A$fb_lpc922$1284                   fb_lpc922
     0C:   000010FF  A$fb_lpc922$1285                   fb_lpc922
     0C:   00001101  A$fb_lpc922$1288                   fb_lpc922
     0C:   00001101  C$fb_lpc922.c$254$5$31             fb_lpc922
     0C:   00001103  A$fb_lpc922$1291                   fb_lpc922
     0C:   00001103  C$fb_lpc922.c$256$5$31             fb_lpc922
     0C:   00001105  A$fb_lpc922$1294                   fb_lpc922
     0C:   00001105  C$fb_lpc922.c$257$5$31             fb_lpc922
     0C:   00001107  A$fb_lpc922$1295                   fb_lpc922
     0C:   00001109  A$fb_lpc922$1299                   fb_lpc922
     0C:   00001109  C$fb_lpc922.c$259$4$30             fb_lpc922
     0C:   0000110B  A$fb_lpc922$1303                   fb_lpc922
     0C:   0000110B  C$fb_lpc922.c$260$4$30             fb_lpc922
     0C:   0000110D  A$fb_lpc922$1304                   fb_lpc922
     0C:   0000110F  A$fb_lpc922$1307                   fb_lpc922
     0C:   0000110F  C$fb_lpc922.c$261$5$32             fb_lpc922
     0C:   00001112  A$fb_lpc922$1310                   fb_lpc922
     0C:   00001112  C$fb_lpc922.c$262$5$32             fb_lpc922
     0C:   00001114  A$fb_lpc922$1311                   fb_lpc922
     0C:   00001116  A$fb_lpc922$1315                   fb_lpc922
     0C:   00001116  C$fb_lpc922.c$264$4$30             fb_lpc922
     0C:   00001118  A$fb_lpc922$1316                   fb_lpc922
     0C:   0000111A  A$fb_lpc922$1317                   fb_lpc922
     0C:   0000111C  A$fb_lpc922$1321                   fb_lpc922
ASxxxx Linker V02.00 + NoICE + sdld,  page 79.
Hexadecimal  [32-Bits]

Area                                    Addr        Size        Decimal Bytes (Attributes)
--------------------------------        ----        ----        ------- ----- ------------
CSEG                                0000007F    00001793 =        6035. bytes (REL,CON,CODE)

      Value  Global                              Global Defined In Module
      -----  --------------------------------   ------------------------
     0C:   0000111C  C$fb_lpc922.c$265$4$30             fb_lpc922
     0C:   0000111E  A$fb_lpc922$1322                   fb_lpc922
     0C:   00001120  A$fb_lpc922$1323                   fb_lpc922
     0C:   00001123  A$fb_lpc922$1327                   fb_lpc922
     0C:   00001123  C$fb_lpc922.c$266$4$30             fb_lpc922
     0C:   00001126  A$fb_lpc922$1328                   fb_lpc922
     0C:   00001128  A$fb_lpc922$1332                   fb_lpc922
     0C:   00001128  C$fb_lpc922.c$269$4$33             fb_lpc922
     0C:   0000112B  A$fb_lpc922$1335                   fb_lpc922
     0C:   0000112B  C$fb_lpc922.c$270$5$34             fb_lpc922
     0C:   0000112D  A$fb_lpc922$1338                   fb_lpc922
     0C:   0000112D  C$fb_lpc922.c$271$5$34             fb_lpc922
     0C:   0000112F  A$fb_lpc922$1339                   fb_lpc922
     0C:   00001131  A$fb_lpc922$1343                   fb_lpc922
     0C:   00001131  C$fb_lpc922.c$273$4$33             fb_lpc922
     0C:   00001133  A$fb_lpc922$1347                   fb_lpc922
     0C:   00001133  C$fb_lpc922.c$274$4$33             fb_lpc922
     0C:   00001135  A$fb_lpc922$1350                   fb_lpc922
     0C:   00001135  C$fb_lpc922.c$275$4$33             fb_lpc922
     0C:   00001138  A$fb_lpc922$1353                   fb_lpc922
     0C:   00001138  C$fb_lpc922.c$276$4$33             fb_lpc922
     0C:   0000113B  A$fb_lpc922$1357                   fb_lpc922
     0C:   0000113B  C$fb_lpc922.c$278$3$29             fb_lpc922
     0C:   0000113E  A$fb_lpc922$1360                   fb_lpc922
     0C:   0000113E  C$fb_lpc922.c$280$2$2              fb_lpc922
     0C:   00001141  A$fb_lpc922$1366                   fb_lpc922
     0C:   00001141  C$fb_lpc922.c$282$2$2              fb_lpc922
     0C:   00001141  C$fb_lpc922.c$283$2$2              fb_lpc922
     0C:   00001143  A$fb_lpc922$1367                   fb_lpc922
     0C:   00001145  A$fb_lpc922$1368                   fb_lpc922
     0C:   00001147  A$fb_lpc922$1369                   fb_lpc922
     0C:   0000114A  A$fb_lpc922$1372                   fb_lpc922
     0C:   0000114A  C$fb_lpc922.c$284$3$35             fb_lpc922
     0C:   0000114C  A$fb_lpc922$1376                   fb_lpc922
     0C:   0000114C  C$fb_lpc922.c$286$2$2              fb_lpc922
     0C:   0000114E  A$fb_lpc922$1379                   fb_lpc922
     0C:   0000114E  C$fb_lpc922.c$287$2$2              fb_lpc922
     0C:   00001150  A$fb_lpc922$1380                   fb_lpc922
     0C:   00001152  A$fb_lpc922$1381                   fb_lpc922
     0C:   00001154  A$fb_lpc922$1384                   fb_lpc922
     0C:   00001154  C$fb_lpc922.c$288$3$36             fb_lpc922
     0C:   00001156  A$fb_lpc922$1387                   fb_lpc922
     0C:   00001156  C$fb_lpc922.c$289$3$36             fb_lpc922
     0C:   00001159  A$fb_lpc922$1388                   fb_lpc922
     0C:   0000115B  A$fb_lpc922$1392                   fb_lpc922
     0C:   0000115B  C$fb_lpc922.c$292$3$37             fb_lpc922
     0C:   0000115E  A$fb_lpc922$1395                   fb_lpc922
     0C:   0000115E  C$fb_lpc922.c$293$3$37             fb_lpc922
     0C:   00001161  A$fb_lpc922$1399                   fb_lpc922
     0C:   00001161  C$fb_lpc922.c$295$2$2              fb_lpc922
     0C:   00001163  A$fb_lpc922$1404                   fb_lpc922
ASxxxx Linker V02.00 + NoICE + sdld,  page 80.
Hexadecimal  [32-Bits]

Area                                    Addr        Size        Decimal Bytes (Attributes)
--------------------------------        ----        ----        ------- ----- ------------
CSEG                                0000007F    00001793 =        6035. bytes (REL,CON,CODE)

      Value  Global                              Global Defined In Module
      -----  --------------------------------   ------------------------
     0C:   00001163  C$fb_lpc922.c$296$2$2              fb_lpc922
     0C:   00001163  C$fb_lpc922.c$302$2$2              fb_lpc922
     0C:   00001165  A$fb_lpc922$1408                   fb_lpc922
     0C:   00001165  C$fb_lpc922.c$303$2$2              fb_lpc922
     0C:   00001167  A$fb_lpc922$1411                   fb_lpc922
     0C:   00001167  C$fb_lpc922.c$304$2$2              fb_lpc922
     0C:   00001169  A$fb_lpc922$1414                   fb_lpc922
     0C:   00001169  C$fb_lpc922.c$305$2$2              fb_lpc922
     0C:   0000116B  A$fb_lpc922$1415                   fb_lpc922
     0C:   0000116D  A$fb_lpc922$1416                   fb_lpc922
     0C:   0000116F  A$fb_lpc922$1417                   fb_lpc922
     0C:   00001171  A$fb_lpc922$1420                   fb_lpc922
     0C:   00001171  C$fb_lpc922.c$306$2$2              fb_lpc922
     0C:   00001174  A$fb_lpc922$1423                   fb_lpc922
     0C:   00001174  C$fb_lpc922.c$307$2$2              fb_lpc922
     0C:   00001177  A$fb_lpc922$1426                   fb_lpc922
     0C:   00001177  C$fb_lpc922.c$308$2$2              fb_lpc922
     0C:   00001179  A$fb_lpc922$1429                   fb_lpc922
     0C:   00001179  C$fb_lpc922.c$309$2$2              fb_lpc922
     0C:   0000117C  A$fb_lpc922$1430                   fb_lpc922
     0C:   0000117F  A$fb_lpc922$1434                   fb_lpc922
     0C:   0000117F  C$fb_lpc922.c$310$3$38             fb_lpc922
     0C:   00001182  A$fb_lpc922$1435                   fb_lpc922
     0C:   00001184  A$fb_lpc922$1439                   fb_lpc922
     0C:   00001184  C$fb_lpc922.c$313$3$39             fb_lpc922
     0C:   00001186  A$fb_lpc922$1440                   fb_lpc922
     0C:   00001188  A$fb_lpc922$1441                   fb_lpc922
     0C:   00001189  A$fb_lpc922$1442                   fb_lpc922
     0C:   0000118B  A$fb_lpc922$1443                   fb_lpc922
     0C:   0000118D  A$fb_lpc922$1444                   fb_lpc922
     0C:   0000118E  A$fb_lpc922$1445                   fb_lpc922
     0C:   0000118F  A$fb_lpc922$1446                   fb_lpc922
     0C:   00001190  A$fb_lpc922$1447                   fb_lpc922
     0C:   00001191  A$fb_lpc922$1448                   fb_lpc922
     0C:   00001192  A$fb_lpc922$1449                   fb_lpc922
     0C:   00001194  A$fb_lpc922$1450                   fb_lpc922
     0C:   00001196  A$fb_lpc922$1451                   fb_lpc922
     0C:   00001197  A$fb_lpc922$1452                   fb_lpc922
     0C:   00001198  A$fb_lpc922$1453                   fb_lpc922
     0C:   00001199  A$fb_lpc922$1454                   fb_lpc922
     0C:   0000119A  A$fb_lpc922$1455                   fb_lpc922
     0C:   0000119C  A$fb_lpc922$1456                   fb_lpc922
     0C:   0000119E  A$fb_lpc922$1457                   fb_lpc922
     0C:   000011A1  A$fb_lpc922$1458                   fb_lpc922
     0C:   000011A3  A$fb_lpc922$1459                   fb_lpc922
     0C:   000011A5  A$fb_lpc922$1462                   fb_lpc922
     0C:   000011A5  C$fb_lpc922.c$314$4$40             fb_lpc922
     0C:   000011A7  A$fb_lpc922$1465                   fb_lpc922
     0C:   000011A7  C$fb_lpc922.c$315$4$40             fb_lpc922
     0C:   000011AA  A$fb_lpc922$1466                   fb_lpc922
     0C:   000011AC  A$fb_lpc922$1470                   fb_lpc922
ASxxxx Linker V02.00 + NoICE + sdld,  page 81.
Hexadecimal  [32-Bits]

Area                                    Addr        Size        Decimal Bytes (Attributes)
--------------------------------        ----        ----        ------- ----- ------------
CSEG                                0000007F    00001793 =        6035. bytes (REL,CON,CODE)

      Value  Global                              Global Defined In Module
      -----  --------------------------------   ------------------------
     0C:   000011AC  C$fb_lpc922.c$317$3$39             fb_lpc922
     0C:   000011AF  A$fb_lpc922$1474                   fb_lpc922
     0C:   000011AF  C$fb_lpc922.c$319$2$2              fb_lpc922
     0C:   000011B1  A$fb_lpc922$1479                   fb_lpc922
     0C:   000011B1  C$fb_lpc922.c$320$2$2              fb_lpc922
     0C:   000011B1  C$fb_lpc922.c$322$2$2              fb_lpc922
     0C:   000011B3  A$fb_lpc922$1483                   fb_lpc922
     0C:   000011B3  C$fb_lpc922.c$323$2$2              fb_lpc922
     0C:   000011B5  A$fb_lpc922$1486                   fb_lpc922
     0C:   000011B5  C$fb_lpc922.c$324$2$2              fb_lpc922
     0C:   000011B7  A$fb_lpc922$1487                   fb_lpc922
     0C:   000011B9  A$fb_lpc922$1488                   fb_lpc922
     0C:   000011BB  A$fb_lpc922$1489                   fb_lpc922
     0C:   000011BD  A$fb_lpc922$1492                   fb_lpc922
     0C:   000011BD  C$fb_lpc922.c$325$2$2              fb_lpc922
     0C:   000011C0  A$fb_lpc922$1495                   fb_lpc922
     0C:   000011C0  C$fb_lpc922.c$326$2$2              fb_lpc922
     0C:   000011C3  A$fb_lpc922$1498                   fb_lpc922
     0C:   000011C3  C$fb_lpc922.c$327$2$2              fb_lpc922
     0C:   000011C5  A$fb_lpc922$1501                   fb_lpc922
     0C:   000011C5  C$fb_lpc922.c$328$2$2              fb_lpc922
     0C:   000011C7  A$fb_lpc922$1504                   fb_lpc922
     0C:   000011C7  C$fb_lpc922.c$329$2$2              fb_lpc922
     0C:   000011CA  A$fb_lpc922$1510                   fb_lpc922
     0C:   000011CA  C$fb_lpc922.c$334$1$1              fb_lpc922
     0C:   000011CA  C$fb_lpc922.c$335$1$1              fb_lpc922
     0C:   000011CC  A$fb_lpc922$1511                   fb_lpc922
     0C:   000011CE  A$fb_lpc922$1512                   fb_lpc922
     0C:   000011D0  A$fb_lpc922$1513                   fb_lpc922
     0C:   000011D2  A$fb_lpc922$1514                   fb_lpc922
     0C:   000011D4  A$fb_lpc922$1515                   fb_lpc922
     0C:   000011D6  A$fb_lpc922$1516                   fb_lpc922
     0C:   000011D8  A$fb_lpc922$1517                   fb_lpc922
     0C:   000011DA  A$fb_lpc922$1518                   fb_lpc922
     0C:   000011DC  A$fb_lpc922$1519                   fb_lpc922
     0C:   000011DE  A$fb_lpc922$1520                   fb_lpc922
     0C:   000011E0  A$fb_lpc922$1521                   fb_lpc922
     0C:   000011E2  A$fb_lpc922$1522                   fb_lpc922
     0C:   000011E4  A$fb_lpc922$1523                   fb_lpc922
     0C:   000011E6  A$fb_lpc922$1524                   fb_lpc922
     0C:   000011E8  A$fb_lpc922$1527                   fb_lpc922
     0C:   000011E8  C$fb_lpc922.c$336$1$1              fb_lpc922
     0C:   000011E8  XG$T1_int$0$0                      fb_lpc922
     0C:   000011E9  A$fb_lpc922$1540                   fb_lpc922
     0C:   000011E9  C$fb_lpc922.c$339$1$1              fb_lpc922
     0C:   000011E9  C$fb_lpc922.c$341$1$1              fb_lpc922
     0C:   000011E9  G$init_rx$0$0                      fb_lpc922
     0C:   000011E9  _init_rx                           fb_lpc922
     0C:   000011EC  A$fb_lpc922$1543                   fb_lpc922
     0C:   000011EC  C$fb_lpc922.c$342$1$1              fb_lpc922
     0C:   000011EE  A$fb_lpc922$1546                   fb_lpc922
ASxxxx Linker V02.00 + NoICE + sdld,  page 82.
Hexadecimal  [32-Bits]

Area                                    Addr        Size        Decimal Bytes (Attributes)
--------------------------------        ----        ----        ------- ----- ------------
CSEG                                0000007F    00001793 =        6035. bytes (REL,CON,CODE)

      Value  Global                              Global Defined In Module
      -----  --------------------------------   ------------------------
     0C:   000011EE  C$fb_lpc922.c$343$1$1              fb_lpc922
     0C:   000011F0  A$fb_lpc922$1549                   fb_lpc922
     0C:   000011F0  C$fb_lpc922.c$344$1$1              fb_lpc922
     0C:   000011F2  A$fb_lpc922$1552                   fb_lpc922
     0C:   000011F2  C$fb_lpc922.c$345$1$1              fb_lpc922
     0C:   000011F5  A$fb_lpc922$1555                   fb_lpc922
     0C:   000011F5  C$fb_lpc922.c$346$1$1              fb_lpc922
     0C:   000011F8  A$fb_lpc922$1558                   fb_lpc922
     0C:   000011F8  C$fb_lpc922.c$347$1$1              fb_lpc922
     0C:   000011FA  A$fb_lpc922$1561                   fb_lpc922
     0C:   000011FA  C$fb_lpc922.c$348$1$1              fb_lpc922
     0C:   000011FC  A$fb_lpc922$1562                   fb_lpc922
     0C:   000011FE  A$fb_lpc922$1563                   fb_lpc922
     0C:   00001200  A$fb_lpc922$1564                   fb_lpc922
     0C:   00001202  A$fb_lpc922$1567                   fb_lpc922
     0C:   00001202  C$fb_lpc922.c$349$1$1              fb_lpc922
     0C:   00001205  A$fb_lpc922$1570                   fb_lpc922
     0C:   00001205  C$fb_lpc922.c$350$1$1              fb_lpc922
     0C:   00001208  A$fb_lpc922$1573                   fb_lpc922
     0C:   00001208  C$fb_lpc922.c$351$1$1              fb_lpc922
     0C:   0000120A  A$fb_lpc922$1576                   fb_lpc922
     0C:   0000120A  C$fb_lpc922.c$352$1$1              fb_lpc922
     0C:   0000120C  A$fb_lpc922$1579                   fb_lpc922
     0C:   0000120C  C$fb_lpc922.c$353$1$1              fb_lpc922
     0C:   0000120E  A$fb_lpc922$1582                   fb_lpc922
     0C:   0000120E  C$fb_lpc922.c$354$1$1              fb_lpc922
     0C:   00001210  A$fb_lpc922$1585                   fb_lpc922
     0C:   00001210  C$fb_lpc922.c$355$1$1              fb_lpc922
     0C:   00001212  A$fb_lpc922$1588                   fb_lpc922
     0C:   00001212  C$fb_lpc922.c$356$1$1              fb_lpc922
     0C:   00001214  A$fb_lpc922$1591                   fb_lpc922
     0C:   00001214  C$fb_lpc922.c$357$1$1              fb_lpc922
     0C:   00001214  XG$init_rx$0$0                     fb_lpc922
     0C:   00001215  A$fb_lpc922$1607                   fb_lpc922
     0C:   00001215  C$fb_lpc922.c$360$1$1              fb_lpc922
     0C:   00001215  C$fb_lpc922.c$364$1$1              fb_lpc922
     0C:   00001215  G$init_tx$0$0                      fb_lpc922
     0C:   00001215  _init_tx                           fb_lpc922
     0C:   00001217  A$fb_lpc922$1610                   fb_lpc922
     0C:   00001217  C$fb_lpc922.c$365$1$1              fb_lpc922
     0C:   00001219  A$fb_lpc922$1611                   fb_lpc922
     0C:   0000121B  A$fb_lpc922$1612                   fb_lpc922
     0C:   0000121D  A$fb_lpc922$1613                   fb_lpc922
     0C:   0000121F  A$fb_lpc922$1616                   fb_lpc922
     0C:   0000121F  C$fb_lpc922.c$366$1$1              fb_lpc922
     0C:   00001222  A$fb_lpc922$1619                   fb_lpc922
     0C:   00001222  C$fb_lpc922.c$367$1$1              fb_lpc922
     0C:   00001225  A$fb_lpc922$1622                   fb_lpc922
     0C:   00001225  C$fb_lpc922.c$368$1$1              fb_lpc922
     0C:   00001227  A$fb_lpc922$1625                   fb_lpc922
     0C:   00001227  C$fb_lpc922.c$370$1$1              fb_lpc922
ASxxxx Linker V02.00 + NoICE + sdld,  page 83.
Hexadecimal  [32-Bits]

Area                                    Addr        Size        Decimal Bytes (Attributes)
--------------------------------        ----        ----        ------- ----- ------------
CSEG                                0000007F    00001793 =        6035. bytes (REL,CON,CODE)

      Value  Global                              Global Defined In Module
      -----  --------------------------------   ------------------------
     0C:   00001229  A$fb_lpc922$1626                   fb_lpc922
     0C:   0000122B  A$fb_lpc922$1627                   fb_lpc922
     0C:   0000122D  A$fb_lpc922$1628                   fb_lpc922
     0C:   0000122E  A$fb_lpc922$1631                   fb_lpc922
     0C:   0000122E  C$fb_lpc922.c$371$1$1              fb_lpc922
     0C:   00001231  A$fb_lpc922$1634                   fb_lpc922
     0C:   00001233  A$fb_lpc922$1636                   fb_lpc922
     0C:   00001234  A$fb_lpc922$1637                   fb_lpc922
     0C:   00001235  A$fb_lpc922$1638                   fb_lpc922
     0C:   00001236  A$fb_lpc922$1639                   fb_lpc922
     0C:   00001238  A$fb_lpc922$1642                   fb_lpc922
     0C:   00001238  C$fb_lpc922.c$373$2$2              fb_lpc922
     0C:   00001239  A$fb_lpc922$1643                   fb_lpc922
     0C:   0000123B  A$fb_lpc922$1644                   fb_lpc922
     0C:   0000123C  A$fb_lpc922$1645                   fb_lpc922
     0C:   0000123D  A$fb_lpc922$1646                   fb_lpc922
     0C:   0000123E  A$fb_lpc922$1647                   fb_lpc922
     0C:   00001240  A$fb_lpc922$1650                   fb_lpc922
     0C:   00001240  C$fb_lpc922.c$372$1$1              fb_lpc922
     0C:   00001241  A$fb_lpc922$1651                   fb_lpc922
     0C:   00001243  A$fb_lpc922$1655                   fb_lpc922
     0C:   00001243  C$fb_lpc922.c$375$1$1              fb_lpc922
     0C:   00001244  A$fb_lpc922$1656                   fb_lpc922
     0C:   00001246  A$fb_lpc922$1657                   fb_lpc922
     0C:   00001247  A$fb_lpc922$1658                   fb_lpc922
     0C:   00001249  A$fb_lpc922$1661                   fb_lpc922
     0C:   00001249  C$fb_lpc922.c$376$1$1              fb_lpc922
     0C:   0000124B  A$fb_lpc922$1664                   fb_lpc922
     0C:   0000124B  C$fb_lpc922.c$377$1$1              fb_lpc922
     0C:   0000124D  A$fb_lpc922$1667                   fb_lpc922
     0C:   0000124D  C$fb_lpc922.c$378$1$1              fb_lpc922
     0C:   0000124F  A$fb_lpc922$1670                   fb_lpc922
     0C:   0000124F  C$fb_lpc922.c$380$1$1              fb_lpc922
     0C:   00001252  A$fb_lpc922$1673                   fb_lpc922
     0C:   00001252  C$fb_lpc922.c$381$1$1              fb_lpc922
     0C:   00001255  A$fb_lpc922$1676                   fb_lpc922
     0C:   00001255  C$fb_lpc922.c$382$1$1              fb_lpc922
     0C:   00001258  A$fb_lpc922$1679                   fb_lpc922
     0C:   00001258  C$fb_lpc922.c$383$1$1              fb_lpc922
     0C:   0000125A  A$fb_lpc922$1682                   fb_lpc922
     0C:   0000125A  C$fb_lpc922.c$384$1$1              fb_lpc922
     0C:   0000125C  A$fb_lpc922$1685                   fb_lpc922
     0C:   0000125C  C$fb_lpc922.c$385$1$1              fb_lpc922
     0C:   0000125E  A$fb_lpc922$1688                   fb_lpc922
     0C:   0000125E  C$fb_lpc922.c$386$1$1              fb_lpc922
     0C:   0000125E  XG$init_tx$0$0                     fb_lpc922
     0C:   0000125F  A$fb_lpc922$1704                   fb_lpc922
     0C:   0000125F  C$fb_lpc922.c$393$1$1              fb_lpc922
     0C:   0000125F  G$gapos_in_gat$0$0                 fb_lpc922
     0C:   0000125F  _gapos_in_gat                      fb_lpc922
     0C:   00001261  A$fb_lpc922$1705                   fb_lpc922
ASxxxx Linker V02.00 + NoICE + sdld,  page 84.
Hexadecimal  [32-Bits]

Area                                    Addr        Size        Decimal Bytes (Attributes)
--------------------------------        ----        ----        ------- ----- ------------
CSEG                                0000007F    00001793 =        6035. bytes (REL,CON,CODE)

      Value  Global                              Global Defined In Module
      -----  --------------------------------   ------------------------
     0C:   00001264  A$fb_lpc922$1706                   fb_lpc922
     0C:   00001266  A$fb_lpc922$1709                   fb_lpc922
     0C:   00001266  C$fb_lpc922.c$397$1$1              fb_lpc922
     0C:   00001268  A$fb_lpc922$1712                   fb_lpc922
     0C:   00001268  C$fb_lpc922.c$398$1$1              fb_lpc922
     0C:   0000126B  A$fb_lpc922$1713                   fb_lpc922
     0C:   0000126C  A$fb_lpc922$1714                   fb_lpc922
     0C:   0000126D  A$fb_lpc922$1715                   fb_lpc922
     0C:   0000126E  A$fb_lpc922$1716                   fb_lpc922
     0C:   00001271  A$fb_lpc922$1718                   fb_lpc922
     0C:   00001273  A$fb_lpc922$1719                   fb_lpc922
     0C:   00001276  A$fb_lpc922$1722                   fb_lpc922
     0C:   00001276  C$fb_lpc922.c$399$2$2              fb_lpc922
     0C:   00001279  A$fb_lpc922$1723                   fb_lpc922
     0C:   0000127A  A$fb_lpc922$1724                   fb_lpc922
     0C:   0000127B  A$fb_lpc922$1725                   fb_lpc922
     0C:   0000127D  A$fb_lpc922$1728                   fb_lpc922
     0C:   0000127D  C$fb_lpc922.c$400$1$1              fb_lpc922
     0C:   0000127F  A$fb_lpc922$1730                   fb_lpc922
     0C:   00001282  A$fb_lpc922$1731                   fb_lpc922
     0C:   00001283  A$fb_lpc922$1732                   fb_lpc922
     0C:   00001284  A$fb_lpc922$1733                   fb_lpc922
     0C:   00001285  A$fb_lpc922$1734                   fb_lpc922
     0C:   00001286  A$fb_lpc922$1735                   fb_lpc922
     0C:   00001287  A$fb_lpc922$1736                   fb_lpc922
     0C:   00001288  A$fb_lpc922$1737                   fb_lpc922
     0C:   0000128A  A$fb_lpc922$1740                   fb_lpc922
     0C:   0000128A  C$fb_lpc922.c$401$4$4              fb_lpc922
     0C:   0000128B  A$fb_lpc922$1741                   fb_lpc922
     0C:   0000128C  A$fb_lpc922$1742                   fb_lpc922
     0C:   0000128D  A$fb_lpc922$1743                   fb_lpc922
     0C:   0000128F  A$fb_lpc922$1744                   fb_lpc922
     0C:   00001292  A$fb_lpc922$1745                   fb_lpc922
     0C:   00001293  A$fb_lpc922$1746                   fb_lpc922
     0C:   00001294  A$fb_lpc922$1747                   fb_lpc922
     0C:   00001295  A$fb_lpc922$1748                   fb_lpc922
     0C:   00001298  A$fb_lpc922$1749                   fb_lpc922
     0C:   0000129A  A$fb_lpc922$1750                   fb_lpc922
     0C:   0000129B  A$fb_lpc922$1751                   fb_lpc922
     0C:   0000129E  A$fb_lpc922$1752                   fb_lpc922
     0C:   0000129F  A$fb_lpc922$1753                   fb_lpc922
     0C:   000012A0  A$fb_lpc922$1754                   fb_lpc922
     0C:   000012A2  A$fb_lpc922$1755                   fb_lpc922
     0C:   000012A4  A$fb_lpc922$1756                   fb_lpc922
     0C:   000012A5  A$fb_lpc922$1757                   fb_lpc922
     0C:   000012A6  A$fb_lpc922$1758                   fb_lpc922
     0C:   000012A9  A$fb_lpc922$1761                   fb_lpc922
     0C:   000012A9  C$fb_lpc922.c$402$4$4              fb_lpc922
     0C:   000012AB  A$fb_lpc922$1765                   fb_lpc922
     0C:   000012AB  C$fb_lpc922.c$400$3$3              fb_lpc922
     0C:   000012AC  A$fb_lpc922$1766                   fb_lpc922
ASxxxx Linker V02.00 + NoICE + sdld,  page 85.
Hexadecimal  [32-Bits]

Area                                    Addr        Size        Decimal Bytes (Attributes)
--------------------------------        ----        ----        ------- ----- ------------
CSEG                                0000007F    00001793 =        6035. bytes (REL,CON,CODE)

      Value  Global                              Global Defined In Module
      -----  --------------------------------   ------------------------
     0C:   000012AE  A$fb_lpc922$1770                   fb_lpc922
     0C:   000012AE  C$fb_lpc922.c$406$1$1              fb_lpc922
     0C:   000012B0  A$fb_lpc922$1771                   fb_lpc922
     0C:   000012B2  A$fb_lpc922$1774                   fb_lpc922
     0C:   000012B2  C$fb_lpc922.c$407$1$1              fb_lpc922
     0C:   000012B2  XG$gapos_in_gat$0$0                fb_lpc922
     0C:   000012B3  A$fb_lpc922$1795                   fb_lpc922
     0C:   000012B3  C$fb_lpc922.c$412$1$1              fb_lpc922
     0C:   000012B3  G$build_tel$0$0                    fb_lpc922
     0C:   000012B3  _build_tel                         fb_lpc922
     0C:   000012B5  A$fb_lpc922$1796                   fb_lpc922
     0C:   000012B7  A$fb_lpc922$1797                   fb_lpc922
     0C:   000012B9  A$fb_lpc922$1798                   fb_lpc922
     0C:   000012BB  A$fb_lpc922$1799                   fb_lpc922
     0C:   000012BD  A$fb_lpc922$1800                   fb_lpc922
     0C:   000012BF  A$fb_lpc922$1803                   fb_lpc922
     0C:   000012BF  C$fb_lpc922.c$414$1$1              fb_lpc922
     0C:   000012C1  A$fb_lpc922$1806                   fb_lpc922
     0C:   000012C1  C$fb_lpc922.c$421$1$1              fb_lpc922
     0C:   000012C2  A$fb_lpc922$1807                   fb_lpc922
     0C:   000012C4  A$fb_lpc922$1808                   fb_lpc922
     0C:   000012C5  A$fb_lpc922$1809                   fb_lpc922
     0C:   000012C6  A$fb_lpc922$1810                   fb_lpc922
     0C:   000012C7  A$fb_lpc922$1811                   fb_lpc922
     0C:   000012C9  A$fb_lpc922$1812                   fb_lpc922
     0C:   000012CB  A$fb_lpc922$1815                   fb_lpc922
     0C:   000012CB  C$fb_lpc922.c$423$1$1              fb_lpc922
     0C:   000012CE  A$fb_lpc922$1817                   fb_lpc922
     0C:   000012D0  A$fb_lpc922$1818                   fb_lpc922
     0C:   000012D3  A$fb_lpc922$1822                   fb_lpc922
     0C:   000012D3  C$fb_lpc922.c$424$2$2              fb_lpc922
     0C:   000012D4  A$fb_lpc922$1823                   fb_lpc922
     0C:   000012D5  A$fb_lpc922$1824                   fb_lpc922
     0C:   000012D6  A$fb_lpc922$1825                   fb_lpc922
     0C:   000012D8  A$fb_lpc922$1826                   fb_lpc922
     0C:   000012DA  A$fb_lpc922$1827                   fb_lpc922
     0C:   000012DC  A$fb_lpc922$1830                   fb_lpc922
     0C:   000012DC  C$fb_lpc922.c$425$2$2              fb_lpc922
     0C:   000012DF  A$fb_lpc922$1833                   fb_lpc922
     0C:   000012DF  C$fb_lpc922.c$427$2$2              fb_lpc922
     0C:   000012E1  A$fb_lpc922$1834                   fb_lpc922
     0C:   000012E3  A$fb_lpc922$1835                   fb_lpc922
     0C:   000012E5  A$fb_lpc922$1836                   fb_lpc922
     0C:   000012E8  A$fb_lpc922$1837                   fb_lpc922
     0C:   000012EA  A$fb_lpc922$1838                   fb_lpc922
     0C:   000012EC  A$fb_lpc922$1839                   fb_lpc922
     0C:   000012EE  A$fb_lpc922$1840                   fb_lpc922
     0C:   000012EF  A$fb_lpc922$1841                   fb_lpc922
     0C:   000012F1  A$fb_lpc922$1842                   fb_lpc922
     0C:   000012F3  A$fb_lpc922$1843                   fb_lpc922
     0C:   000012F5  A$fb_lpc922$1844                   fb_lpc922
ASxxxx Linker V02.00 + NoICE + sdld,  page 86.
Hexadecimal  [32-Bits]

Area                                    Addr        Size        Decimal Bytes (Attributes)
--------------------------------        ----        ----        ------- ----- ------------
CSEG                                0000007F    00001793 =        6035. bytes (REL,CON,CODE)

      Value  Global                              Global Defined In Module
      -----  --------------------------------   ------------------------
     0C:   000012F6  A$fb_lpc922$1845                   fb_lpc922
     0C:   000012F8  A$fb_lpc922$1846                   fb_lpc922
     0C:   000012F9  A$fb_lpc922$1847                   fb_lpc922
     0C:   000012FB  A$fb_lpc922$1848                   fb_lpc922
     0C:   000012FC  A$fb_lpc922$1849                   fb_lpc922
     0C:   000012FE  A$fb_lpc922$1850                   fb_lpc922
     0C:   000012FF  A$fb_lpc922$1851                   fb_lpc922
     0C:   00001301  A$fb_lpc922$1854                   fb_lpc922
     0C:   00001301  C$fb_lpc922.c$429$2$2              fb_lpc922
     0C:   00001303  A$fb_lpc922$1855                   fb_lpc922
     0C:   00001305  A$fb_lpc922$1856                   fb_lpc922
     0C:   00001307  A$fb_lpc922$1857                   fb_lpc922
     0C:   0000130A  A$fb_lpc922$1858                   fb_lpc922
     0C:   0000130C  A$fb_lpc922$1859                   fb_lpc922
     0C:   0000130E  A$fb_lpc922$1860                   fb_lpc922
     0C:   00001310  A$fb_lpc922$1861                   fb_lpc922
     0C:   00001312  A$fb_lpc922$1862                   fb_lpc922
     0C:   00001314  A$fb_lpc922$1865                   fb_lpc922
     0C:   00001314  C$fb_lpc922.c$430$2$2              fb_lpc922
     0C:   00001315  A$fb_lpc922$1866                   fb_lpc922
     0C:   00001316  A$fb_lpc922$1867                   fb_lpc922
     0C:   00001318  A$fb_lpc922$1868                   fb_lpc922
     0C:   0000131B  A$fb_lpc922$1872                   fb_lpc922
     0C:   0000131B  C$fb_lpc922.c$432$3$3              fb_lpc922
     0C:   0000131E  A$fb_lpc922$1875                   fb_lpc922
     0C:   0000131E  C$fb_lpc922.c$433$3$3              fb_lpc922
     0C:   00001321  A$fb_lpc922$1876                   fb_lpc922
     0C:   00001322  A$fb_lpc922$1877                   fb_lpc922
     0C:   00001323  A$fb_lpc922$1878                   fb_lpc922
     0C:   00001324  A$fb_lpc922$1879                   fb_lpc922
     0C:   00001326  A$fb_lpc922$1882                   fb_lpc922
     0C:   00001326  C$fb_lpc922.c$434$3$3              fb_lpc922
     0C:   00001329  A$fb_lpc922$1883                   fb_lpc922
     0C:   0000132A  A$fb_lpc922$1884                   fb_lpc922
     0C:   0000132B  A$fb_lpc922$1885                   fb_lpc922
     0C:   0000132C  A$fb_lpc922$1886                   fb_lpc922
     0C:   0000132E  A$fb_lpc922$1889                   fb_lpc922
     0C:   0000132E  C$fb_lpc922.c$435$3$3              fb_lpc922
     0C:   00001330  A$fb_lpc922$1890                   fb_lpc922
     0C:   00001332  A$fb_lpc922$1893                   fb_lpc922
     0C:   00001332  C$fb_lpc922.c$436$3$3              fb_lpc922
     0C:   00001334  A$fb_lpc922$1896                   fb_lpc922
     0C:   00001334  C$fb_lpc922.c$437$3$3              fb_lpc922
     0C:   00001337  A$fb_lpc922$1899                   fb_lpc922
     0C:   00001337  C$fb_lpc922.c$438$3$3              fb_lpc922
     0C:   0000133A  A$fb_lpc922$1900                   fb_lpc922
     0C:   0000133D  A$fb_lpc922$1901                   fb_lpc922
     0C:   0000133F  A$fb_lpc922$1905                   fb_lpc922
     0C:   0000133F  C$fb_lpc922.c$439$3$3              fb_lpc922
     0C:   00001342  A$fb_lpc922$1909                   fb_lpc922
     0C:   00001342  C$fb_lpc922.c$441$3$3              fb_lpc922
ASxxxx Linker V02.00 + NoICE + sdld,  page 87.
Hexadecimal  [32-Bits]

Area                                    Addr        Size        Decimal Bytes (Attributes)
--------------------------------        ----        ----        ------- ----- ------------
CSEG                                0000007F    00001793 =        6035. bytes (REL,CON,CODE)

      Value  Global                              Global Defined In Module
      -----  --------------------------------   ------------------------
     0C:   00001345  A$fb_lpc922$1910                   fb_lpc922
     0C:   00001346  A$fb_lpc922$1911                   fb_lpc922
     0C:   00001347  A$fb_lpc922$1912                   fb_lpc922
     0C:   00001348  A$fb_lpc922$1913                   fb_lpc922
     0C:   00001349  A$fb_lpc922$1914                   fb_lpc922
     0C:   0000134C  A$fb_lpc922$1915                   fb_lpc922
     0C:   0000134D  A$fb_lpc922$1916                   fb_lpc922
     0C:   0000134E  A$fb_lpc922$1917                   fb_lpc922
     0C:   00001350  A$fb_lpc922$1918                   fb_lpc922
     0C:   00001353  A$fb_lpc922$1919                   fb_lpc922
     0C:   00001354  A$fb_lpc922$1922                   fb_lpc922
     0C:   00001354  C$fb_lpc922.c$443$3$3              fb_lpc922
     0C:   00001355  A$fb_lpc922$1923                   fb_lpc922
     0C:   00001357  A$fb_lpc922$1924                   fb_lpc922
     0C:   00001359  A$fb_lpc922$1925                   fb_lpc922
     0C:   0000135A  A$fb_lpc922$1926                   fb_lpc922
     0C:   0000135C  A$fb_lpc922$1927                   fb_lpc922
     0C:   0000135D  A$fb_lpc922$1928                   fb_lpc922
     0C:   0000135F  A$fb_lpc922$1930                   fb_lpc922
     0C:   00001361  A$fb_lpc922$1934                   fb_lpc922
     0C:   00001361  C$fb_lpc922.c$444$3$3              fb_lpc922
     0C:   00001363  A$fb_lpc922$1935                   fb_lpc922
     0C:   00001364  A$fb_lpc922$1936                   fb_lpc922
     0C:   00001366  A$fb_lpc922$1939                   fb_lpc922
     0C:   00001366  C$fb_lpc922.c$445$3$3              fb_lpc922
     0C:   00001367  A$fb_lpc922$1940                   fb_lpc922
     0C:   00001369  A$fb_lpc922$1941                   fb_lpc922
     0C:   0000136B  A$fb_lpc922$1942                   fb_lpc922
     0C:   0000136D  A$fb_lpc922$1943                   fb_lpc922
     0C:   0000136E  A$fb_lpc922$1944                   fb_lpc922
     0C:   00001370  A$fb_lpc922$1945                   fb_lpc922
     0C:   00001371  A$fb_lpc922$1946                   fb_lpc922
     0C:   00001373  A$fb_lpc922$1947                   fb_lpc922
     0C:   00001374  A$fb_lpc922$1948                   fb_lpc922
     0C:   00001376  A$fb_lpc922$1949                   fb_lpc922
     0C:   00001378  A$fb_lpc922$1950                   fb_lpc922
     0C:   0000137A  A$fb_lpc922$1952                   fb_lpc922
     0C:   0000137C  A$fb_lpc922$1953                   fb_lpc922
     0C:   0000137D  A$fb_lpc922$1954                   fb_lpc922
     0C:   0000137F  A$fb_lpc922$1955                   fb_lpc922
     0C:   00001380  A$fb_lpc922$1956                   fb_lpc922
     0C:   00001381  A$fb_lpc922$1957                   fb_lpc922
     0C:   00001382  A$fb_lpc922$1958                   fb_lpc922
     0C:   00001383  A$fb_lpc922$1959                   fb_lpc922
     0C:   00001384  A$fb_lpc922$1960                   fb_lpc922
     0C:   00001385  A$fb_lpc922$1961                   fb_lpc922
     0C:   00001386  A$fb_lpc922$1962                   fb_lpc922
     0C:   00001388  A$fb_lpc922$1963                   fb_lpc922
     0C:   0000138A  A$fb_lpc922$1967                   fb_lpc922
     0C:   0000138A  C$fb_lpc922.c$446$3$3              fb_lpc922
     0C:   0000138B  A$fb_lpc922$1968                   fb_lpc922
ASxxxx Linker V02.00 + NoICE + sdld,  page 88.
Hexadecimal  [32-Bits]

Area                                    Addr        Size        Decimal Bytes (Attributes)
--------------------------------        ----        ----        ------- ----- ------------
CSEG                                0000007F    00001793 =        6035. bytes (REL,CON,CODE)

      Value  Global                              Global Defined In Module
      -----  --------------------------------   ------------------------
     0C:   0000138D  A$fb_lpc922$1969                   fb_lpc922
     0C:   0000138F  A$fb_lpc922$1970                   fb_lpc922
     0C:   00001391  A$fb_lpc922$1971                   fb_lpc922
     0C:   00001392  A$fb_lpc922$1972                   fb_lpc922
     0C:   00001394  A$fb_lpc922$1973                   fb_lpc922
     0C:   00001395  A$fb_lpc922$1974                   fb_lpc922
     0C:   00001397  A$fb_lpc922$1975                   fb_lpc922
     0C:   00001398  A$fb_lpc922$1976                   fb_lpc922
     0C:   00001399  A$fb_lpc922$1977                   fb_lpc922
     0C:   0000139B  A$fb_lpc922$1978                   fb_lpc922
     0C:   0000139D  A$fb_lpc922$1982                   fb_lpc922
     0C:   0000139D  C$fb_lpc922.c$447$3$3              fb_lpc922
     0C:   0000139E  A$fb_lpc922$1983                   fb_lpc922
     0C:   000013A0  A$fb_lpc922$1984                   fb_lpc922
     0C:   000013A2  A$fb_lpc922$1985                   fb_lpc922
     0C:   000013A4  A$fb_lpc922$1986                   fb_lpc922
     0C:   000013A5  A$fb_lpc922$1987                   fb_lpc922
     0C:   000013A7  A$fb_lpc922$1988                   fb_lpc922
     0C:   000013A8  A$fb_lpc922$1989                   fb_lpc922
     0C:   000013AA  A$fb_lpc922$1990                   fb_lpc922
     0C:   000013AB  A$fb_lpc922$1991                   fb_lpc922
     0C:   000013AC  A$fb_lpc922$1992                   fb_lpc922
     0C:   000013AD  A$fb_lpc922$1993                   fb_lpc922
     0C:   000013AF  A$fb_lpc922$1994                   fb_lpc922
     0C:   000013B1  A$fb_lpc922$1998                   fb_lpc922
     0C:   000013B1  C$fb_lpc922.c$448$3$3              fb_lpc922
     0C:   000013B2  A$fb_lpc922$1999                   fb_lpc922
     0C:   000013B4  A$fb_lpc922$2000                   fb_lpc922
     0C:   000013B6  A$fb_lpc922$2001                   fb_lpc922
     0C:   000013B8  A$fb_lpc922$2002                   fb_lpc922
     0C:   000013B9  A$fb_lpc922$2003                   fb_lpc922
     0C:   000013BB  A$fb_lpc922$2004                   fb_lpc922
     0C:   000013BC  A$fb_lpc922$2005                   fb_lpc922
     0C:   000013BE  A$fb_lpc922$2006                   fb_lpc922
     0C:   000013BF  A$fb_lpc922$2007                   fb_lpc922
     0C:   000013C0  A$fb_lpc922$2008                   fb_lpc922
     0C:   000013C1  A$fb_lpc922$2009                   fb_lpc922
     0C:   000013C2  A$fb_lpc922$2010                   fb_lpc922
     0C:   000013C4  A$fb_lpc922$2011                   fb_lpc922
     0C:   000013C6  A$fb_lpc922$2015                   fb_lpc922
     0C:   000013C6  C$fb_lpc922.c$450$3$3              fb_lpc922
     0C:   000013C8  A$fb_lpc922$2016                   fb_lpc922
     0C:   000013CB  A$fb_lpc922$2020                   fb_lpc922
     0C:   000013CB  C$fb_lpc922.c$454$2$4              fb_lpc922
     0C:   000013CE  A$fb_lpc922$2023                   fb_lpc922
     0C:   000013CE  C$fb_lpc922.c$455$2$4              fb_lpc922
     0C:   000013D1  A$fb_lpc922$2024                   fb_lpc922
     0C:   000013D2  A$fb_lpc922$2025                   fb_lpc922
     0C:   000013D3  A$fb_lpc922$2026                   fb_lpc922
     0C:   000013D4  A$fb_lpc922$2027                   fb_lpc922
     0C:   000013D6  A$fb_lpc922$2030                   fb_lpc922
ASxxxx Linker V02.00 + NoICE + sdld,  page 89.
Hexadecimal  [32-Bits]

Area                                    Addr        Size        Decimal Bytes (Attributes)
--------------------------------        ----        ----        ------- ----- ------------
CSEG                                0000007F    00001793 =        6035. bytes (REL,CON,CODE)

      Value  Global                              Global Defined In Module
      -----  --------------------------------   ------------------------
     0C:   000013D6  C$fb_lpc922.c$456$2$4              fb_lpc922
     0C:   000013D9  A$fb_lpc922$2031                   fb_lpc922
     0C:   000013DA  A$fb_lpc922$2032                   fb_lpc922
     0C:   000013DB  A$fb_lpc922$2033                   fb_lpc922
     0C:   000013DC  A$fb_lpc922$2034                   fb_lpc922
     0C:   000013DE  A$fb_lpc922$2037                   fb_lpc922
     0C:   000013DE  C$fb_lpc922.c$457$2$4              fb_lpc922
     0C:   000013E1  A$fb_lpc922$2040                   fb_lpc922
     0C:   000013E1  C$fb_lpc922.c$458$2$4              fb_lpc922
     0C:   000013E4  A$fb_lpc922$2043                   fb_lpc922
     0C:   000013E4  C$fb_lpc922.c$460$2$4              fb_lpc922
     0C:   000013E7  A$fb_lpc922$2044                   fb_lpc922
     0C:   000013E8  A$fb_lpc922$2045                   fb_lpc922
     0C:   000013EA  A$fb_lpc922$2046                   fb_lpc922
     0C:   000013EC  A$fb_lpc922$2047                   fb_lpc922
     0C:   000013EF  A$fb_lpc922$2049                   fb_lpc922
     0C:   000013F0  A$fb_lpc922$2050                   fb_lpc922
     0C:   000013F1  A$fb_lpc922$2051                   fb_lpc922
     0C:   000013F2  A$fb_lpc922$2052                   fb_lpc922
     0C:   000013F5  A$fb_lpc922$2053                   fb_lpc922
     0C:   000013F6  A$fb_lpc922$2055                   fb_lpc922
     0C:   000013F9  A$fb_lpc922$2056                   fb_lpc922
     0C:   000013FC  A$fb_lpc922$2057                   fb_lpc922
     0C:   000013FF  A$fb_lpc922$2058                   fb_lpc922
     0C:   00001402  A$fb_lpc922$2059                   fb_lpc922
     0C:   00001405  A$fb_lpc922$2060                   fb_lpc922
     0C:   00001408  A$fb_lpc922$2066                   fb_lpc922
     0C:   00001408  C$fb_lpc922.c$461$3$5              fb_lpc922
     0C:   00001408  C$fb_lpc922.c$462$3$5              fb_lpc922
     0C:   0000140B  A$fb_lpc922$2069                   fb_lpc922
     0C:   0000140B  C$fb_lpc922.c$463$3$5              fb_lpc922
     0C:   0000140D  A$fb_lpc922$2070                   fb_lpc922
     0C:   0000140F  A$fb_lpc922$2071                   fb_lpc922
     0C:   00001411  A$fb_lpc922$2074                   fb_lpc922
     0C:   00001411  C$fb_lpc922.c$465$3$5              fb_lpc922
     0C:   00001414  A$fb_lpc922$2080                   fb_lpc922
     0C:   00001414  C$fb_lpc922.c$466$3$5              fb_lpc922
     0C:   00001414  C$fb_lpc922.c$467$3$5              fb_lpc922
     0C:   00001417  A$fb_lpc922$2083                   fb_lpc922
     0C:   00001417  C$fb_lpc922.c$468$3$5              fb_lpc922
     0C:   00001419  A$fb_lpc922$2084                   fb_lpc922
     0C:   0000141B  A$fb_lpc922$2085                   fb_lpc922
     0C:   0000141D  A$fb_lpc922$2088                   fb_lpc922
     0C:   0000141D  C$fb_lpc922.c$469$3$5              fb_lpc922
     0C:   00001420  A$fb_lpc922$2091                   fb_lpc922
     0C:   00001420  C$fb_lpc922.c$470$3$5              fb_lpc922
     0C:   00001423  A$fb_lpc922$2094                   fb_lpc922
     0C:   00001423  C$fb_lpc922.c$471$3$5              fb_lpc922
     0C:   00001426  A$fb_lpc922$2097                   fb_lpc922
     0C:   00001426  C$fb_lpc922.c$472$3$5              fb_lpc922
     0C:   00001428  A$fb_lpc922$2100                   fb_lpc922
ASxxxx Linker V02.00 + NoICE + sdld,  page 90.
Hexadecimal  [32-Bits]

Area                                    Addr        Size        Decimal Bytes (Attributes)
--------------------------------        ----        ----        ------- ----- ------------
CSEG                                0000007F    00001793 =        6035. bytes (REL,CON,CODE)

      Value  Global                              Global Defined In Module
      -----  --------------------------------   ------------------------
     0C:   00001428  C$fb_lpc922.c$473$3$5              fb_lpc922
     0C:   0000142B  A$fb_lpc922$2106                   fb_lpc922
     0C:   0000142B  C$fb_lpc922.c$474$3$5              fb_lpc922
     0C:   0000142B  C$fb_lpc922.c$475$3$5              fb_lpc922
     0C:   0000142E  A$fb_lpc922$2109                   fb_lpc922
     0C:   0000142E  C$fb_lpc922.c$476$3$5              fb_lpc922
     0C:   00001431  A$fb_lpc922$2112                   fb_lpc922
     0C:   00001431  C$fb_lpc922.c$477$3$5              fb_lpc922
     0C:   00001434  A$fb_lpc922$2115                   fb_lpc922
     0C:   00001434  C$fb_lpc922.c$478$3$5              fb_lpc922
     0C:   00001437  A$fb_lpc922$2118                   fb_lpc922
     0C:   00001437  C$fb_lpc922.c$479$3$5              fb_lpc922
     0C:   0000143A  A$fb_lpc922$2123                   fb_lpc922
     0C:   0000143A  C$fb_lpc922.c$480$3$5              fb_lpc922
     0C:   0000143A  C$fb_lpc922.c$481$3$5              fb_lpc922
     0C:   0000143C  A$fb_lpc922$2127                   fb_lpc922
     0C:   0000143C  C$fb_lpc922.c$482$1$1              fb_lpc922
     0C:   0000143E  A$fb_lpc922$2129                   fb_lpc922
     0C:   0000143F  A$fb_lpc922$2130                   fb_lpc922
     0C:   00001440  A$fb_lpc922$2131                   fb_lpc922
     0C:   00001442  A$fb_lpc922$2132                   fb_lpc922
     0C:   00001444  A$fb_lpc922$2135                   fb_lpc922
     0C:   00001444  C$fb_lpc922.c$483$4$6              fb_lpc922
     0C:   00001446  A$fb_lpc922$2136                   fb_lpc922
     0C:   00001448  A$fb_lpc922$2139                   fb_lpc922
     0C:   00001448  C$fb_lpc922.c$484$5$7              fb_lpc922
     0C:   0000144A  A$fb_lpc922$2140                   fb_lpc922
     0C:   0000144B  A$fb_lpc922$2141                   fb_lpc922
     0C:   0000144D  A$fb_lpc922$2142                   fb_lpc922
     0C:   0000144E  A$fb_lpc922$2143                   fb_lpc922
     0C:   0000144F  A$fb_lpc922$2144                   fb_lpc922
     0C:   00001451  A$fb_lpc922$2145                   fb_lpc922
     0C:   00001454  A$fb_lpc922$2146                   fb_lpc922
     0C:   00001455  A$fb_lpc922$2147                   fb_lpc922
     0C:   00001456  A$fb_lpc922$2150                   fb_lpc922
     0C:   00001456  C$fb_lpc922.c$485$5$7              fb_lpc922
     0C:   00001458  A$fb_lpc922$2151                   fb_lpc922
     0C:   0000145A  A$fb_lpc922$2152                   fb_lpc922
     0C:   0000145C  A$fb_lpc922$2153                   fb_lpc922
     0C:   0000145E  A$fb_lpc922$2154                   fb_lpc922
     0C:   0000145F  A$fb_lpc922$2155                   fb_lpc922
     0C:   00001460  A$fb_lpc922$2156                   fb_lpc922
     0C:   00001461  A$fb_lpc922$2157                   fb_lpc922
     0C:   00001462  A$fb_lpc922$2158                   fb_lpc922
     0C:   00001463  A$fb_lpc922$2159                   fb_lpc922
     0C:   00001464  A$fb_lpc922$2160                   fb_lpc922
     0C:   00001467  A$fb_lpc922$2161                   fb_lpc922
     0C:   0000146A  A$fb_lpc922$2162                   fb_lpc922
     0C:   0000146C  A$fb_lpc922$2163                   fb_lpc922
     0C:   0000146D  A$fb_lpc922$2164                   fb_lpc922
     0C:   0000146F  A$fb_lpc922$2165                   fb_lpc922
ASxxxx Linker V02.00 + NoICE + sdld,  page 91.
Hexadecimal  [32-Bits]

Area                                    Addr        Size        Decimal Bytes (Attributes)
--------------------------------        ----        ----        ------- ----- ------------
CSEG                                0000007F    00001793 =        6035. bytes (REL,CON,CODE)

      Value  Global                              Global Defined In Module
      -----  --------------------------------   ------------------------
     0C:   00001470  A$fb_lpc922$2166                   fb_lpc922
     0C:   00001472  A$fb_lpc922$2167                   fb_lpc922
     0C:   00001474  A$fb_lpc922$2171                   fb_lpc922
     0C:   00001474  C$fb_lpc922.c$487$4$6              fb_lpc922
     0C:   00001476  A$fb_lpc922$2172                   fb_lpc922
     0C:   00001477  A$fb_lpc922$2173                   fb_lpc922
     0C:   00001479  A$fb_lpc922$2174                   fb_lpc922
     0C:   0000147A  A$fb_lpc922$2175                   fb_lpc922
     0C:   0000147B  A$fb_lpc922$2176                   fb_lpc922
     0C:   0000147D  A$fb_lpc922$2177                   fb_lpc922
     0C:   00001480  A$fb_lpc922$2178                   fb_lpc922
     0C:   00001481  A$fb_lpc922$2179                   fb_lpc922
     0C:   00001482  A$fb_lpc922$2180                   fb_lpc922
     0C:   00001483  A$fb_lpc922$2184                   fb_lpc922
     0C:   00001483  C$fb_lpc922.c$482$3$5              fb_lpc922
     0C:   00001484  A$fb_lpc922$2185                   fb_lpc922
     0C:   00001486  A$fb_lpc922$2189                   fb_lpc922
     0C:   00001486  C$fb_lpc922.c$489$3$5              fb_lpc922
     0C:   00001488  A$fb_lpc922$2190                   fb_lpc922
     0C:   0000148A  A$fb_lpc922$2191                   fb_lpc922
     0C:   0000148C  A$fb_lpc922$2194                   fb_lpc922
     0C:   0000148C  C$fb_lpc922.c$490$3$5              fb_lpc922
     0C:   0000148E  A$fb_lpc922$2195                   fb_lpc922
     0C:   00001490  A$fb_lpc922$2196                   fb_lpc922
     0C:   00001492  A$fb_lpc922$2199                   fb_lpc922
     0C:   00001492  C$fb_lpc922.c$491$3$5              fb_lpc922
     0C:   00001494  A$fb_lpc922$2200                   fb_lpc922
     0C:   00001496  A$fb_lpc922$2201                   fb_lpc922
     0C:   00001498  A$fb_lpc922$2204                   fb_lpc922
     0C:   00001498  C$fb_lpc922.c$492$3$5              fb_lpc922
     0C:   0000149B  A$fb_lpc922$2207                   fb_lpc922
     0C:   0000149B  C$fb_lpc922.c$493$3$5              fb_lpc922
     0C:   0000149E  A$fb_lpc922$2210                   fb_lpc922
     0C:   0000149E  C$fb_lpc922.c$494$3$5              fb_lpc922
     0C:   000014A0  A$fb_lpc922$2215                   fb_lpc922
     0C:   000014A0  C$fb_lpc922.c$495$3$5              fb_lpc922
     0C:   000014A0  C$fb_lpc922.c$496$3$5              fb_lpc922
     0C:   000014A2  A$fb_lpc922$2219                   fb_lpc922
     0C:   000014A2  C$fb_lpc922.c$497$3$5              fb_lpc922
     0C:   000014A5  A$fb_lpc922$2222                   fb_lpc922
     0C:   000014A5  C$fb_lpc922.c$498$3$5              fb_lpc922
     0C:   000014A8  A$fb_lpc922$2228                   fb_lpc922
     0C:   000014A8  C$fb_lpc922.c$500$2$4              fb_lpc922
     0C:   000014A8  C$fb_lpc922.c$501$2$4              fb_lpc922
     0C:   000014AA  A$fb_lpc922$2232                   fb_lpc922
     0C:   000014AA  C$fb_lpc922.c$503$1$1              fb_lpc922
     0C:   000014AD  A$fb_lpc922$2233                   fb_lpc922
     0C:   000014AF  A$fb_lpc922$2234                   fb_lpc922
     0C:   000014B1  A$fb_lpc922$2235                   fb_lpc922
     0C:   000014B3  A$fb_lpc922$2239                   fb_lpc922
     0C:   000014B3  C$fb_lpc922.c$504$1$1              fb_lpc922
ASxxxx Linker V02.00 + NoICE + sdld,  page 92.
Hexadecimal  [32-Bits]

Area                                    Addr        Size        Decimal Bytes (Attributes)
--------------------------------        ----        ----        ------- ----- ------------
CSEG                                0000007F    00001793 =        6035. bytes (REL,CON,CODE)

      Value  Global                              Global Defined In Module
      -----  --------------------------------   ------------------------
     0C:   000014B5  A$fb_lpc922$2240                   fb_lpc922
     0C:   000014B8  A$fb_lpc922$2241                   fb_lpc922
     0C:   000014BA  A$fb_lpc922$2244                   fb_lpc922
     0C:   000014BA  C$fb_lpc922.c$505$1$1              fb_lpc922
     0C:   000014BA  XG$build_tel$0$0                   fb_lpc922
     0C:   000014BB  A$fb_lpc922$2258                   fb_lpc922
     0C:   000014BB  C$fb_lpc922.c$508$1$1              fb_lpc922
     0C:   000014BB  G$send_obj_value$0$0               fb_lpc922
     0C:   000014BB  _send_obj_value                    fb_lpc922
     0C:   000014BD  A$fb_lpc922$2261                   fb_lpc922
     0C:   000014BD  C$fb_lpc922.c$510$1$1              fb_lpc922
     0C:   000014BF  A$fb_lpc922$2264                   fb_lpc922
     0C:   000014BF  C$fb_lpc922.c$512$1$1              fb_lpc922
     0C:   000014C1  A$fb_lpc922$2265                   fb_lpc922
     0C:   000014C3  A$fb_lpc922$2266                   fb_lpc922
     0C:   000014C4  A$fb_lpc922$2267                   fb_lpc922
     0C:   000014C7  A$fb_lpc922$2268                   fb_lpc922
     0C:   000014C8  A$fb_lpc922$2270                   fb_lpc922
     0C:   000014CB  A$fb_lpc922$2271                   fb_lpc922
     0C:   000014CD  A$fb_lpc922$2272                   fb_lpc922
     0C:   000014CF  A$fb_lpc922$2273                   fb_lpc922
     0C:   000014D1  A$fb_lpc922$2274                   fb_lpc922
     0C:   000014D2  A$fb_lpc922$2275                   fb_lpc922
     0C:   000014D5  A$fb_lpc922$2276                   fb_lpc922
     0C:   000014D6  A$fb_lpc922$2277                   fb_lpc922
     0C:   000014D9  A$fb_lpc922$2278                   fb_lpc922
     0C:   000014DB  A$fb_lpc922$2282                   fb_lpc922
     0C:   000014DB  C$fb_lpc922.c$513$2$2              fb_lpc922
     0C:   000014DD  A$fb_lpc922$2283                   fb_lpc922
     0C:   000014DF  A$fb_lpc922$2284                   fb_lpc922
     0C:   000014E0  A$fb_lpc922$2285                   fb_lpc922
     0C:   000014E2  A$fb_lpc922$2288                   fb_lpc922
     0C:   000014E2  C$fb_lpc922.c$514$2$2              fb_lpc922
     0C:   000014E4  A$fb_lpc922$2291                   fb_lpc922
     0C:   000014E4  C$fb_lpc922.c$515$2$2              fb_lpc922
     0C:   000014E7  A$fb_lpc922$2294                   fb_lpc922
     0C:   000014E7  C$fb_lpc922.c$516$2$2              fb_lpc922
     0C:   000014E9  A$fb_lpc922$2298                   fb_lpc922
     0C:   000014E9  C$fb_lpc922.c$518$1$1              fb_lpc922
     0C:   000014EB  A$fb_lpc922$2301                   fb_lpc922
     0C:   000014EB  C$fb_lpc922.c$519$1$1              fb_lpc922
     0C:   000014ED  A$fb_lpc922$2304                   fb_lpc922
     0C:   000014ED  C$fb_lpc922.c$520$1$1              fb_lpc922
     0C:   000014ED  XG$send_obj_value$0$0              fb_lpc922
     0C:   000014EE  A$fb_lpc922$2320                   fb_lpc922
     0C:   000014EE  C$fb_lpc922.c$525$1$1              fb_lpc922
     0C:   000014EE  C$fb_lpc922.c$529$1$1              fb_lpc922
     0C:   000014EE  G$process_tel$0$0                  fb_lpc922
     0C:   000014EE  _process_tel                       fb_lpc922
     0C:   000014F0  A$fb_lpc922$2323                   fb_lpc922
     0C:   000014F0  C$fb_lpc922.c$530$1$1              fb_lpc922
ASxxxx Linker V02.00 + NoICE + sdld,  page 93.
Hexadecimal  [32-Bits]

Area                                    Addr        Size        Decimal Bytes (Attributes)
--------------------------------        ----        ----        ------- ----- ------------
CSEG                                0000007F    00001793 =        6035. bytes (REL,CON,CODE)

      Value  Global                              Global Defined In Module
      -----  --------------------------------   ------------------------
     0C:   000014F2  A$fb_lpc922$2324                   fb_lpc922
     0C:   000014F4  A$fb_lpc922$2325                   fb_lpc922
     0C:   000014F5  A$fb_lpc922$2326                   fb_lpc922
     0C:   000014F6  A$fb_lpc922$2329                   fb_lpc922
     0C:   000014F6  C$fb_lpc922.c$531$1$1              fb_lpc922
     0C:   000014F8  A$fb_lpc922$2332                   fb_lpc922
     0C:   000014F8  C$fb_lpc922.c$534$1$1              fb_lpc922
     0C:   000014FA  A$fb_lpc922$2333                   fb_lpc922
     0C:   000014FB  A$fb_lpc922$2334                   fb_lpc922
     0C:   000014FD  A$fb_lpc922$2335                   fb_lpc922
     0C:   000014FF  A$fb_lpc922$2336                   fb_lpc922
     0C:   00001501  A$fb_lpc922$2339                   fb_lpc922
     0C:   00001501  C$fb_lpc922.c$535$2$2              fb_lpc922
     0C:   00001503  A$fb_lpc922$2340                   fb_lpc922
     0C:   00001506  A$fb_lpc922$2341                   fb_lpc922
     0C:   00001509  A$fb_lpc922$2345                   fb_lpc922
     0C:   00001509  C$fb_lpc922.c$536$3$3              fb_lpc922
     0C:   0000150A  A$fb_lpc922$2346                   fb_lpc922
     0C:   0000150C  A$fb_lpc922$2347                   fb_lpc922
     0C:   0000150F  A$fb_lpc922$2348                   fb_lpc922
     0C:   00001511  A$fb_lpc922$2349                   fb_lpc922
     0C:   00001513  A$fb_lpc922$2350                   fb_lpc922
     0C:   00001516  A$fb_lpc922$2351                   fb_lpc922
     0C:   00001518  A$fb_lpc922$2352                   fb_lpc922
     0C:   0000151A  A$fb_lpc922$2356                   fb_lpc922
     0C:   0000151A  C$fb_lpc922.c$537$3$3              fb_lpc922
     0C:   0000151D  A$fb_lpc922$2357                   fb_lpc922
     0C:   0000151F  A$fb_lpc922$2359                   fb_lpc922
     0C:   00001522  A$fb_lpc922$2361                   fb_lpc922
     0C:   00001523  A$fb_lpc922$2362                   fb_lpc922
     0C:   00001525  A$fb_lpc922$2363                   fb_lpc922
     0C:   00001528  A$fb_lpc922$2365                   fb_lpc922
     0C:   0000152B  A$fb_lpc922$2366                   fb_lpc922
     0C:   0000152E  A$fb_lpc922$2367                   fb_lpc922
     0C:   00001531  A$fb_lpc922$2371                   fb_lpc922
     0C:   00001531  C$fb_lpc922.c$542$2$4              fb_lpc922
     0C:   00001533  A$fb_lpc922$2372                   fb_lpc922
     0C:   00001536  A$fb_lpc922$2373                   fb_lpc922
     0C:   00001539  A$fb_lpc922$2377                   fb_lpc922
     0C:   00001539  C$fb_lpc922.c$543$3$5              fb_lpc922
     0C:   0000153C  A$fb_lpc922$2378                   fb_lpc922
     0C:   0000153D  A$fb_lpc922$2379                   fb_lpc922
     0C:   0000153E  A$fb_lpc922$2380                   fb_lpc922
     0C:   0000153F  A$fb_lpc922$2381                   fb_lpc922
     0C:   00001540  A$fb_lpc922$2382                   fb_lpc922
     0C:   00001543  A$fb_lpc922$2383                   fb_lpc922
     0C:   00001545  A$fb_lpc922$2385                   fb_lpc922
     0C:   00001548  A$fb_lpc922$2387                   fb_lpc922
     0C:   0000154B  A$fb_lpc922$2388                   fb_lpc922
     0C:   0000154C  A$fb_lpc922$2389                   fb_lpc922
     0C:   0000154D  A$fb_lpc922$2390                   fb_lpc922
ASxxxx Linker V02.00 + NoICE + sdld,  page 94.
Hexadecimal  [32-Bits]

Area                                    Addr        Size        Decimal Bytes (Attributes)
--------------------------------        ----        ----        ------- ----- ------------
CSEG                                0000007F    00001793 =        6035. bytes (REL,CON,CODE)

      Value  Global                              Global Defined In Module
      -----  --------------------------------   ------------------------
     0C:   0000154E  A$fb_lpc922$2391                   fb_lpc922
     0C:   00001551  A$fb_lpc922$2392                   fb_lpc922
     0C:   00001553  A$fb_lpc922$2394                   fb_lpc922
     0C:   00001556  A$fb_lpc922$2398                   fb_lpc922
     0C:   00001556  C$fb_lpc922.c$547$4$6              fb_lpc922
     0C:   00001559  A$fb_lpc922$2399                   fb_lpc922
     0C:   0000155B  A$fb_lpc922$2401                   fb_lpc922
     0C:   0000155E  A$fb_lpc922$2402                   fb_lpc922
     0C:   00001560  A$fb_lpc922$2404                   fb_lpc922
     0C:   00001563  A$fb_lpc922$2405                   fb_lpc922
     0C:   00001565  A$fb_lpc922$2407                   fb_lpc922
     0C:   00001568  A$fb_lpc922$2408                   fb_lpc922
     0C:   0000156A  A$fb_lpc922$2410                   fb_lpc922
     0C:   0000156D  A$fb_lpc922$2411                   fb_lpc922
     0C:   0000156F  A$fb_lpc922$2413                   fb_lpc922
     0C:   00001572  A$fb_lpc922$2419                   fb_lpc922
     0C:   00001572  C$fb_lpc922.c$549$5$7              fb_lpc922
     0C:   00001572  C$fb_lpc922.c$550$5$7              fb_lpc922
     0C:   00001575  A$fb_lpc922$2420                   fb_lpc922
     0C:   00001578  A$fb_lpc922$2424                   fb_lpc922
     0C:   00001578  C$fb_lpc922.c$551$6$8              fb_lpc922
     0C:   0000157A  A$fb_lpc922$2425                   fb_lpc922
     0C:   0000157B  A$fb_lpc922$2426                   fb_lpc922
     0C:   0000157D  A$fb_lpc922$2429                   fb_lpc922
     0C:   0000157D  C$fb_lpc922.c$552$6$8              fb_lpc922
     0C:   00001580  A$fb_lpc922$2432                   fb_lpc922
     0C:   00001580  C$fb_lpc922.c$553$6$8              fb_lpc922
     0C:   00001583  A$fb_lpc922$2435                   fb_lpc922
     0C:   00001583  C$fb_lpc922.c$554$7$9              fb_lpc922
     0C:   00001586  A$fb_lpc922$2436                   fb_lpc922
     0C:   00001588  A$fb_lpc922$2437                   fb_lpc922
     0C:   0000158B  A$fb_lpc922$2440                   fb_lpc922
     0C:   0000158B  C$fb_lpc922.c$555$7$9              fb_lpc922
     0C:   0000158E  A$fb_lpc922$2441                   fb_lpc922
     0C:   00001590  A$fb_lpc922$2445                   fb_lpc922
     0C:   00001590  C$fb_lpc922.c$557$6$8              fb_lpc922
     0C:   00001591  A$fb_lpc922$2446                   fb_lpc922
     0C:   00001593  A$fb_lpc922$2449                   fb_lpc922
     0C:   00001593  C$fb_lpc922.c$558$7$10             fb_lpc922
     0C:   00001596  A$fb_lpc922$2452                   fb_lpc922
     0C:   00001596  C$fb_lpc922.c$559$7$10             fb_lpc922
     0C:   00001599  A$fb_lpc922$2455                   fb_lpc922
     0C:   00001599  C$fb_lpc922.c$560$7$10             fb_lpc922
     0C:   0000159C  A$fb_lpc922$2458                   fb_lpc922
     0C:   0000159C  C$fb_lpc922.c$561$7$10             fb_lpc922
     0C:   0000159F  A$fb_lpc922$2459                   fb_lpc922
     0C:   000015A2  A$fb_lpc922$2462                   fb_lpc922
     0C:   000015A2  C$fb_lpc922.c$562$7$10             fb_lpc922
     0C:   000015A5  A$fb_lpc922$2463                   fb_lpc922
     0C:   000015A8  A$fb_lpc922$2468                   fb_lpc922
     0C:   000015A8  C$fb_lpc922.c$565$5$7              fb_lpc922
ASxxxx Linker V02.00 + NoICE + sdld,  page 95.
Hexadecimal  [32-Bits]

Area                                    Addr        Size        Decimal Bytes (Attributes)
--------------------------------        ----        ----        ------- ----- ------------
CSEG                                0000007F    00001793 =        6035. bytes (REL,CON,CODE)

      Value  Global                              Global Defined In Module
      -----  --------------------------------   ------------------------
     0C:   000015A8  C$fb_lpc922.c$567$5$7              fb_lpc922
     0C:   000015AA  A$fb_lpc922$2472                   fb_lpc922
     0C:   000015AA  C$fb_lpc922.c$568$5$7              fb_lpc922
     0C:   000015AC  A$fb_lpc922$2473                   fb_lpc922
     0C:   000015AD  A$fb_lpc922$2474                   fb_lpc922
     0C:   000015AF  A$fb_lpc922$2477                   fb_lpc922
     0C:   000015AF  C$fb_lpc922.c$569$5$7              fb_lpc922
     0C:   000015B2  A$fb_lpc922$2480                   fb_lpc922
     0C:   000015B2  C$fb_lpc922.c$570$6$11             fb_lpc922
     0C:   000015B5  A$fb_lpc922$2484                   fb_lpc922
     0C:   000015B5  C$fb_lpc922.c$572$5$7              fb_lpc922
     0C:   000015B6  A$fb_lpc922$2485                   fb_lpc922
     0C:   000015B8  A$fb_lpc922$2488                   fb_lpc922
     0C:   000015B8  C$fb_lpc922.c$573$6$12             fb_lpc922
     0C:   000015BB  A$fb_lpc922$2489                   fb_lpc922
     0C:   000015BE  A$fb_lpc922$2492                   fb_lpc922
     0C:   000015BE  C$fb_lpc922.c$574$6$12             fb_lpc922
     0C:   000015C1  A$fb_lpc922$2493                   fb_lpc922
     0C:   000015C4  A$fb_lpc922$2498                   fb_lpc922
     0C:   000015C4  C$fb_lpc922.c$576$5$7              fb_lpc922
     0C:   000015C4  C$fb_lpc922.c$578$5$7              fb_lpc922
     0C:   000015C6  A$fb_lpc922$2502                   fb_lpc922
     0C:   000015C6  C$fb_lpc922.c$579$5$7              fb_lpc922
     0C:   000015C9  A$fb_lpc922$2505                   fb_lpc922
     0C:   000015C9  C$fb_lpc922.c$580$6$13             fb_lpc922
     0C:   000015CB  A$fb_lpc922$2508                   fb_lpc922
     0C:   000015CB  C$fb_lpc922.c$581$6$13             fb_lpc922
     0C:   000015CE  A$fb_lpc922$2511                   fb_lpc922
     0C:   000015CE  C$fb_lpc922.c$582$6$13             fb_lpc922
     0C:   000015D1  A$fb_lpc922$2514                   fb_lpc922
     0C:   000015D1  C$fb_lpc922.c$583$6$13             fb_lpc922
     0C:   000015D4  A$fb_lpc922$2517                   fb_lpc922
     0C:   000015D4  C$fb_lpc922.c$584$6$13             fb_lpc922
     0C:   000015D6  A$fb_lpc922$2522                   fb_lpc922
     0C:   000015D6  C$fb_lpc922.c$586$5$7              fb_lpc922
     0C:   000015D6  C$fb_lpc922.c$588$5$7              fb_lpc922
     0C:   000015D8  A$fb_lpc922$2526                   fb_lpc922
     0C:   000015D8  C$fb_lpc922.c$589$5$7              fb_lpc922
     0C:   000015DA  A$fb_lpc922$2527                   fb_lpc922
     0C:   000015DD  A$fb_lpc922$2528                   fb_lpc922
     0C:   000015DF  A$fb_lpc922$2529                   fb_lpc922
     0C:   000015E2  A$fb_lpc922$2532                   fb_lpc922
     0C:   000015E2  C$fb_lpc922.c$590$6$14             fb_lpc922
     0C:   000015E5  A$fb_lpc922$2533                   fb_lpc922
     0C:   000015E7  A$fb_lpc922$2539                   fb_lpc922
     0C:   000015E7  C$fb_lpc922.c$594$5$7              fb_lpc922
     0C:   000015E7  C$fb_lpc922.c$596$5$7              fb_lpc922
     0C:   000015E9  A$fb_lpc922$2543                   fb_lpc922
     0C:   000015E9  C$fb_lpc922.c$597$5$7              fb_lpc922
     0C:   000015EC  A$fb_lpc922$2544                   fb_lpc922
     0C:   000015EF  A$fb_lpc922$2547                   fb_lpc922
ASxxxx Linker V02.00 + NoICE + sdld,  page 96.
Hexadecimal  [32-Bits]

Area                                    Addr        Size        Decimal Bytes (Attributes)
--------------------------------        ----        ----        ------- ----- ------------
CSEG                                0000007F    00001793 =        6035. bytes (REL,CON,CODE)

      Value  Global                              Global Defined In Module
      -----  --------------------------------   ------------------------
     0C:   000015EF  C$fb_lpc922.c$599$2$4              fb_lpc922
     0C:   000015F1  A$fb_lpc922$2551                   fb_lpc922
     0C:   000015F1  C$fb_lpc922.c$605$3$15             fb_lpc922
     0C:   000015F2  A$fb_lpc922$2552                   fb_lpc922
     0C:   000015F4  A$fb_lpc922$2555                   fb_lpc922
     0C:   000015F4  C$fb_lpc922.c$606$4$16             fb_lpc922
     0C:   000015F6  A$fb_lpc922$2556                   fb_lpc922
     0C:   000015F7  A$fb_lpc922$2557                   fb_lpc922
     0C:   000015F8  A$fb_lpc922$2558                   fb_lpc922
     0C:   000015FB  A$fb_lpc922$2559                   fb_lpc922
     0C:   000015FD  A$fb_lpc922$2560                   fb_lpc922
     0C:   00001600  A$fb_lpc922$2561                   fb_lpc922
     0C:   00001602  A$fb_lpc922$2565                   fb_lpc922
     0C:   00001602  C$fb_lpc922.c$607$4$16             fb_lpc922
     0C:   00001603  A$fb_lpc922$2566                   fb_lpc922
     0C:   00001605  A$fb_lpc922$2567                   fb_lpc922
     0C:   00001608  A$fb_lpc922$2571                   fb_lpc922
     0C:   00001608  C$fb_lpc922.c$611$1$1              fb_lpc922
     0C:   00001608  XG$process_tel$0$0                 fb_lpc922
     0C:   00001609  A$fb_lpc922$2586                   fb_lpc922
     0C:   00001609  C$fb_lpc922.c$618$1$1              fb_lpc922
     0C:   00001609  G$write_memory$0$0                 fb_lpc922
     0C:   00001609  _write_memory                      fb_lpc922
     0C:   0000160B  A$fb_lpc922$2587                   fb_lpc922
     0C:   0000160D  A$fb_lpc922$2588                   fb_lpc922
     0C:   0000160F  A$fb_lpc922$2589                   fb_lpc922
     0C:   00001611  A$fb_lpc922$2590                   fb_lpc922
     0C:   00001613  A$fb_lpc922$2593                   fb_lpc922
     0C:   00001613  C$fb_lpc922.c$622$1$1              fb_lpc922
     0C:   00001615  A$fb_lpc922$2594                   fb_lpc922
     0C:   00001616  A$fb_lpc922$2595                   fb_lpc922
     0C:   00001618  A$fb_lpc922$2596                   fb_lpc922
     0C:   0000161A  A$fb_lpc922$2597                   fb_lpc922
     0C:   0000161B  A$fb_lpc922$2601                   fb_lpc922
     0C:   0000161B  C$fb_lpc922.c$624$1$1              fb_lpc922
     0C:   0000161D  A$fb_lpc922$2602                   fb_lpc922
     0C:   0000161F  A$fb_lpc922$2605                   fb_lpc922
     0C:   0000161F  C$fb_lpc922.c$626$1$1              fb_lpc922
     0C:   00001621  A$fb_lpc922$2608                   fb_lpc922
     0C:   00001621  C$fb_lpc922.c$627$1$1              fb_lpc922
     0C:   00001624  A$fb_lpc922$2611                   fb_lpc922
     0C:   00001624  C$fb_lpc922.c$628$2$2              fb_lpc922
     0C:   00001626  A$fb_lpc922$2612                   fb_lpc922
     0C:   00001628  A$fb_lpc922$2613                   fb_lpc922
     0C:   0000162A  A$fb_lpc922$2614                   fb_lpc922
     0C:   0000162B  A$fb_lpc922$2615                   fb_lpc922
     0C:   0000162D  A$fb_lpc922$2616                   fb_lpc922
     0C:   0000162E  A$fb_lpc922$2617                   fb_lpc922
     0C:   00001630  A$fb_lpc922$2618                   fb_lpc922
     0C:   00001631  A$fb_lpc922$2619                   fb_lpc922
     0C:   00001632  A$fb_lpc922$2620                   fb_lpc922
ASxxxx Linker V02.00 + NoICE + sdld,  page 97.
Hexadecimal  [32-Bits]

Area                                    Addr        Size        Decimal Bytes (Attributes)
--------------------------------        ----        ----        ------- ----- ------------
CSEG                                0000007F    00001793 =        6035. bytes (REL,CON,CODE)

      Value  Global                              Global Defined In Module
      -----  --------------------------------   ------------------------
     0C:   00001634  A$fb_lpc922$2622                   fb_lpc922
     0C:   00001636  A$fb_lpc922$2623                   fb_lpc922
     0C:   00001637  A$fb_lpc922$2624                   fb_lpc922
     0C:   00001638  A$fb_lpc922$2625                   fb_lpc922
     0C:   0000163A  A$fb_lpc922$2626                   fb_lpc922
     0C:   0000163B  A$fb_lpc922$2627                   fb_lpc922
     0C:   0000163C  A$fb_lpc922$2628                   fb_lpc922
     0C:   0000163D  A$fb_lpc922$2629                   fb_lpc922
     0C:   0000163E  A$fb_lpc922$2630                   fb_lpc922
     0C:   00001640  A$fb_lpc922$2631                   fb_lpc922
     0C:   00001643  A$fb_lpc922$2635                   fb_lpc922
     0C:   00001643  C$fb_lpc922.c$629$2$2              fb_lpc922
     0C:   00001644  A$fb_lpc922$2636                   fb_lpc922
     0C:   00001646  A$fb_lpc922$2637                   fb_lpc922
     0C:   00001648  A$fb_lpc922$2638                   fb_lpc922
     0C:   0000164A  A$fb_lpc922$2639                   fb_lpc922
     0C:   0000164C  A$fb_lpc922$2640                   fb_lpc922
     0C:   0000164E  A$fb_lpc922$2641                   fb_lpc922
     0C:   0000164F  A$fb_lpc922$2642                   fb_lpc922
     0C:   00001650  A$fb_lpc922$2643                   fb_lpc922
     0C:   00001652  A$fb_lpc922$2644                   fb_lpc922
     0C:   00001654  A$fb_lpc922$2645                   fb_lpc922
     0C:   00001655  A$fb_lpc922$2646                   fb_lpc922
     0C:   00001656  A$fb_lpc922$2647                   fb_lpc922
     0C:   00001657  A$fb_lpc922$2648                   fb_lpc922
     0C:   00001658  A$fb_lpc922$2649                   fb_lpc922
     0C:   00001659  A$fb_lpc922$2650                   fb_lpc922
     0C:   0000165A  A$fb_lpc922$2651                   fb_lpc922
     0C:   0000165D  A$fb_lpc922$2652                   fb_lpc922
     0C:   00001660  A$fb_lpc922$2653                   fb_lpc922
     0C:   00001662  A$fb_lpc922$2655                   fb_lpc922
     0C:   00001664  A$fb_lpc922$2656                   fb_lpc922
     0C:   00001666  A$fb_lpc922$2658                   fb_lpc922
     0C:   00001668  A$fb_lpc922$2659                   fb_lpc922
     0C:   0000166A  A$fb_lpc922$2660                   fb_lpc922
     0C:   0000166B  A$fb_lpc922$2661                   fb_lpc922
     0C:   0000166C  A$fb_lpc922$2662                   fb_lpc922
     0C:   0000166E  A$fb_lpc922$2663                   fb_lpc922
     0C:   0000166F  A$fb_lpc922$2664                   fb_lpc922
     0C:   00001671  A$fb_lpc922$2665                   fb_lpc922
     0C:   00001672  A$fb_lpc922$2666                   fb_lpc922
     0C:   00001674  A$fb_lpc922$2667                   fb_lpc922
     0C:   00001676  A$fb_lpc922$2671                   fb_lpc922
     0C:   00001676  C$fb_lpc922.c$630$2$2              fb_lpc922
     0C:   00001678  A$fb_lpc922$2673                   fb_lpc922
     0C:   0000167A  A$fb_lpc922$2674                   fb_lpc922
     0C:   0000167B  A$fb_lpc922$2675                   fb_lpc922
     0C:   0000167C  A$fb_lpc922$2676                   fb_lpc922
     0C:   0000167D  A$fb_lpc922$2677                   fb_lpc922
     0C:   0000167E  A$fb_lpc922$2678                   fb_lpc922
     0C:   00001680  A$fb_lpc922$2679                   fb_lpc922
ASxxxx Linker V02.00 + NoICE + sdld,  page 98.
Hexadecimal  [32-Bits]

Area                                    Addr        Size        Decimal Bytes (Attributes)
--------------------------------        ----        ----        ------- ----- ------------
CSEG                                0000007F    00001793 =        6035. bytes (REL,CON,CODE)

      Value  Global                              Global Defined In Module
      -----  --------------------------------   ------------------------
     0C:   00001682  A$fb_lpc922$2680                   fb_lpc922
     0C:   00001683  A$fb_lpc922$2681                   fb_lpc922
     0C:   00001684  A$fb_lpc922$2682                   fb_lpc922
     0C:   00001686  A$fb_lpc922$2683                   fb_lpc922
     0C:   00001687  A$fb_lpc922$2684                   fb_lpc922
     0C:   00001689  A$fb_lpc922$2685                   fb_lpc922
     0C:   0000168A  A$fb_lpc922$2686                   fb_lpc922
     0C:   0000168C  A$fb_lpc922$2689                   fb_lpc922
     0C:   0000168C  C$fb_lpc922.c$632$2$2              fb_lpc922
     0C:   0000168E  A$fb_lpc922$2690                   fb_lpc922
     0C:   00001690  A$fb_lpc922$2691                   fb_lpc922
     0C:   00001692  A$fb_lpc922$2692                   fb_lpc922
     0C:   00001693  A$fb_lpc922$2693                   fb_lpc922
     0C:   00001694  A$fb_lpc922$2694                   fb_lpc922
     0C:   00001696  A$fb_lpc922$2695                   fb_lpc922
     0C:   00001698  A$fb_lpc922$2696                   fb_lpc922
     0C:   00001699  A$fb_lpc922$2697                   fb_lpc922
     0C:   0000169A  A$fb_lpc922$2698                   fb_lpc922
     0C:   0000169B  A$fb_lpc922$2699                   fb_lpc922
     0C:   0000169C  A$fb_lpc922$2700                   fb_lpc922
     0C:   0000169E  A$fb_lpc922$2701                   fb_lpc922
     0C:   000016A0  A$fb_lpc922$2702                   fb_lpc922
     0C:   000016A2  A$fb_lpc922$2703                   fb_lpc922
     0C:   000016A3  A$fb_lpc922$2704                   fb_lpc922
     0C:   000016A4  A$fb_lpc922$2705                   fb_lpc922
     0C:   000016A5  A$fb_lpc922$2706                   fb_lpc922
     0C:   000016A6  A$fb_lpc922$2707                   fb_lpc922
     0C:   000016A7  A$fb_lpc922$2708                   fb_lpc922
     0C:   000016A8  A$fb_lpc922$2709                   fb_lpc922
     0C:   000016A9  A$fb_lpc922$2710                   fb_lpc922
     0C:   000016AC  A$fb_lpc922$2711                   fb_lpc922
     0C:   000016AE  A$fb_lpc922$2712                   fb_lpc922
     0C:   000016B1  A$fb_lpc922$2713                   fb_lpc922
     0C:   000016B4  A$fb_lpc922$2714                   fb_lpc922
     0C:   000016B6  A$fb_lpc922$2715                   fb_lpc922
     0C:   000016B7  A$fb_lpc922$2716                   fb_lpc922
     0C:   000016B9  A$fb_lpc922$2717                   fb_lpc922
     0C:   000016BB  A$fb_lpc922$2718                   fb_lpc922
     0C:   000016BC  A$fb_lpc922$2719                   fb_lpc922
     0C:   000016BF  A$fb_lpc922$2720                   fb_lpc922
     0C:   000016C0  A$fb_lpc922$2722                   fb_lpc922
     0C:   000016C2  A$fb_lpc922$2723                   fb_lpc922
     0C:   000016C4  A$fb_lpc922$2724                   fb_lpc922
     0C:   000016C5  A$fb_lpc922$2725                   fb_lpc922
     0C:   000016C6  A$fb_lpc922$2726                   fb_lpc922
     0C:   000016C9  A$fb_lpc922$2727                   fb_lpc922
     0C:   000016CA  A$fb_lpc922$2728                   fb_lpc922
     0C:   000016CB  A$fb_lpc922$2729                   fb_lpc922
     0C:   000016CE  A$fb_lpc922$2730                   fb_lpc922
     0C:   000016D0  A$fb_lpc922$2734                   fb_lpc922
     0C:   000016D0  C$fb_lpc922.c$633$3$3              fb_lpc922
ASxxxx Linker V02.00 + NoICE + sdld,  page 99.
Hexadecimal  [32-Bits]

Area                                    Addr        Size        Decimal Bytes (Attributes)
--------------------------------        ----        ----        ------- ----- ------------
CSEG                                0000007F    00001793 =        6035. bytes (REL,CON,CODE)

      Value  Global                              Global Defined In Module
      -----  --------------------------------   ------------------------
     0C:   000016D3  A$fb_lpc922$2737                   fb_lpc922
     0C:   000016D3  C$fb_lpc922.c$634$3$3              fb_lpc922
     0C:   000016D6  A$fb_lpc922$2741                   fb_lpc922
     0C:   000016D6  C$fb_lpc922.c$628$1$1              fb_lpc922
     0C:   000016D8  A$fb_lpc922$2742                   fb_lpc922
     0C:   000016D9  A$fb_lpc922$2743                   fb_lpc922
     0C:   000016DA  A$fb_lpc922$2744                   fb_lpc922
     0C:   000016DB  A$fb_lpc922$2745                   fb_lpc922
     0C:   000016DE  A$fb_lpc922$2749                   fb_lpc922
     0C:   000016DE  C$fb_lpc922.c$637$1$1              fb_lpc922
     0C:   000016E1  A$fb_lpc922$2752                   fb_lpc922
     0C:   000016E1  C$fb_lpc922.c$638$1$1              fb_lpc922
     0C:   000016E3  A$fb_lpc922$2753                   fb_lpc922
     0C:   000016E6  A$fb_lpc922$2754                   fb_lpc922
     0C:   000016E8  A$fb_lpc922$2757                   fb_lpc922
     0C:   000016E8  C$fb_lpc922.c$639$1$1              fb_lpc922
     0C:   000016E8  XG$write_memory$0$0                fb_lpc922
     0C:   000016E9  A$fb_lpc922$2771                   fb_lpc922
     0C:   000016E9  C$fb_lpc922.c$643$1$1              fb_lpc922
     0C:   000016E9  C$fb_lpc922.c$645$1$1              fb_lpc922
     0C:   000016E9  G$set_pa$0$0                       fb_lpc922
     0C:   000016E9  _set_pa                            fb_lpc922
     0C:   000016EB  A$fb_lpc922$2772                   fb_lpc922
     0C:   000016ED  A$fb_lpc922$2775                   fb_lpc922
     0C:   000016ED  C$fb_lpc922.c$646$1$1              fb_lpc922
     0C:   000016EF  A$fb_lpc922$2778                   fb_lpc922
     0C:   000016EF  C$fb_lpc922.c$647$1$1              fb_lpc922
     0C:   000016F2  A$fb_lpc922$2781                   fb_lpc922
     0C:   000016F2  C$fb_lpc922.c$648$1$1              fb_lpc922
     0C:   000016F5  A$fb_lpc922$2784                   fb_lpc922
     0C:   000016F5  C$fb_lpc922.c$649$1$1              fb_lpc922
     0C:   000016F8  A$fb_lpc922$2787                   fb_lpc922
     0C:   000016F8  C$fb_lpc922.c$650$1$1              fb_lpc922
     0C:   000016FB  A$fb_lpc922$2790                   fb_lpc922
     0C:   000016FB  C$fb_lpc922.c$651$1$1              fb_lpc922
     0C:   000016FE  A$fb_lpc922$2793                   fb_lpc922
     0C:   000016FE  C$fb_lpc922.c$652$1$1              fb_lpc922
     0C:   00001701  A$fb_lpc922$2796                   fb_lpc922
     0C:   00001701  C$fb_lpc922.c$653$1$1              fb_lpc922
     0C:   00001703  A$fb_lpc922$2799                   fb_lpc922
     0C:   00001703  C$fb_lpc922.c$654$1$1              fb_lpc922
     0C:   00001703  XG$set_pa$0$0                      fb_lpc922
     0C:   00001704  A$fb_lpc922$2812                   fb_lpc922
     0C:   00001704  C$fb_lpc922.c$659$1$1              fb_lpc922
     0C:   00001704  G$read_objflags$0$0                fb_lpc922
     0C:   00001704  _read_objflags                     fb_lpc922
     0C:   00001706  A$fb_lpc922$2815                   fb_lpc922
     0C:   00001706  C$fb_lpc922.c$662$1$1              fb_lpc922
     0C:   00001709  A$fb_lpc922$2816                   fb_lpc922
     0C:   0000170A  A$fb_lpc922$2817                   fb_lpc922
     0C:   0000170B  A$fb_lpc922$2818                   fb_lpc922
ASxxxx Linker V02.00 + NoICE + sdld,  page 100.
Hexadecimal  [32-Bits]

Area                                    Addr        Size        Decimal Bytes (Attributes)
--------------------------------        ----        ----        ------- ----- ------------
CSEG                                0000007F    00001793 =        6035. bytes (REL,CON,CODE)

      Value  Global                              Global Defined In Module
      -----  --------------------------------   ------------------------
     0C:   0000170C  A$fb_lpc922$2819                   fb_lpc922
     0C:   0000170D  A$fb_lpc922$2820                   fb_lpc922
     0C:   0000170E  A$fb_lpc922$2821                   fb_lpc922
     0C:   0000170F  A$fb_lpc922$2822                   fb_lpc922
     0C:   00001710  A$fb_lpc922$2823                   fb_lpc922
     0C:   00001711  A$fb_lpc922$2824                   fb_lpc922
     0C:   00001712  A$fb_lpc922$2825                   fb_lpc922
     0C:   00001713  A$fb_lpc922$2826                   fb_lpc922
     0C:   00001716  A$fb_lpc922$2827                   fb_lpc922
     0C:   00001717  A$fb_lpc922$2830                   fb_lpc922
     0C:   00001717  C$fb_lpc922.c$663$1$1              fb_lpc922
     0C:   00001717  XG$read_objflags$0$0               fb_lpc922
     0C:   00001719  A$fb_lpc922$2831                   fb_lpc922
     0C:   0000171A  A$fb_lpc922$2852                   fb_lpc922
     0C:   0000171A  C$fb_lpc922.c$667$1$1              fb_lpc922
     0C:   0000171A  G$find_first_objno$0$0             fb_lpc922
     0C:   0000171A  _find_first_objno                  fb_lpc922
     0C:   0000171C  A$fb_lpc922$2853                   fb_lpc922
     0C:   0000171F  A$fb_lpc922$2854                   fb_lpc922
     0C:   00001721  A$fb_lpc922$2857                   fb_lpc922
     0C:   00001721  C$fb_lpc922.c$671$1$1              fb_lpc922
     0C:   00001723  A$fb_lpc922$2860                   fb_lpc922
     0C:   00001723  C$fb_lpc922.c$672$1$1              fb_lpc922
     0C:   00001725  A$fb_lpc922$2861                   fb_lpc922
     0C:   00001727  A$fb_lpc922$2862                   fb_lpc922
     0C:   00001729  A$fb_lpc922$2863                   fb_lpc922
     0C:   0000172A  A$fb_lpc922$2864                   fb_lpc922
     0C:   0000172B  A$fb_lpc922$2865                   fb_lpc922
     0C:   0000172D  A$fb_lpc922$2866                   fb_lpc922
     0C:   0000172F  A$fb_lpc922$2867                   fb_lpc922
     0C:   00001732  A$fb_lpc922$2868                   fb_lpc922
     0C:   00001734  A$fb_lpc922$2869                   fb_lpc922
     0C:   00001736  A$fb_lpc922$2870                   fb_lpc922
     0C:   00001738  A$fb_lpc922$2873                   fb_lpc922
     0C:   00001738  C$fb_lpc922.c$674$1$1              fb_lpc922
     0C:   0000173B  A$fb_lpc922$2874                   fb_lpc922
     0C:   0000173C  A$fb_lpc922$2875                   fb_lpc922
     0C:   0000173D  A$fb_lpc922$2878                   fb_lpc922
     0C:   0000173D  C$fb_lpc922.c$675$1$1              fb_lpc922
     0C:   0000173E  A$fb_lpc922$2879                   fb_lpc922
     0C:   00001740  A$fb_lpc922$2880                   fb_lpc922
     0C:   00001743  A$fb_lpc922$2881                   fb_lpc922
     0C:   00001744  A$fb_lpc922$2882                   fb_lpc922
     0C:   00001745  A$fb_lpc922$2883                   fb_lpc922
     0C:   00001746  A$fb_lpc922$2886                   fb_lpc922
     0C:   00001746  C$fb_lpc922.c$676$1$1              fb_lpc922
     0C:   00001749  A$fb_lpc922$2887                   fb_lpc922
     0C:   0000174B  A$fb_lpc922$2891                   fb_lpc922
     0C:   0000174B  C$fb_lpc922.c$677$2$2              fb_lpc922
     0C:   0000174D  A$fb_lpc922$2894                   fb_lpc922
     0C:   0000174D  C$fb_lpc922.c$678$2$2              fb_lpc922
ASxxxx Linker V02.00 + NoICE + sdld,  page 101.
Hexadecimal  [32-Bits]

Area                                    Addr        Size        Decimal Bytes (Attributes)
--------------------------------        ----        ----        ------- ----- ------------
CSEG                                0000007F    00001793 =        6035. bytes (REL,CON,CODE)

      Value  Global                              Global Defined In Module
      -----  --------------------------------   ------------------------
     0C:   0000174E  A$fb_lpc922$2898                   fb_lpc922
     0C:   0000174E  C$fb_lpc922.c$679$1$1              fb_lpc922
     0C:   0000174F  A$fb_lpc922$2899                   fb_lpc922
     0C:   00001750  A$fb_lpc922$2900                   fb_lpc922
     0C:   00001751  A$fb_lpc922$2901                   fb_lpc922
     0C:   00001753  A$fb_lpc922$2904                   fb_lpc922
     0C:   00001753  C$fb_lpc922.c$680$3$3              fb_lpc922
     0C:   00001755  A$fb_lpc922$2905                   fb_lpc922
     0C:   00001758  A$fb_lpc922$2906                   fb_lpc922
     0C:   00001759  A$fb_lpc922$2907                   fb_lpc922
     0C:   0000175A  A$fb_lpc922$2908                   fb_lpc922
     0C:   0000175B  A$fb_lpc922$2911                   fb_lpc922
     0C:   0000175B  C$fb_lpc922.c$681$3$3              fb_lpc922
     0C:   0000175C  A$fb_lpc922$2912                   fb_lpc922
     0C:   0000175F  A$fb_lpc922$2915                   fb_lpc922
     0C:   0000175F  C$fb_lpc922.c$682$4$4              fb_lpc922
     0C:   00001760  A$fb_lpc922$2916                   fb_lpc922
     0C:   00001761  A$fb_lpc922$2917                   fb_lpc922
     0C:   00001764  A$fb_lpc922$2918                   fb_lpc922
     0C:   00001765  A$fb_lpc922$2919                   fb_lpc922
     0C:   00001766  A$fb_lpc922$2920                   fb_lpc922
     0C:   00001767  A$fb_lpc922$2923                   fb_lpc922
     0C:   00001767  C$fb_lpc922.c$683$4$4              fb_lpc922
     0C:   00001769  A$fb_lpc922$2927                   fb_lpc922
     0C:   00001769  C$fb_lpc922.c$685$3$3              fb_lpc922
     0C:   0000176A  A$fb_lpc922$2930                   fb_lpc922
     0C:   0000176A  C$fb_lpc922.c$686$3$3              fb_lpc922
     0C:   0000176B  A$fb_lpc922$2931                   fb_lpc922
     0C:   0000176C  A$fb_lpc922$2932                   fb_lpc922
     0C:   0000176E  A$fb_lpc922$2936                   fb_lpc922
     0C:   0000176E  C$fb_lpc922.c$689$1$1              fb_lpc922
     0C:   00001770  A$fb_lpc922$2937                   fb_lpc922
     0C:   00001772  A$fb_lpc922$2940                   fb_lpc922
     0C:   00001772  C$fb_lpc922.c$690$1$1              fb_lpc922
     0C:   00001772  XG$find_first_objno$0$0            fb_lpc922
     0C:   00001773  A$fb_lpc922$2957                   fb_lpc922
     0C:   00001773  C$fb_lpc922.c$695$1$1              fb_lpc922
     0C:   00001773  G$find_ga$0$0                      fb_lpc922
     0C:   00001773  _find_ga                           fb_lpc922
     0C:   00001775  A$fb_lpc922$2960                   fb_lpc922
     0C:   00001775  C$fb_lpc922.c$700$1$1              fb_lpc922
     0C:   00001777  A$fb_lpc922$2963                   fb_lpc922
     0C:   00001777  C$fb_lpc922.c$701$1$1              fb_lpc922
     0C:   0000177A  A$fb_lpc922$2964                   fb_lpc922
     0C:   0000177B  A$fb_lpc922$2965                   fb_lpc922
     0C:   0000177C  A$fb_lpc922$2966                   fb_lpc922
     0C:   0000177D  A$fb_lpc922$2969                   fb_lpc922
     0C:   0000177D  C$fb_lpc922.c$702$1$1              fb_lpc922
     0C:   0000177E  A$fb_lpc922$2970                   fb_lpc922
     0C:   0000177F  A$fb_lpc922$2971                   fb_lpc922
     0C:   00001780  A$fb_lpc922$2972                   fb_lpc922
ASxxxx Linker V02.00 + NoICE + sdld,  page 102.
Hexadecimal  [32-Bits]

Area                                    Addr        Size        Decimal Bytes (Attributes)
--------------------------------        ----        ----        ------- ----- ------------
CSEG                                0000007F    00001793 =        6035. bytes (REL,CON,CODE)

      Value  Global                              Global Defined In Module
      -----  --------------------------------   ------------------------
     0C:   00001781  A$fb_lpc922$2975                   fb_lpc922
     0C:   00001781  C$fb_lpc922.c$704$1$1              fb_lpc922
     0C:   00001782  A$fb_lpc922$2976                   fb_lpc922
     0C:   00001783  A$fb_lpc922$2977                   fb_lpc922
     0C:   00001786  A$fb_lpc922$2978                   fb_lpc922
     0C:   00001787  A$fb_lpc922$2979                   fb_lpc922
     0C:   00001788  A$fb_lpc922$2980                   fb_lpc922
     0C:   0000178B  A$fb_lpc922$2981                   fb_lpc922
     0C:   0000178D  A$fb_lpc922$2982                   fb_lpc922
     0C:   00001790  A$fb_lpc922$2983                   fb_lpc922
     0C:   00001791  A$fb_lpc922$2984                   fb_lpc922
     0C:   00001792  A$fb_lpc922$2985                   fb_lpc922
     0C:   00001793  A$fb_lpc922$2986                   fb_lpc922
     0C:   00001794  A$fb_lpc922$2990                   fb_lpc922
     0C:   00001794  C$fb_lpc922.c$706$1$1              fb_lpc922
     0C:   00001797  A$fb_lpc922$2991                   fb_lpc922
     0C:   00001799  A$fb_lpc922$2995                   fb_lpc922
     0C:   00001799  C$fb_lpc922.c$708$2$2              fb_lpc922
     0C:   0000179A  A$fb_lpc922$2996                   fb_lpc922
     0C:   0000179B  A$fb_lpc922$2997                   fb_lpc922
     0C:   0000179C  A$fb_lpc922$2998                   fb_lpc922
     0C:   0000179E  A$fb_lpc922$2999                   fb_lpc922
     0C:   000017A1  A$fb_lpc922$3000                   fb_lpc922
     0C:   000017A2  A$fb_lpc922$3001                   fb_lpc922
     0C:   000017A3  A$fb_lpc922$3002                   fb_lpc922
     0C:   000017A5  A$fb_lpc922$3005                   fb_lpc922
     0C:   000017A5  C$fb_lpc922.c$709$2$2              fb_lpc922
     0C:   000017A7  A$fb_lpc922$3006                   fb_lpc922
     0C:   000017A8  A$fb_lpc922$3007                   fb_lpc922
     0C:   000017AB  A$fb_lpc922$3008                   fb_lpc922
     0C:   000017AC  A$fb_lpc922$3009                   fb_lpc922
     0C:   000017AD  A$fb_lpc922$3010                   fb_lpc922
     0C:   000017AF  A$fb_lpc922$3011                   fb_lpc922
     0C:   000017B0  A$fb_lpc922$3012                   fb_lpc922
     0C:   000017B1  A$fb_lpc922$3013                   fb_lpc922
     0C:   000017B2  A$fb_lpc922$3014                   fb_lpc922
     0C:   000017B3  A$fb_lpc922$3015                   fb_lpc922
     0C:   000017B4  A$fb_lpc922$3016                   fb_lpc922
     0C:   000017B6  A$fb_lpc922$3020                   fb_lpc922
     0C:   000017B6  C$fb_lpc922.c$711$1$1              fb_lpc922
     0C:   000017B8  A$fb_lpc922$3021                   fb_lpc922
     0C:   000017BA  A$fb_lpc922$3025                   fb_lpc922
     0C:   000017BA  C$fb_lpc922.c$713$1$1              fb_lpc922
     0C:   000017BC  A$fb_lpc922$3026                   fb_lpc922
     0C:   000017BE  A$fb_lpc922$3029                   fb_lpc922
     0C:   000017BE  C$fb_lpc922.c$714$1$1              fb_lpc922
     0C:   000017BE  XG$find_ga$0$0                     fb_lpc922
     0C:   000017BF  A$fb_lpc922$3042                   fb_lpc922
     0C:   000017BF  C$fb_lpc922.c$719$1$1              fb_lpc922
     0C:   000017BF  C$fb_lpc922.c$721$1$1              fb_lpc922
     0C:   000017BF  G$restart_hw$0$0                   fb_lpc922
ASxxxx Linker V02.00 + NoICE + sdld,  page 103.
Hexadecimal  [32-Bits]

Area                                    Addr        Size        Decimal Bytes (Attributes)
--------------------------------        ----        ----        ------- ----- ------------
CSEG                                0000007F    00001793 =        6035. bytes (REL,CON,CODE)

      Value  Global                              Global Defined In Module
      -----  --------------------------------   ------------------------
     0C:   000017BF  _restart_hw                        fb_lpc922
     0C:   000017C2  A$fb_lpc922$3045                   fb_lpc922
     0C:   000017C2  C$fb_lpc922.c$723$1$1              fb_lpc922
     0C:   000017C5  A$fb_lpc922$3048                   fb_lpc922
     0C:   000017C5  C$fb_lpc922.c$724$1$1              fb_lpc922
     0C:   000017C8  A$fb_lpc922$3051                   fb_lpc922
     0C:   000017C8  C$fb_lpc922.c$728$1$1              fb_lpc922
     0C:   000017CA  A$fb_lpc922$3054                   fb_lpc922
     0C:   000017CA  C$fb_lpc922.c$730$1$1              fb_lpc922
     0C:   000017CD  A$fb_lpc922$3057                   fb_lpc922
     0C:   000017CD  C$fb_lpc922.c$731$1$1              fb_lpc922
     0C:   000017D0  A$fb_lpc922$3060                   fb_lpc922
     0C:   000017D0  C$fb_lpc922.c$732$1$1              fb_lpc922
     0C:   000017D2  A$fb_lpc922$3063                   fb_lpc922
     0C:   000017D2  C$fb_lpc922.c$733$1$1              fb_lpc922
     0C:   000017D4  A$fb_lpc922$3066                   fb_lpc922
     0C:   000017D4  C$fb_lpc922.c$734$1$1              fb_lpc922
     0C:   000017D7  A$fb_lpc922$3069                   fb_lpc922
     0C:   000017D7  C$fb_lpc922.c$735$1$1              fb_lpc922
     0C:   000017DA  A$fb_lpc922$3072                   fb_lpc922
     0C:   000017DA  C$fb_lpc922.c$736$1$1              fb_lpc922
     0C:   000017DC  A$fb_lpc922$3075                   fb_lpc922
     0C:   000017DC  C$fb_lpc922.c$743$1$1              fb_lpc922
     0C:   000017DE  A$fb_lpc922$3078                   fb_lpc922
     0C:   000017DE  C$fb_lpc922.c$744$1$1              fb_lpc922
     0C:   000017E1  A$fb_lpc922$3081                   fb_lpc922
     0C:   000017E1  C$fb_lpc922.c$745$1$1              fb_lpc922
     0C:   000017E4  A$fb_lpc922$3084                   fb_lpc922
     0C:   000017E4  C$fb_lpc922.c$752$1$1              fb_lpc922
     0C:   000017E7  A$fb_lpc922$3087                   fb_lpc922
     0C:   000017E7  C$fb_lpc922.c$753$1$1              fb_lpc922
     0C:   000017EA  A$fb_lpc922$3090                   fb_lpc922
     0C:   000017EA  C$fb_lpc922.c$754$1$1              fb_lpc922
     0C:   000017EC  A$fb_lpc922$3093                   fb_lpc922
     0C:   000017EC  C$fb_lpc922.c$756$1$1              fb_lpc922
     0C:   000017EF  A$fb_lpc922$3096                   fb_lpc922
     0C:   000017EF  C$fb_lpc922.c$758$1$1              fb_lpc922
     0C:   000017F1  A$fb_lpc922$3099                   fb_lpc922
     0C:   000017F1  C$fb_lpc922.c$759$1$1              fb_lpc922
     0C:   000017F3  A$fb_lpc922$3102                   fb_lpc922
     0C:   000017F3  C$fb_lpc922.c$760$1$1              fb_lpc922
     0C:   000017F5  A$fb_lpc922$3105                   fb_lpc922
     0C:   000017F5  C$fb_lpc922.c$761$1$1              fb_lpc922
     0C:   000017F7  A$fb_lpc922$3108                   fb_lpc922
     0C:   000017F7  C$fb_lpc922.c$762$1$1              fb_lpc922
     0C:   000017F9  A$fb_lpc922$3111                   fb_lpc922
     0C:   000017F9  C$fb_lpc922.c$763$1$1              fb_lpc922
     0C:   000017FB  A$fb_lpc922$3114                   fb_lpc922
     0C:   000017FB  C$fb_lpc922.c$764$1$1              fb_lpc922
     0C:   000017FE  A$fb_lpc922$3117                   fb_lpc922
     0C:   000017FE  C$fb_lpc922.c$765$1$1              fb_lpc922
ASxxxx Linker V02.00 + NoICE + sdld,  page 104.
Hexadecimal  [32-Bits]

Area                                    Addr        Size        Decimal Bytes (Attributes)
--------------------------------        ----        ----        ------- ----- ------------
CSEG                                0000007F    00001793 =        6035. bytes (REL,CON,CODE)

      Value  Global                              Global Defined In Module
      -----  --------------------------------   ------------------------
     0C:   00001801  A$fb_lpc922$3120                   fb_lpc922
     0C:   00001801  C$fb_lpc922.c$766$1$1              fb_lpc922
     0C:   00001804  A$fb_lpc922$3123                   fb_lpc922
     0C:   00001804  C$fb_lpc922.c$767$1$1              fb_lpc922
     0C:   00001806  A$fb_lpc922$3126                   fb_lpc922
     0C:   00001806  C$fb_lpc922.c$768$1$1              fb_lpc922
     0C:   00001808  A$fb_lpc922$3129                   fb_lpc922
     0C:   00001808  C$fb_lpc922.c$769$1$1              fb_lpc922
     0C:   0000180A  A$fb_lpc922$3132                   fb_lpc922
     0C:   0000180A  C$fb_lpc922.c$770$1$1              fb_lpc922
     0C:   0000180D  A$fb_lpc922$3135                   fb_lpc922
     0C:   0000180D  C$fb_lpc922.c$771$1$1              fb_lpc922
     0C:   0000180D  XG$restart_hw$0$0                  fb_lpc922
     0C:   0000180E  __sdcc_external_startup            _startup

ASxxxx Linker V02.00 + NoICE + sdld,  page 105.
Hexadecimal  [32-Bits]

Area                                    Addr        Size        Decimal Bytes (Attributes)
--------------------------------        ----        ----        ------- ----- ------------
CONST                               00001812    0000001C =          28. bytes (REL,CON,CODE)

      Value  Global                              Global Defined In Module
      -----  --------------------------------   ------------------------
     0C:   00001812  G$timerflagmask$0$0                fb_app_rollo10
     0C:   00001812  _timerflagmask                     fb_app_rollo10
     0C:   0000181E  G$svfaktorarray$0$0                fb_app_rollo10
     0C:   0000181E  _svfaktorarray                     fb_app_rollo10

ASxxxx Linker V02.00 + NoICE + sdld,  page 106.

Files Linked                              [ module(s) ]

fb_rollo10.rel                            [  ]
fb_app_rollo10.rel                        [  ]


Libraries Linked                          [ object file ]

C:\Freebus\C_Programme\oldisprogramm\lib_lpc922\Release/fb_lpc922.lib
                                          [ fb_lpc922 ]
C:\Programme\SDCC\bin\..\lib\small-stack-auto/mcs51.lib
                                          [ crtclear.rel ]
C:\Programme\SDCC\bin\..\lib\small-stack-auto/mcs51.lib
                                          [ crtxinit.rel ]
C:\Programme\SDCC\bin\..\lib\small-stack-auto/mcs51.lib
                                          [ crtxclear.rel ]
C:\Programme\SDCC\bin\..\lib\small-stack-auto/libsdcc.lib
                                          [ _bp.rel ]
C:\Programme\SDCC\bin\..\lib\small-stack-auto/mcs51.lib
                                          [ crtpagesfr.rel ]
C:\Programme\SDCC\bin\..\lib\small-stack-auto/mcs51.lib
                                          [ crtstart.rel ]
C:\Programme\SDCC\bin\..\lib\small-stack-auto/libsdcc.lib
                                          [ _startup.rel ]

ASxxxx Linker V02.00 + NoICE + sdld,  page 107.

User Base Address Definitions

HOME = 0x0000
ISEG = 0x0000
BSEG = 0x0000

