                              1 ;--------------------------------------------------------
                              2 ; File Created by SDCC : free open source ANSI-C Compiler
                              3 ; Version 3.1.0 #7066 (Nov 22 2011) (MINGW32)
                              4 ; This file was generated Sun Jun 23 16:20:03 2013
                              5 ;--------------------------------------------------------
                              6 	.module fb_app_rollo11
                              7 	.optsdcc -mmcs51 --model-small
                              8 	
                              9 ;--------------------------------------------------------
                             10 ; Public variables in this module
                             11 ;--------------------------------------------------------
                             12 	.globl _svfaktorarray
                             13 	.globl _timerflagmask
                             14 	.globl _read_objflags
                             15 	.globl _send_obj_value
                             16 	.globl _P3_1
                             17 	.globl _P3_0
                             18 	.globl _P1_7
                             19 	.globl _P1_6
                             20 	.globl _P1_5
                             21 	.globl _P1_4
                             22 	.globl _P1_3
                             23 	.globl _P1_2
                             24 	.globl _P1_1
                             25 	.globl _P1_0
                             26 	.globl _P0_7
                             27 	.globl _P0_6
                             28 	.globl _P0_5
                             29 	.globl _P0_4
                             30 	.globl _P0_3
                             31 	.globl _P0_2
                             32 	.globl _P0_1
                             33 	.globl _P0_0
                             34 	.globl _I2CON_0
                             35 	.globl _I2CON_2
                             36 	.globl _I2CON_3
                             37 	.globl _I2CON_4
                             38 	.globl _I2CON_5
                             39 	.globl _I2CON_6
                             40 	.globl _SCON_7
                             41 	.globl _SCON_6
                             42 	.globl _SCON_5
                             43 	.globl _SCON_4
                             44 	.globl _SCON_3
                             45 	.globl _SCON_2
                             46 	.globl _SCON_1
                             47 	.globl _SCON_0
                             48 	.globl _IP0_0
                             49 	.globl _IP0_1
                             50 	.globl _IP0_2
                             51 	.globl _IP0_3
                             52 	.globl _IP0_4
                             53 	.globl _IP0_5
                             54 	.globl _IP0_6
                             55 	.globl _IP1_0
                             56 	.globl _IP1_1
                             57 	.globl _IP1_2
                             58 	.globl _IP1_6
                             59 	.globl _IEN1_0
                             60 	.globl _IEN1_1
                             61 	.globl _IEN1_2
                             62 	.globl _IEN0_0
                             63 	.globl _IEN0_1
                             64 	.globl _IEN0_2
                             65 	.globl _IEN0_3
                             66 	.globl _IEN0_4
                             67 	.globl _IEN0_5
                             68 	.globl _IEN0_6
                             69 	.globl _IEN0_7
                             70 	.globl _TCON_0
                             71 	.globl _TCON_1
                             72 	.globl _TCON_2
                             73 	.globl _TCON_3
                             74 	.globl _TCON_4
                             75 	.globl _TCON_5
                             76 	.globl _TCON_6
                             77 	.globl _TCON_7
                             78 	.globl _PSW_7
                             79 	.globl _PSW_6
                             80 	.globl _PSW_5
                             81 	.globl _PSW_4
                             82 	.globl _PSW_3
                             83 	.globl _PSW_2
                             84 	.globl _PSW_1
                             85 	.globl _PSW_0
                             86 	.globl _IEN1
                             87 	.globl _IP0H
                             88 	.globl _WFEED2
                             89 	.globl _WFEED1
                             90 	.globl _WDL
                             91 	.globl _WDCON
                             92 	.globl _TRIM
                             93 	.globl _TAMOD
                             94 	.globl _SSTAT
                             95 	.globl _RTCL
                             96 	.globl _RTCH
                             97 	.globl _RTCCON
                             98 	.globl _RSTSRC
                             99 	.globl _PT0AD
                            100 	.globl _PCONA
                            101 	.globl _P3M2
                            102 	.globl _P3M1
                            103 	.globl _P1M2
                            104 	.globl _P1M1
                            105 	.globl _P0M2
                            106 	.globl _P0M1
                            107 	.globl _KBPATN
                            108 	.globl _KBMASK
                            109 	.globl _KBCON
                            110 	.globl _IP1H
                            111 	.globl _IP1
                            112 	.globl _I2STAT
                            113 	.globl _I2SCLL
                            114 	.globl _I2SCLH
                            115 	.globl _I2DAT
                            116 	.globl _I2CON
                            117 	.globl _I2ADR
                            118 	.globl _FMDATA
                            119 	.globl _FMCON
                            120 	.globl _FMADRL
                            121 	.globl _FMADRH
                            122 	.globl _DIVM
                            123 	.globl _CMP2
                            124 	.globl _CMP1
                            125 	.globl _BRGCON
                            126 	.globl _BRGR1
                            127 	.globl _BRGR0
                            128 	.globl _SADEN
                            129 	.globl _SADDR
                            130 	.globl _AUXR1
                            131 	.globl _SBUF
                            132 	.globl _SCON
                            133 	.globl _IP0
                            134 	.globl _IEN0
                            135 	.globl _TH1
                            136 	.globl _TH0
                            137 	.globl _TL1
                            138 	.globl _TL0
                            139 	.globl _TMOD
                            140 	.globl _TCON
                            141 	.globl _PCON
                            142 	.globl _DPH
                            143 	.globl _DPL
                            144 	.globl _SP
                            145 	.globl _B
                            146 	.globl _ACC
                            147 	.globl _PSW
                            148 	.globl _P3
                            149 	.globl _P1
                            150 	.globl _P0
                            151 	.globl _handmode
                            152 	.globl _state
                            153 	.globl _portchanged
                            154 	.globl _ledport
                            155 	.globl _knr
                            156 	.globl _kanal
                            157 	.globl _oldblockvalue
                            158 	.globl _zfstate
                            159 	.globl _blocked
                            160 	.globl _oldportbuffer
                            161 	.globl _portbuffer
                            162 	.globl _objects_smove
                            163 	.globl _objects_move
                            164 	.globl _Tval
                            165 	.globl _delay_toggle
                            166 	.globl _timer
                            167 	.globl _timerstate
                            168 	.globl _timercnt
                            169 	.globl _timerbase
                            170 	.globl _RAM
                            171 	.globl _write_value_req
                            172 	.globl _read_value_req
                            173 	.globl _read_obj_value
                            174 	.globl _write_obj_value
                            175 	.globl _Sobject_schalten
                            176 	.globl _object_schalten
                            177 	.globl _delay_timer
                            178 	.globl _handsteuerung
                            179 	.globl _sobj_update
                            180 	.globl _set_pause
                            181 	.globl _set_entriegeln
                            182 	.globl _port_schalten
                            183 	.globl _bus_return
                            184 	.globl _restart_app
                            185 ;--------------------------------------------------------
                            186 ; special function registers
                            187 ;--------------------------------------------------------
                            188 	.area RSEG    (ABS,DATA)
   0000                     189 	.org 0x0000
                    0080    190 G$P0$0$0 == 0x0080
                    0080    191 _P0	=	0x0080
                    0090    192 G$P1$0$0 == 0x0090
                    0090    193 _P1	=	0x0090
                    00B0    194 G$P3$0$0 == 0x00b0
                    00B0    195 _P3	=	0x00b0
                    00D0    196 G$PSW$0$0 == 0x00d0
                    00D0    197 _PSW	=	0x00d0
                    00E0    198 G$ACC$0$0 == 0x00e0
                    00E0    199 _ACC	=	0x00e0
                    00F0    200 G$B$0$0 == 0x00f0
                    00F0    201 _B	=	0x00f0
                    0081    202 G$SP$0$0 == 0x0081
                    0081    203 _SP	=	0x0081
                    0082    204 G$DPL$0$0 == 0x0082
                    0082    205 _DPL	=	0x0082
                    0083    206 G$DPH$0$0 == 0x0083
                    0083    207 _DPH	=	0x0083
                    0087    208 G$PCON$0$0 == 0x0087
                    0087    209 _PCON	=	0x0087
                    0088    210 G$TCON$0$0 == 0x0088
                    0088    211 _TCON	=	0x0088
                    0089    212 G$TMOD$0$0 == 0x0089
                    0089    213 _TMOD	=	0x0089
                    008A    214 G$TL0$0$0 == 0x008a
                    008A    215 _TL0	=	0x008a
                    008B    216 G$TL1$0$0 == 0x008b
                    008B    217 _TL1	=	0x008b
                    008C    218 G$TH0$0$0 == 0x008c
                    008C    219 _TH0	=	0x008c
                    008D    220 G$TH1$0$0 == 0x008d
                    008D    221 _TH1	=	0x008d
                    00A8    222 G$IEN0$0$0 == 0x00a8
                    00A8    223 _IEN0	=	0x00a8
                    00B8    224 G$IP0$0$0 == 0x00b8
                    00B8    225 _IP0	=	0x00b8
                    0098    226 G$SCON$0$0 == 0x0098
                    0098    227 _SCON	=	0x0098
                    0099    228 G$SBUF$0$0 == 0x0099
                    0099    229 _SBUF	=	0x0099
                    00A2    230 G$AUXR1$0$0 == 0x00a2
                    00A2    231 _AUXR1	=	0x00a2
                    00A9    232 G$SADDR$0$0 == 0x00a9
                    00A9    233 _SADDR	=	0x00a9
                    00B9    234 G$SADEN$0$0 == 0x00b9
                    00B9    235 _SADEN	=	0x00b9
                    00BE    236 G$BRGR0$0$0 == 0x00be
                    00BE    237 _BRGR0	=	0x00be
                    00BF    238 G$BRGR1$0$0 == 0x00bf
                    00BF    239 _BRGR1	=	0x00bf
                    00BD    240 G$BRGCON$0$0 == 0x00bd
                    00BD    241 _BRGCON	=	0x00bd
                    00AC    242 G$CMP1$0$0 == 0x00ac
                    00AC    243 _CMP1	=	0x00ac
                    00AD    244 G$CMP2$0$0 == 0x00ad
                    00AD    245 _CMP2	=	0x00ad
                    0095    246 G$DIVM$0$0 == 0x0095
                    0095    247 _DIVM	=	0x0095
                    00E7    248 G$FMADRH$0$0 == 0x00e7
                    00E7    249 _FMADRH	=	0x00e7
                    00E6    250 G$FMADRL$0$0 == 0x00e6
                    00E6    251 _FMADRL	=	0x00e6
                    00E4    252 G$FMCON$0$0 == 0x00e4
                    00E4    253 _FMCON	=	0x00e4
                    00E5    254 G$FMDATA$0$0 == 0x00e5
                    00E5    255 _FMDATA	=	0x00e5
                    00DB    256 G$I2ADR$0$0 == 0x00db
                    00DB    257 _I2ADR	=	0x00db
                    00D8    258 G$I2CON$0$0 == 0x00d8
                    00D8    259 _I2CON	=	0x00d8
                    00DA    260 G$I2DAT$0$0 == 0x00da
                    00DA    261 _I2DAT	=	0x00da
                    00DD    262 G$I2SCLH$0$0 == 0x00dd
                    00DD    263 _I2SCLH	=	0x00dd
                    00DC    264 G$I2SCLL$0$0 == 0x00dc
                    00DC    265 _I2SCLL	=	0x00dc
                    00D9    266 G$I2STAT$0$0 == 0x00d9
                    00D9    267 _I2STAT	=	0x00d9
                    00F8    268 G$IP1$0$0 == 0x00f8
                    00F8    269 _IP1	=	0x00f8
                    00F7    270 G$IP1H$0$0 == 0x00f7
                    00F7    271 _IP1H	=	0x00f7
                    0094    272 G$KBCON$0$0 == 0x0094
                    0094    273 _KBCON	=	0x0094
                    0086    274 G$KBMASK$0$0 == 0x0086
                    0086    275 _KBMASK	=	0x0086
                    0093    276 G$KBPATN$0$0 == 0x0093
                    0093    277 _KBPATN	=	0x0093
                    0084    278 G$P0M1$0$0 == 0x0084
                    0084    279 _P0M1	=	0x0084
                    0085    280 G$P0M2$0$0 == 0x0085
                    0085    281 _P0M2	=	0x0085
                    0091    282 G$P1M1$0$0 == 0x0091
                    0091    283 _P1M1	=	0x0091
                    0092    284 G$P1M2$0$0 == 0x0092
                    0092    285 _P1M2	=	0x0092
                    00B1    286 G$P3M1$0$0 == 0x00b1
                    00B1    287 _P3M1	=	0x00b1
                    00B2    288 G$P3M2$0$0 == 0x00b2
                    00B2    289 _P3M2	=	0x00b2
                    00B5    290 G$PCONA$0$0 == 0x00b5
                    00B5    291 _PCONA	=	0x00b5
                    00F6    292 G$PT0AD$0$0 == 0x00f6
                    00F6    293 _PT0AD	=	0x00f6
                    00DF    294 G$RSTSRC$0$0 == 0x00df
                    00DF    295 _RSTSRC	=	0x00df
                    00D1    296 G$RTCCON$0$0 == 0x00d1
                    00D1    297 _RTCCON	=	0x00d1
                    00D2    298 G$RTCH$0$0 == 0x00d2
                    00D2    299 _RTCH	=	0x00d2
                    00D3    300 G$RTCL$0$0 == 0x00d3
                    00D3    301 _RTCL	=	0x00d3
                    00BA    302 G$SSTAT$0$0 == 0x00ba
                    00BA    303 _SSTAT	=	0x00ba
                    008F    304 G$TAMOD$0$0 == 0x008f
                    008F    305 _TAMOD	=	0x008f
                    0096    306 G$TRIM$0$0 == 0x0096
                    0096    307 _TRIM	=	0x0096
                    00A7    308 G$WDCON$0$0 == 0x00a7
                    00A7    309 _WDCON	=	0x00a7
                    00C1    310 G$WDL$0$0 == 0x00c1
                    00C1    311 _WDL	=	0x00c1
                    00C2    312 G$WFEED1$0$0 == 0x00c2
                    00C2    313 _WFEED1	=	0x00c2
                    00C3    314 G$WFEED2$0$0 == 0x00c3
                    00C3    315 _WFEED2	=	0x00c3
                    00B7    316 G$IP0H$0$0 == 0x00b7
                    00B7    317 _IP0H	=	0x00b7
                    00E8    318 G$IEN1$0$0 == 0x00e8
                    00E8    319 _IEN1	=	0x00e8
                            320 ;--------------------------------------------------------
                            321 ; special function bits
                            322 ;--------------------------------------------------------
                            323 	.area RSEG    (ABS,DATA)
   0000                     324 	.org 0x0000
                    00D0    325 G$PSW_0$0$0 == 0x00d0
                    00D0    326 _PSW_0	=	0x00d0
                    00D1    327 G$PSW_1$0$0 == 0x00d1
                    00D1    328 _PSW_1	=	0x00d1
                    00D2    329 G$PSW_2$0$0 == 0x00d2
                    00D2    330 _PSW_2	=	0x00d2
                    00D3    331 G$PSW_3$0$0 == 0x00d3
                    00D3    332 _PSW_3	=	0x00d3
                    00D4    333 G$PSW_4$0$0 == 0x00d4
                    00D4    334 _PSW_4	=	0x00d4
                    00D5    335 G$PSW_5$0$0 == 0x00d5
                    00D5    336 _PSW_5	=	0x00d5
                    00D6    337 G$PSW_6$0$0 == 0x00d6
                    00D6    338 _PSW_6	=	0x00d6
                    00D7    339 G$PSW_7$0$0 == 0x00d7
                    00D7    340 _PSW_7	=	0x00d7
                    008F    341 G$TCON_7$0$0 == 0x008f
                    008F    342 _TCON_7	=	0x008f
                    008E    343 G$TCON_6$0$0 == 0x008e
                    008E    344 _TCON_6	=	0x008e
                    008D    345 G$TCON_5$0$0 == 0x008d
                    008D    346 _TCON_5	=	0x008d
                    008C    347 G$TCON_4$0$0 == 0x008c
                    008C    348 _TCON_4	=	0x008c
                    008B    349 G$TCON_3$0$0 == 0x008b
                    008B    350 _TCON_3	=	0x008b
                    008A    351 G$TCON_2$0$0 == 0x008a
                    008A    352 _TCON_2	=	0x008a
                    0089    353 G$TCON_1$0$0 == 0x0089
                    0089    354 _TCON_1	=	0x0089
                    0088    355 G$TCON_0$0$0 == 0x0088
                    0088    356 _TCON_0	=	0x0088
                    00AF    357 G$IEN0_7$0$0 == 0x00af
                    00AF    358 _IEN0_7	=	0x00af
                    00AE    359 G$IEN0_6$0$0 == 0x00ae
                    00AE    360 _IEN0_6	=	0x00ae
                    00AD    361 G$IEN0_5$0$0 == 0x00ad
                    00AD    362 _IEN0_5	=	0x00ad
                    00AC    363 G$IEN0_4$0$0 == 0x00ac
                    00AC    364 _IEN0_4	=	0x00ac
                    00AB    365 G$IEN0_3$0$0 == 0x00ab
                    00AB    366 _IEN0_3	=	0x00ab
                    00AA    367 G$IEN0_2$0$0 == 0x00aa
                    00AA    368 _IEN0_2	=	0x00aa
                    00A9    369 G$IEN0_1$0$0 == 0x00a9
                    00A9    370 _IEN0_1	=	0x00a9
                    00A8    371 G$IEN0_0$0$0 == 0x00a8
                    00A8    372 _IEN0_0	=	0x00a8
                    00EA    373 G$IEN1_2$0$0 == 0x00ea
                    00EA    374 _IEN1_2	=	0x00ea
                    00E9    375 G$IEN1_1$0$0 == 0x00e9
                    00E9    376 _IEN1_1	=	0x00e9
                    00E8    377 G$IEN1_0$0$0 == 0x00e8
                    00E8    378 _IEN1_0	=	0x00e8
                    00FE    379 G$IP1_6$0$0 == 0x00fe
                    00FE    380 _IP1_6	=	0x00fe
                    00FA    381 G$IP1_2$0$0 == 0x00fa
                    00FA    382 _IP1_2	=	0x00fa
                    00F9    383 G$IP1_1$0$0 == 0x00f9
                    00F9    384 _IP1_1	=	0x00f9
                    00F8    385 G$IP1_0$0$0 == 0x00f8
                    00F8    386 _IP1_0	=	0x00f8
                    00BE    387 G$IP0_6$0$0 == 0x00be
                    00BE    388 _IP0_6	=	0x00be
                    00BD    389 G$IP0_5$0$0 == 0x00bd
                    00BD    390 _IP0_5	=	0x00bd
                    00BC    391 G$IP0_4$0$0 == 0x00bc
                    00BC    392 _IP0_4	=	0x00bc
                    00BB    393 G$IP0_3$0$0 == 0x00bb
                    00BB    394 _IP0_3	=	0x00bb
                    00BA    395 G$IP0_2$0$0 == 0x00ba
                    00BA    396 _IP0_2	=	0x00ba
                    00B9    397 G$IP0_1$0$0 == 0x00b9
                    00B9    398 _IP0_1	=	0x00b9
                    00B8    399 G$IP0_0$0$0 == 0x00b8
                    00B8    400 _IP0_0	=	0x00b8
                    0098    401 G$SCON_0$0$0 == 0x0098
                    0098    402 _SCON_0	=	0x0098
                    0099    403 G$SCON_1$0$0 == 0x0099
                    0099    404 _SCON_1	=	0x0099
                    009A    405 G$SCON_2$0$0 == 0x009a
                    009A    406 _SCON_2	=	0x009a
                    009B    407 G$SCON_3$0$0 == 0x009b
                    009B    408 _SCON_3	=	0x009b
                    009C    409 G$SCON_4$0$0 == 0x009c
                    009C    410 _SCON_4	=	0x009c
                    009D    411 G$SCON_5$0$0 == 0x009d
                    009D    412 _SCON_5	=	0x009d
                    009E    413 G$SCON_6$0$0 == 0x009e
                    009E    414 _SCON_6	=	0x009e
                    009F    415 G$SCON_7$0$0 == 0x009f
                    009F    416 _SCON_7	=	0x009f
                    00DE    417 G$I2CON_6$0$0 == 0x00de
                    00DE    418 _I2CON_6	=	0x00de
                    00DD    419 G$I2CON_5$0$0 == 0x00dd
                    00DD    420 _I2CON_5	=	0x00dd
                    00DC    421 G$I2CON_4$0$0 == 0x00dc
                    00DC    422 _I2CON_4	=	0x00dc
                    00DB    423 G$I2CON_3$0$0 == 0x00db
                    00DB    424 _I2CON_3	=	0x00db
                    00DA    425 G$I2CON_2$0$0 == 0x00da
                    00DA    426 _I2CON_2	=	0x00da
                    00D8    427 G$I2CON_0$0$0 == 0x00d8
                    00D8    428 _I2CON_0	=	0x00d8
                    0080    429 G$P0_0$0$0 == 0x0080
                    0080    430 _P0_0	=	0x0080
                    0081    431 G$P0_1$0$0 == 0x0081
                    0081    432 _P0_1	=	0x0081
                    0082    433 G$P0_2$0$0 == 0x0082
                    0082    434 _P0_2	=	0x0082
                    0083    435 G$P0_3$0$0 == 0x0083
                    0083    436 _P0_3	=	0x0083
                    0084    437 G$P0_4$0$0 == 0x0084
                    0084    438 _P0_4	=	0x0084
                    0085    439 G$P0_5$0$0 == 0x0085
                    0085    440 _P0_5	=	0x0085
                    0086    441 G$P0_6$0$0 == 0x0086
                    0086    442 _P0_6	=	0x0086
                    0087    443 G$P0_7$0$0 == 0x0087
                    0087    444 _P0_7	=	0x0087
                    0090    445 G$P1_0$0$0 == 0x0090
                    0090    446 _P1_0	=	0x0090
                    0091    447 G$P1_1$0$0 == 0x0091
                    0091    448 _P1_1	=	0x0091
                    0092    449 G$P1_2$0$0 == 0x0092
                    0092    450 _P1_2	=	0x0092
                    0093    451 G$P1_3$0$0 == 0x0093
                    0093    452 _P1_3	=	0x0093
                    0094    453 G$P1_4$0$0 == 0x0094
                    0094    454 _P1_4	=	0x0094
                    0095    455 G$P1_5$0$0 == 0x0095
                    0095    456 _P1_5	=	0x0095
                    0096    457 G$P1_6$0$0 == 0x0096
                    0096    458 _P1_6	=	0x0096
                    0097    459 G$P1_7$0$0 == 0x0097
                    0097    460 _P1_7	=	0x0097
                    00B0    461 G$P3_0$0$0 == 0x00b0
                    00B0    462 _P3_0	=	0x00b0
                    00B1    463 G$P3_1$0$0 == 0x00b1
                    00B1    464 _P3_1	=	0x00b1
                            465 ;--------------------------------------------------------
                            466 ; overlayable register banks
                            467 ;--------------------------------------------------------
                            468 	.area REG_BANK_0	(REL,OVR,DATA)
   0000                     469 	.ds 8
                            470 ;--------------------------------------------------------
                            471 ; overlayable bit register bank
                            472 ;--------------------------------------------------------
                            473 	.area BIT_BANK	(REL,OVR,DATA)
   0000                     474 bits:
   0000                     475 	.ds 1
                    8000    476 	b0 = bits[0]
                    8100    477 	b1 = bits[1]
                    8200    478 	b2 = bits[2]
                    8300    479 	b3 = bits[3]
                    8400    480 	b4 = bits[4]
                    8500    481 	b5 = bits[5]
                    8600    482 	b6 = bits[6]
                    8700    483 	b7 = bits[7]
                            484 ;--------------------------------------------------------
                            485 ; internal ram data
                            486 ;--------------------------------------------------------
                            487 	.area DSEG    (DATA)
                    0000    488 G$RAM$0$0 == 0x0000
                    0000    489 _RAM	=	0x0000
                    0010    490 G$timerbase$0$0 == 0x0010
                    0010    491 _timerbase	=	0x0010
                    0000    492 G$timercnt$0$0==.
   0000                     493 _timercnt::
   0000                     494 	.ds 16
                    0010    495 G$timerstate$0$0==.
   0010                     496 _timerstate::
   0010                     497 	.ds 16
                    0009    498 G$timer$0$0 == 0x0009
                    0009    499 _timer	=	0x0009
                    0009    500 G$delay_toggle$0$0 == 0x0009
                    0009    501 _delay_toggle	=	0x0009
                    0020    502 G$Tval$0$0==.
   0020                     503 _Tval::
   0020                     504 	.ds 1
                    000B    505 G$objects_move$0$0 == 0x000b
                    000B    506 _objects_move	=	0x000b
                    000C    507 G$objects_smove$0$0 == 0x000c
                    000C    508 _objects_smove	=	0x000c
                    000D    509 G$portbuffer$0$0 == 0x000d
                    000D    510 _portbuffer	=	0x000d
                    000E    511 G$oldportbuffer$0$0 == 0x000e
                    000E    512 _oldportbuffer	=	0x000e
                    000F    513 G$blocked$0$0 == 0x000f
                    000F    514 _blocked	=	0x000f
                    0021    515 G$zfstate$0$0==.
   0021                     516 _zfstate::
   0021                     517 	.ds 1
                    0022    518 G$oldblockvalue$0$0==.
   0022                     519 _oldblockvalue::
   0022                     520 	.ds 1
                    0023    521 G$kanal$0$0==.
   0023                     522 _kanal::
   0023                     523 	.ds 4
                    0027    524 G$knr$0$0==.
   0027                     525 _knr::
   0027                     526 	.ds 1
                    0028    527 G$ledport$0$0==.
   0028                     528 _ledport::
   0028                     529 	.ds 1
                            530 ;--------------------------------------------------------
                            531 ; overlayable items in internal ram 
                            532 ;--------------------------------------------------------
                            533 	.area OSEG    (OVR,DATA)
                            534 ;--------------------------------------------------------
                            535 ; indirectly addressable internal ram data
                            536 ;--------------------------------------------------------
                            537 	.area ISEG    (DATA)
                            538 ;--------------------------------------------------------
                            539 ; absolute internal ram data
                            540 ;--------------------------------------------------------
                            541 	.area IABS    (ABS,DATA)
                            542 	.area IABS    (ABS,DATA)
                            543 ;--------------------------------------------------------
                            544 ; bit data
                            545 ;--------------------------------------------------------
                            546 	.area BSEG    (BIT)
                    0000    547 G$portchanged$0$0==.
   0000                     548 _portchanged::
   0000                     549 	.ds 1
                    0001    550 G$state$0$0==.
   0001                     551 _state::
   0001                     552 	.ds 1
                    0002    553 G$handmode$0$0==.
   0002                     554 _handmode::
   0002                     555 	.ds 1
                            556 ;--------------------------------------------------------
                            557 ; paged external ram data
                            558 ;--------------------------------------------------------
                            559 	.area PSEG    (PAG,XDATA)
                            560 ;--------------------------------------------------------
                            561 ; external ram data
                            562 ;--------------------------------------------------------
                            563 	.area XSEG    (XDATA)
                            564 ;--------------------------------------------------------
                            565 ; absolute external ram data
                            566 ;--------------------------------------------------------
                            567 	.area XABS    (ABS,XDATA)
                            568 ;--------------------------------------------------------
                            569 ; external initialized ram data
                            570 ;--------------------------------------------------------
                            571 	.area XISEG   (XDATA)
                            572 	.area HOME    (CODE)
                            573 	.area GSINIT0 (CODE)
                            574 	.area GSINIT1 (CODE)
                            575 	.area GSINIT2 (CODE)
                            576 	.area GSINIT3 (CODE)
                            577 	.area GSINIT4 (CODE)
                            578 	.area GSINIT5 (CODE)
                            579 	.area GSINIT  (CODE)
                            580 	.area GSFINAL (CODE)
                            581 	.area CSEG    (CODE)
                            582 ;--------------------------------------------------------
                            583 ; global & static initialisations
                            584 ;--------------------------------------------------------
                            585 	.area HOME    (CODE)
                            586 	.area GSINIT  (CODE)
                            587 	.area GSFINAL (CODE)
                            588 	.area GSINIT  (CODE)
                            589 ;--------------------------------------------------------
                            590 ; Home
                            591 ;--------------------------------------------------------
                            592 	.area HOME    (CODE)
                            593 	.area HOME    (CODE)
                            594 ;--------------------------------------------------------
                            595 ; code
                            596 ;--------------------------------------------------------
                            597 	.area CSEG    (CODE)
                            598 ;------------------------------------------------------------
                            599 ;Allocation info for local variables in function 'write_value_req'
                            600 ;------------------------------------------------------------
                            601 ;objno                     Allocated to registers r7 
                            602 ;------------------------------------------------------------
                    0000    603 	G$write_value_req$0$0 ==.
                    0000    604 	C$fb_app_rollo11.c$73$0$0 ==.
                            605 ;	..\fb_app_rollo11.c:73: void write_value_req(unsigned char objno) 				// Ausgänge schalten gemäß EIS 1 Protokoll (an/aus)
                            606 ;	-----------------------------------------
                            607 ;	 function write_value_req
                            608 ;	-----------------------------------------
   0000                     609 _write_value_req:
                    0007    610 	ar7 = 0x07
                    0006    611 	ar6 = 0x06
                    0005    612 	ar5 = 0x05
                    0004    613 	ar4 = 0x04
                    0003    614 	ar3 = 0x03
                    0002    615 	ar2 = 0x02
                    0001    616 	ar1 = 0x01
                    0000    617 	ar0 = 0x00
   0000 AF 82               618 	mov	r7,dpl
                    0002    619 	C$fb_app_rollo11.c$93$1$1 ==.
                            620 ;	..\fb_app_rollo11.c:93: if (objno<8 && !handmode) object_schalten(objno,telegramm[7]&0x01);	// Objektnummer 0-4 entspricht den Kanälen 1-4
   0002 BF 08 00            621 	cjne	r7,#0x08,00113$
   0005                     622 00113$:
   0005 50 19               623 	jnc	00102$
   0007 20*02 16            624 	jb	_handmode,00102$
   000A E5*07               625 	mov	a,(_telegramm + 0x0007)
   000C 54 01               626 	anl	a,#0x01
   000E 24 FF               627 	add	a,#0xff
   0010 92*00               628 	mov  b0,c
   0012 92 F0               629 	mov	b[0],c
   0014 C0 07               630 	push	ar7
   0016 85 F0*00            631 	mov	bits,b
   0019 8F 82               632 	mov	dpl,r7
   001B 12s02r8B            633 	lcall	_object_schalten
   001E D0 07               634 	pop	ar7
   0020                     635 00102$:
                    0020    636 	C$fb_app_rollo11.c$95$1$1 ==.
                            637 ;	..\fb_app_rollo11.c:95: if (objno>=16 && objno<=17)Sobject_schalten(objno,telegramm[7]&0x01);	// Objektnummer 16+17 entspricht den Sicherheitsfahrten 1 + 2
   0020 BF 10 00            638 	cjne	r7,#0x10,00116$
   0023                     639 00116$:
   0023 40 13               640 	jc	00107$
   0025 EF                  641 	mov	a,r7
   0026 24 EE               642 	add	a,#0xff - 0x11
   0028 40 0E               643 	jc	00107$
   002A 74 01               644 	mov	a,#0x01
   002C 55*07               645 	anl	a,(_telegramm + 0x0007)
   002E FE                  646 	mov	r6,a
   002F C0 06               647 	push	ar6
   0031 8F 82               648 	mov	dpl,r7
   0033 12s01r21            649 	lcall	_Sobject_schalten
   0036 15 81               650 	dec	sp
   0038                     651 00107$:
                    0038    652 	C$fb_app_rollo11.c$104$1$1 ==.
                    0038    653 	XG$write_value_req$0$0 ==.
   0038 22                  654 	ret
                            655 ;------------------------------------------------------------
                            656 ;Allocation info for local variables in function 'read_value_req'
                            657 ;------------------------------------------------------------
                            658 ;objno                     Allocated to registers r7 
                            659 ;------------------------------------------------------------
                    0039    660 	G$read_value_req$0$0 ==.
                    0039    661 	C$fb_app_rollo11.c$221$1$1 ==.
                            662 ;	..\fb_app_rollo11.c:221: void read_value_req(unsigned char objno)// Sendet nach Leseanfrage objektwert auf den BUS
                            663 ;	-----------------------------------------
                            664 ;	 function read_value_req
                            665 ;	-----------------------------------------
   0039                     666 _read_value_req:
   0039 AF 82               667 	mov	r7,dpl
                    003B    668 	C$fb_app_rollo11.c$223$1$1 ==.
                            669 ;	..\fb_app_rollo11.c:223: send_obj_value(objno+64);
   003B 74 40               670 	mov	a,#0x40
   003D 2F                  671 	add	a,r7
   003E F5 82               672 	mov	dpl,a
   0040 12s00r00            673 	lcall	_send_obj_value
                    0043    674 	C$fb_app_rollo11.c$237$1$1 ==.
                    0043    675 	XG$read_value_req$0$0 ==.
   0043 22                  676 	ret
                            677 ;------------------------------------------------------------
                            678 ;Allocation info for local variables in function 'read_obj_value'
                            679 ;------------------------------------------------------------
                            680 ;objno                     Allocated to registers r7 
                            681 ;ret_val                   Allocated to registers r6 
                            682 ;------------------------------------------------------------
                    0044    683 	G$read_obj_value$0$0 ==.
                    0044    684 	C$fb_app_rollo11.c$240$1$1 ==.
                            685 ;	..\fb_app_rollo11.c:240: unsigned long read_obj_value(unsigned char objno) 	// gibt den Wert eines Objektes zurueck
                            686 ;	-----------------------------------------
                            687 ;	 function read_obj_value
                            688 ;	-----------------------------------------
   0044                     689 _read_obj_value:
   0044 AF 82               690 	mov	r7,dpl
                    0046    691 	C$fb_app_rollo11.c$242$1$1 ==.
                            692 ;	..\fb_app_rollo11.c:242: unsigned char ret_val=0;
   0046 7E 00               693 	mov	r6,#0x00
                    0048    694 	C$fb_app_rollo11.c$244$1$1 ==.
                            695 ;	..\fb_app_rollo11.c:244: if(objno<8) {
   0048 BF 08 00            696 	cjne	r7,#0x08,00113$
   004B                     697 00113$:
   004B 50 25               698 	jnc	00106$
                    004D    699 	C$fb_app_rollo11.c$245$2$2 ==.
                            700 ;	..\fb_app_rollo11.c:245: if(objects_move &(1<<objno)) ret_val=1;
   004D 8F F0               701 	mov	b,r7
   004F 05 F0               702 	inc	b
   0051 7C 01               703 	mov	r4,#0x01
   0053 7D 00               704 	mov	r5,#0x00
   0055 80 06               705 	sjmp	00116$
   0057                     706 00115$:
   0057 EC                  707 	mov	a,r4
   0058 2C                  708 	add	a,r4
   0059 FC                  709 	mov	r4,a
   005A ED                  710 	mov	a,r5
   005B 33                  711 	rlc	a
   005C FD                  712 	mov	r5,a
   005D                     713 00116$:
   005D D5 F0 F7            714 	djnz	b,00115$
   0060 AA 0B               715 	mov	r2,_objects_move
   0062 7B 00               716 	mov	r3,#0x00
   0064 EA                  717 	mov	a,r2
   0065 52 04               718 	anl	ar4,a
   0067 EB                  719 	mov	a,r3
   0068 52 05               720 	anl	ar5,a
   006A EC                  721 	mov	a,r4
   006B 4D                  722 	orl	a,r5
   006C 60 30               723 	jz	00107$
   006E 7E 01               724 	mov	r6,#0x01
   0070 80 2C               725 	sjmp	00107$
   0072                     726 00106$:
                    0072    727 	C$fb_app_rollo11.c$248$2$3 ==.
                            728 ;	..\fb_app_rollo11.c:248: if(objects_smove&(1<<(objno-16))) ret_val=1;
   0072 7D 00               729 	mov	r5,#0x00
   0074 EF                  730 	mov	a,r7
   0075 24 F0               731 	add	a,#0xF0
   0077 FF                  732 	mov	r7,a
   0078 ED                  733 	mov	a,r5
   0079 34 FF               734 	addc	a,#0xFF
   007B 8F F0               735 	mov	b,r7
   007D 05 F0               736 	inc	b
   007F 7F 01               737 	mov	r7,#0x01
   0081 7D 00               738 	mov	r5,#0x00
   0083 80 06               739 	sjmp	00119$
   0085                     740 00118$:
   0085 EF                  741 	mov	a,r7
   0086 2F                  742 	add	a,r7
   0087 FF                  743 	mov	r7,a
   0088 ED                  744 	mov	a,r5
   0089 33                  745 	rlc	a
   008A FD                  746 	mov	r5,a
   008B                     747 00119$:
   008B D5 F0 F7            748 	djnz	b,00118$
   008E AB 0C               749 	mov	r3,_objects_smove
   0090 7C 00               750 	mov	r4,#0x00
   0092 EB                  751 	mov	a,r3
   0093 52 07               752 	anl	ar7,a
   0095 EC                  753 	mov	a,r4
   0096 52 05               754 	anl	ar5,a
   0098 EF                  755 	mov	a,r7
   0099 4D                  756 	orl	a,r5
   009A 60 02               757 	jz	00107$
   009C 7E 01               758 	mov	r6,#0x01
   009E                     759 00107$:
                    009E    760 	C$fb_app_rollo11.c$250$1$1 ==.
                            761 ;	..\fb_app_rollo11.c:250: return(ret_val);
   009E 7F 00               762 	mov	r7,#0x00
   00A0 7D 00               763 	mov	r5,#0x00
   00A2 7C 00               764 	mov	r4,#0x00
   00A4 8E 82               765 	mov	dpl,r6
   00A6 8F 83               766 	mov	dph,r7
   00A8 8D F0               767 	mov	b,r5
   00AA EC                  768 	mov	a,r4
                    00AB    769 	C$fb_app_rollo11.c$251$1$1 ==.
                    00AB    770 	XG$read_obj_value$0$0 ==.
   00AB 22                  771 	ret
                            772 ;------------------------------------------------------------
                            773 ;Allocation info for local variables in function 'write_obj_value'
                            774 ;------------------------------------------------------------
                            775 ;objvalue                  Allocated to stack - _bp -4
                            776 ;objno                     Allocated to registers r7 
                            777 ;------------------------------------------------------------
                    00AC    778 	G$write_obj_value$0$0 ==.
                    00AC    779 	C$fb_app_rollo11.c$254$1$1 ==.
                            780 ;	..\fb_app_rollo11.c:254: void write_obj_value(unsigned char objno,unsigned int objvalue)	// schreibt den aktuellen Wert eines Objektes ins 'USERRAM'
                            781 ;	-----------------------------------------
                            782 ;	 function write_obj_value
                            783 ;	-----------------------------------------
   00AC                     784 _write_obj_value:
   00AC C0*00               785 	push	_bp
   00AE 85 81*00            786 	mov	_bp,sp
   00B1 AF 82               787 	mov	r7,dpl
                    00B3    788 	C$fb_app_rollo11.c$256$1$1 ==.
                            789 ;	..\fb_app_rollo11.c:256: if(objno<8) {// kurz und lanzeit
   00B3 BF 08 00            790 	cjne	r7,#0x08,00115$
   00B6                     791 00115$:
   00B6 50 32               792 	jnc	00108$
                    00B8    793 	C$fb_app_rollo11.c$257$2$2 ==.
                            794 ;	..\fb_app_rollo11.c:257: if(objvalue==0) objects_move &= 0xFF-(1<<objno);
   00B8 E5*00               795 	mov	a,_bp
   00BA 24 FC               796 	add	a,#0xfc
   00BC F8                  797 	mov	r0,a
   00BD E6                  798 	mov	a,@r0
   00BE 08                  799 	inc	r0
   00BF 46                  800 	orl	a,@r0
   00C0 70 16               801 	jnz	00102$
   00C2 8F F0               802 	mov	b,r7
   00C4 05 F0               803 	inc	b
   00C6 74 01               804 	mov	a,#0x01
   00C8 80 02               805 	sjmp	00120$
   00CA                     806 00118$:
   00CA 25 E0               807 	add	a,acc
   00CC                     808 00120$:
   00CC D5 F0 FB            809 	djnz	b,00118$
   00CF FE                  810 	mov	r6,a
   00D0 74 FF               811 	mov	a,#0xFF
   00D2 C3                  812 	clr	c
   00D3 9E                  813 	subb	a,r6
   00D4 52 0B               814 	anl	_objects_move,a
   00D6 80 46               815 	sjmp	00110$
   00D8                     816 00102$:
                    00D8    817 	C$fb_app_rollo11.c$258$2$2 ==.
                            818 ;	..\fb_app_rollo11.c:258: else objects_move |=1<<objno;
   00D8 8F F0               819 	mov	b,r7
   00DA 05 F0               820 	inc	b
   00DC 74 01               821 	mov	a,#0x01
   00DE 80 02               822 	sjmp	00123$
   00E0                     823 00121$:
   00E0 25 E0               824 	add	a,acc
   00E2                     825 00123$:
   00E2 D5 F0 FB            826 	djnz	b,00121$
   00E5 FE                  827 	mov	r6,a
   00E6 42 0B               828 	orl	_objects_move,a
   00E8 80 34               829 	sjmp	00110$
   00EA                     830 00108$:
                    00EA    831 	C$fb_app_rollo11.c$261$2$3 ==.
                            832 ;	..\fb_app_rollo11.c:261: objno-=16;// sicherheitsfahrt 16+17
   00EA EF                  833 	mov	a,r7
   00EB 24 F0               834 	add	a,#0xF0
   00ED FF                  835 	mov	r7,a
                    00EE    836 	C$fb_app_rollo11.c$262$2$3 ==.
                            837 ;	..\fb_app_rollo11.c:262: if(objvalue==0) objects_smove &= (0xFF-(1<<objno));
   00EE E5*00               838 	mov	a,_bp
   00F0 24 FC               839 	add	a,#0xfc
   00F2 F8                  840 	mov	r0,a
   00F3 E6                  841 	mov	a,@r0
   00F4 08                  842 	inc	r0
   00F5 46                  843 	orl	a,@r0
   00F6 70 16               844 	jnz	00105$
   00F8 8F F0               845 	mov	b,r7
   00FA 05 F0               846 	inc	b
   00FC 74 01               847 	mov	a,#0x01
   00FE 80 02               848 	sjmp	00127$
   0100                     849 00125$:
   0100 25 E0               850 	add	a,acc
   0102                     851 00127$:
   0102 D5 F0 FB            852 	djnz	b,00125$
   0105 FE                  853 	mov	r6,a
   0106 74 FF               854 	mov	a,#0xFF
   0108 C3                  855 	clr	c
   0109 9E                  856 	subb	a,r6
   010A 52 0C               857 	anl	_objects_smove,a
   010C 80 10               858 	sjmp	00110$
   010E                     859 00105$:
                    010E    860 	C$fb_app_rollo11.c$263$2$3 ==.
                            861 ;	..\fb_app_rollo11.c:263: else objects_smove |=1<<objno;
   010E 8F F0               862 	mov	b,r7
   0110 05 F0               863 	inc	b
   0112 74 01               864 	mov	a,#0x01
   0114 80 02               865 	sjmp	00130$
   0116                     866 00128$:
   0116 25 E0               867 	add	a,acc
   0118                     868 00130$:
   0118 D5 F0 FB            869 	djnz	b,00128$
   011B FF                  870 	mov	r7,a
   011C 42 0C               871 	orl	_objects_smove,a
   011E                     872 00110$:
   011E D0*00               873 	pop	_bp
                    0120    874 	C$fb_app_rollo11.c$265$1$1 ==.
                    0120    875 	XG$write_obj_value$0$0 ==.
   0120 22                  876 	ret
                            877 ;------------------------------------------------------------
                            878 ;Allocation info for local variables in function 'Sobject_schalten'
                            879 ;------------------------------------------------------------
                            880 ;val                       Allocated to stack - _bp -3
                            881 ;objno                     Allocated to registers r7 
                            882 ;k                         Allocated to registers r5 
                            883 ;zuordnung                 Allocated to registers r7 
                            884 ;sobj                      Allocated to registers r6 
                            885 ;blockstart                Allocated to registers r7 
                            886 ;blockend                  Allocated to registers r6 
                            887 ;action                    Allocated to registers r4 
                            888 ;------------------------------------------------------------
                    0121    889 	G$Sobject_schalten$0$0 ==.
                    0121    890 	C$fb_app_rollo11.c$267$1$1 ==.
                            891 ;	..\fb_app_rollo11.c:267: void Sobject_schalten(unsigned char objno,unsigned char val)// Schaltet die Sicherheitsfunktionen
                            892 ;	-----------------------------------------
                            893 ;	 function Sobject_schalten
                            894 ;	-----------------------------------------
   0121                     895 _Sobject_schalten:
   0121 C0*00               896 	push	_bp
   0123 85 81*00            897 	mov	_bp,sp
                    0126    898 	C$fb_app_rollo11.c$271$1$1 ==.
                            899 ;	..\fb_app_rollo11.c:271: if (objno >18){				// wenn bypass aus delay timer...
   0126 E5 82               900 	mov	a,dpl
   0128 FF                  901 	mov	r7,a
   0129 24 ED               902 	add	a,#0xff - 0x12
   012B 50 0F               903 	jnc	00102$
                    012D    904 	C$fb_app_rollo11.c$272$2$2 ==.
                            905 ;	..\fb_app_rollo11.c:272: sobj=objno&0x01;	// dann sobj ausfiltern
   012D 74 01               906 	mov	a,#0x01
   012F 5F                  907 	anl	a,r7
   0130 FE                  908 	mov	r6,a
                    0131    909 	C$fb_app_rollo11.c$273$2$2 ==.
                            910 ;	..\fb_app_rollo11.c:273: state=0;				//state so setzen damit sperre aktiv wird
   0131 C2*01               911 	clr	_state
                    0133    912 	C$fb_app_rollo11.c$274$2$2 ==.
                            913 ;	..\fb_app_rollo11.c:274: val=0x01;		// dto für objektvalue
   0133 E5*00               914 	mov	a,_bp
   0135 24 FD               915 	add	a,#0xfd
   0137 F8                  916 	mov	r0,a
   0138 76 01               917 	mov	@r0,#0x01
   013A 80 31               918 	sjmp	00103$
   013C                     919 00102$:
                    013C    920 	C$fb_app_rollo11.c$277$2$3 ==.
                            921 ;	..\fb_app_rollo11.c:277: sobj=objno-16;				//sobj ("Sicherheitsobjektnummer")ist also 0 für Sicherheit1, 1 für Si 2
   013C EF                  922 	mov	a,r7
   013D 24 F0               923 	add	a,#0xF0
   013F FE                  924 	mov	r6,a
                    0140    925 	C$fb_app_rollo11.c$278$2$3 ==.
                            926 ;	..\fb_app_rollo11.c:278: state=!((eeprom[0xE2])& (0x40<<sobj));//Polarität
   0140 90s00rE2            927 	mov	dptr,#(_eeprom + 0x00e2)
   0143 E4                  928 	clr	a
   0144 93                  929 	movc	a,@a+dptr
   0145 FD                  930 	mov	r5,a
   0146 8E F0               931 	mov	b,r6
   0148 05 F0               932 	inc	b
   014A 7B 40               933 	mov	r3,#0x40
   014C 7C 00               934 	mov	r4,#0x00
   014E 80 06               935 	sjmp	00132$
   0150                     936 00131$:
   0150 EB                  937 	mov	a,r3
   0151 2B                  938 	add	a,r3
   0152 FB                  939 	mov	r3,a
   0153 EC                  940 	mov	a,r4
   0154 33                  941 	rlc	a
   0155 FC                  942 	mov	r4,a
   0156                     943 00132$:
   0156 D5 F0 F7            944 	djnz	b,00131$
   0159 7A 00               945 	mov	r2,#0x00
   015B ED                  946 	mov	a,r5
   015C 52 03               947 	anl	ar3,a
   015E EA                  948 	mov	a,r2
   015F 52 04               949 	anl	ar4,a
   0161 EB                  950 	mov	a,r3
   0162 4C                  951 	orl	a,r4
   0163 B4 01 00            952 	cjne	a,#0x01,00133$
   0166                     953 00133$:
   0166 E4                  954 	clr	a
   0167 33                  955 	rlc	a
   0168 FB                  956 	mov	r3,a
   0169 24 FF               957 	add	a,#0xff
   016B 92*01               958 	mov	_state,c
   016D                     959 00103$:
                    016D    960 	C$fb_app_rollo11.c$281$1$1 ==.
                            961 ;	..\fb_app_rollo11.c:281: write_obj_value(objno & 0x1F ,val);		// Objektwert im userram speichern
   016D E5*00               962 	mov	a,_bp
   016F 24 FD               963 	add	a,#0xfd
   0171 F8                  964 	mov	r0,a
   0172 86 04               965 	mov	ar4,@r0
   0174 7D 00               966 	mov	r5,#0x00
   0176 53 07 1F            967 	anl	ar7,#0x1F
   0179 C0 06               968 	push	ar6
   017B C0 04               969 	push	ar4
   017D C0 05               970 	push	ar5
   017F 8F 82               971 	mov	dpl,r7
   0181 12s00rAC            972 	lcall	_write_obj_value
   0184 15 81               973 	dec	sp
   0186 15 81               974 	dec	sp
   0188 D0 06               975 	pop	ar6
                    018A    976 	C$fb_app_rollo11.c$283$1$1 ==.
                            977 ;	..\fb_app_rollo11.c:283: if (state^(__bit)val) zfstate=zfstate |(0x0F<<(sobj<<2));// setzen der sicherhfahrt 1 in zfstate, xor verknüpft die polarität
   018A E5*00               978 	mov	a,_bp
   018C 24 FD               979 	add	a,#0xfd
   018E F8                  980 	mov	r0,a
   018F E6                  981 	mov	a,@r0
   0190 24 FF               982 	add	a,#0xff
   0192 92*00               983 	mov  b0,c
   0194 30*01 01            984 	jnb	_state,00134$
   0197 B3                  985 	cpl	c
   0198                     986 00134$:
   0198 50 17               987 	jnc	00105$
   019A EE                  988 	mov	a,r6
   019B 2E                  989 	add	a,r6
   019C 25 E0               990 	add	a,acc
   019E FF                  991 	mov	r7,a
   019F 8F F0               992 	mov	b,r7
   01A1 05 F0               993 	inc	b
   01A3 74 0F               994 	mov	a,#0x0F
   01A5 80 02               995 	sjmp	00138$
   01A7                     996 00136$:
   01A7 25 E0               997 	add	a,acc
   01A9                     998 00138$:
   01A9 D5 F0 FB            999 	djnz	b,00136$
   01AC FF                 1000 	mov	r7,a
   01AD 42*21              1001 	orl	_zfstate,a
   01AF 80 21              1002 	sjmp	00106$
   01B1                    1003 00105$:
                    01B1   1004 	C$fb_app_rollo11.c$285$2$4 ==.
                           1005 ;	..\fb_app_rollo11.c:285: zfstate=zfstate & (0xFF-(0x0F<<(sobj<<2)));//in zfstate sind für sich1 0F und sich2 F0
   01B1 EE                 1006 	mov	a,r6
   01B2 2E                 1007 	add	a,r6
   01B3 25 E0              1008 	add	a,acc
   01B5 FF                 1009 	mov	r7,a
   01B6 8F F0              1010 	mov	b,r7
   01B8 05 F0              1011 	inc	b
   01BA 74 0F              1012 	mov	a,#0x0F
   01BC 80 02              1013 	sjmp	00141$
   01BE                    1014 00139$:
   01BE 25 E0              1015 	add	a,acc
   01C0                    1016 00141$:
   01C0 D5 F0 FB           1017 	djnz	b,00139$
   01C3 FF                 1018 	mov	r7,a
   01C4 74 FF              1019 	mov	a,#0xFF
   01C6 C3                 1020 	clr	c
   01C7 9F                 1021 	subb	a,r7
   01C8 52*21              1022 	anl	_zfstate,a
                    01CA   1023 	C$fb_app_rollo11.c$286$2$4 ==.
                           1024 ;	..\fb_app_rollo11.c:286: set_entriegeln(sobj + 9);// Update objekt macht refresh auf Zeit 9/10  Zyklusüberwachung
   01CA 74 09              1025 	mov	a,#0x09
   01CC 2E                 1026 	add	a,r6
   01CD F5 82              1027 	mov	dpl,a
   01CF 12s09rA3           1028 	lcall	_set_entriegeln
   01D2                    1029 00106$:
                    01D2   1030 	C$fb_app_rollo11.c$288$1$1 ==.
                           1031 ;	..\fb_app_rollo11.c:288: zuordnung=eeprom[0xF1] & zfstate;//in zuordnung jetzt eine 1 für jede sicherheit 
   01D2 90s00rF1           1032 	mov	dptr,#(_eeprom + 0x00f1)
   01D5 E4                 1033 	clr	a
   01D6 93                 1034 	movc	a,@a+dptr
   01D7 FF                 1035 	mov	r7,a
   01D8 E5*21              1036 	mov	a,_zfstate
   01DA 52 07              1037 	anl	ar7,a
                    01DC   1038 	C$fb_app_rollo11.c$289$1$1 ==.
                           1039 ;	..\fb_app_rollo11.c:289: blocked =zuordnung |((zuordnung >>4) | (zuordnung<<4)); //beide Sicherheitsergebnisse verodern..
   01DC EF                 1040 	mov	a,r7
   01DD C4                 1041 	swap	a
   01DE 4F                 1042 	orl	a,r7
   01DF F5 0F              1043 	mov	_blocked,a
                    01E1   1044 	C$fb_app_rollo11.c$291$1$1 ==.
                           1045 ;	..\fb_app_rollo11.c:291: blockstart= blocked & ~oldblockvalue;//steigende Flanke der Blockade(sicherheit)
   01E1 E5*22              1046 	mov	a,_oldblockvalue
   01E3 F4                 1047 	cpl	a
   01E4 FF                 1048 	mov	r7,a
   01E5 E5 0F              1049 	mov	a,_blocked
   01E7 52 07              1050 	anl	ar7,a
                    01E9   1051 	C$fb_app_rollo11.c$292$1$1 ==.
                           1052 ;	..\fb_app_rollo11.c:292: blockend= ~blocked & oldblockvalue;	//fallende Flanke der Blockade(sicherheit)
   01E9 E5 0F              1053 	mov	a,_blocked
   01EB F4                 1054 	cpl	a
   01EC FE                 1055 	mov	r6,a
   01ED E5*22              1056 	mov	a,_oldblockvalue
   01EF 52 06              1057 	anl	ar6,a
                    01F1   1058 	C$fb_app_rollo11.c$296$1$1 ==.
                           1059 ;	..\fb_app_rollo11.c:296: if (!handmode){
   01F1 30*02 03           1060 	jnb	_handmode,00142$
   01F4 02s02r88           1061 	ljmp	00119$
   01F7                    1062 00142$:
                    01F7   1063 	C$fb_app_rollo11.c$297$2$5 ==.
                           1064 ;	..\fb_app_rollo11.c:297: oldblockvalue=blocked;
   01F7 85 0F*22           1065 	mov	_oldblockvalue,_blocked
                    01FA   1066 	C$fb_app_rollo11.c$299$2$1 ==.
                           1067 ;	..\fb_app_rollo11.c:299: for (k=0;k<=3;k++){		//für die 4 Kanäle die Sicherheitsfuntionen schalten
   01FA 7D 00              1068 	mov	r5,#0x00
   01FC                    1069 00115$:
   01FC ED                 1070 	mov	a,r5
   01FD 24 FC              1071 	add	a,#0xff - 0x03
   01FF 50 03              1072 	jnc	00143$
   0201 02s02r88           1073 	ljmp	00119$
   0204                    1074 00143$:
                    0204   1075 	C$fb_app_rollo11.c$300$3$6 ==.
                           1076 ;	..\fb_app_rollo11.c:300: action=0;
   0204 7C 00              1077 	mov	r4,#0x00
                    0206   1078 	C$fb_app_rollo11.c$301$3$6 ==.
                           1079 ;	..\fb_app_rollo11.c:301: if(blockstart & 0x01){
   0206 EF                 1080 	mov	a,r7
   0207 30 E0 24           1081 	jnb	acc.0,00108$
                    020A   1082 	C$fb_app_rollo11.c$302$2$1 ==.
                           1083 ;	..\fb_app_rollo11.c:302: action=(eeprom[0xF0]>>(k<<1))&0x03;
   020A C0 06              1084 	push	ar6
   020C 90s00rF0           1085 	mov	dptr,#(_eeprom + 0x00f0)
   020F E4                 1086 	clr	a
   0210 93                 1087 	movc	a,@a+dptr
   0211 FB                 1088 	mov	r3,a
   0212 8D 02              1089 	mov	ar2,r5
   0214 E4                 1090 	clr	a
   0215 CA                 1091 	xch	a,r2
   0216 25 E0              1092 	add	a,acc
   0218 CA                 1093 	xch	a,r2
   0219 33                 1094 	rlc	a
   021A FE                 1095 	mov	r6,a
   021B 8A F0              1096 	mov	b,r2
   021D 05 F0              1097 	inc	b
   021F EB                 1098 	mov	a,r3
   0220 80 02              1099 	sjmp	00146$
   0222                    1100 00145$:
   0222 C3                 1101 	clr	c
   0223 13                 1102 	rrc	a
   0224                    1103 00146$:
   0224 D5 F0 FB           1104 	djnz	b,00145$
   0227 FB                 1105 	mov	r3,a
   0228 74 03              1106 	mov	a,#0x03
   022A 5B                 1107 	anl	a,r3
   022B FC                 1108 	mov	r4,a
                    022C   1109 	C$fb_app_rollo11.c$299$2$1 ==.
                           1110 ;	..\fb_app_rollo11.c:299: for (k=0;k<=3;k++){		//für die 4 Kanäle die Sicherheitsfuntionen schalten
   022C D0 06              1111 	pop	ar6
                    022E   1112 	C$fb_app_rollo11.c$302$3$6 ==.
                           1113 ;	..\fb_app_rollo11.c:302: action=(eeprom[0xF0]>>(k<<1))&0x03;
   022E                    1114 00108$:
                    022E   1115 	C$fb_app_rollo11.c$304$3$6 ==.
                           1116 ;	..\fb_app_rollo11.c:304: if(blockend & 0x01){
   022E EE                 1117 	mov	a,r6
   022F 30 E0 24           1118 	jnb	acc.0,00110$
                    0232   1119 	C$fb_app_rollo11.c$305$2$1 ==.
                           1120 ;	..\fb_app_rollo11.c:305: action=(eeprom[0xEF]>>(k<<1))&0x03;
   0232 C0 06              1121 	push	ar6
   0234 90s00rEF           1122 	mov	dptr,#(_eeprom + 0x00ef)
   0237 E4                 1123 	clr	a
   0238 93                 1124 	movc	a,@a+dptr
   0239 FB                 1125 	mov	r3,a
   023A 8D 02              1126 	mov	ar2,r5
   023C E4                 1127 	clr	a
   023D CA                 1128 	xch	a,r2
   023E 25 E0              1129 	add	a,acc
   0240 CA                 1130 	xch	a,r2
   0241 33                 1131 	rlc	a
   0242 FE                 1132 	mov	r6,a
   0243 8A F0              1133 	mov	b,r2
   0245 05 F0              1134 	inc	b
   0247 EB                 1135 	mov	a,r3
   0248 80 02              1136 	sjmp	00149$
   024A                    1137 00148$:
   024A C3                 1138 	clr	c
   024B 13                 1139 	rrc	a
   024C                    1140 00149$:
   024C D5 F0 FB           1141 	djnz	b,00148$
   024F FB                 1142 	mov	r3,a
   0250 74 03              1143 	mov	a,#0x03
   0252 5B                 1144 	anl	a,r3
   0253 FC                 1145 	mov	r4,a
                    0254   1146 	C$fb_app_rollo11.c$299$2$1 ==.
                           1147 ;	..\fb_app_rollo11.c:299: for (k=0;k<=3;k++){		//für die 4 Kanäle die Sicherheitsfuntionen schalten
   0254 D0 06              1148 	pop	ar6
                    0256   1149 	C$fb_app_rollo11.c$305$3$6 ==.
                           1150 ;	..\fb_app_rollo11.c:305: action=(eeprom[0xEF]>>(k<<1))&0x03;
   0256                    1151 00110$:
                    0256   1152 	C$fb_app_rollo11.c$307$3$6 ==.
                           1153 ;	..\fb_app_rollo11.c:307: if(action){
   0256 EC                 1154 	mov	a,r4
   0257 60 23              1155 	jz	00112$
                    0259   1156 	C$fb_app_rollo11.c$308$4$9 ==.
                           1157 ;	..\fb_app_rollo11.c:308: object_schalten(k+12,action>>1);
   0259 EC                 1158 	mov	a,r4
   025A C3                 1159 	clr	c
   025B 13                 1160 	rrc	a
   025C 24 FF              1161 	add	a,#0xff
   025E 92*00              1162 	mov	b0,c
   0260 74 0C              1163 	mov	a,#0x0C
   0262 2D                 1164 	add	a,r5
   0263 FC                 1165 	mov	r4,a
   0264 A2*00              1166 	mov	c,b0
   0266 92 F0              1167 	mov	b[0],c
   0268 C0 07              1168 	push	ar7
   026A C0 06              1169 	push	ar6
   026C C0 05              1170 	push	ar5
   026E 85 F0*00           1171 	mov	bits,b
   0271 8C 82              1172 	mov	dpl,r4
   0273 12s02r8B           1173 	lcall	_object_schalten
   0276 D0 05              1174 	pop	ar5
   0278 D0 06              1175 	pop	ar6
   027A D0 07              1176 	pop	ar7
   027C                    1177 00112$:
                    027C   1178 	C$fb_app_rollo11.c$310$3$6 ==.
                           1179 ;	..\fb_app_rollo11.c:310: blockend=blockend>>1;
   027C EE                 1180 	mov	a,r6
   027D C3                 1181 	clr	c
   027E 13                 1182 	rrc	a
   027F FE                 1183 	mov	r6,a
                    0280   1184 	C$fb_app_rollo11.c$311$3$6 ==.
                           1185 ;	..\fb_app_rollo11.c:311: blockstart=blockstart>>1;
   0280 EF                 1186 	mov	a,r7
   0281 C3                 1187 	clr	c
   0282 13                 1188 	rrc	a
   0283 FF                 1189 	mov	r7,a
                    0284   1190 	C$fb_app_rollo11.c$299$2$5 ==.
                           1191 ;	..\fb_app_rollo11.c:299: for (k=0;k<=3;k++){		//für die 4 Kanäle die Sicherheitsfuntionen schalten
   0284 0D                 1192 	inc	r5
   0285 02s01rFC           1193 	ljmp	00115$
   0288                    1194 00119$:
   0288 D0*00              1195 	pop	_bp
                    028A   1196 	C$fb_app_rollo11.c$314$2$1 ==.
                    028A   1197 	XG$Sobject_schalten$0$0 ==.
   028A 22                 1198 	ret
                           1199 ;------------------------------------------------------------
                           1200 ;Allocation info for local variables in function 'object_schalten'
                           1201 ;------------------------------------------------------------
                           1202 ;objstate                  Allocated to registers b0 
                           1203 ;objno                     Allocated to registers r7 
                           1204 ;port_pattern              Allocated to registers 
                           1205 ;objflags                  Allocated to registers r3 
                           1206 ;kwin                      Allocated to stack - _bp +1
                           1207 ;kwout                     Allocated to registers r5 
                           1208 ;faktor                    Allocated to registers r3 
                           1209 ;lz_ue                     Allocated to stack - _bp +2
                           1210 ;tmp                       Allocated to registers r6 
                           1211 ;delay_target              Allocated to registers r4 
                           1212 ;pluszeit                  Allocated to registers r2 
                           1213 ;off_disable               Allocated to registers 
                           1214 ;------------------------------------------------------------
                    028B   1215 	G$object_schalten$0$0 ==.
                    028B   1216 	C$fb_app_rollo11.c$320$2$1 ==.
                           1217 ;	..\fb_app_rollo11.c:320: void object_schalten(unsigned char objno, __bit objstate)	// Schaltet einen Ausgang gemäß objstate und den zugörigen Parametern
                           1218 ;	-----------------------------------------
                           1219 ;	 function object_schalten
                           1220 ;	-----------------------------------------
   028B                    1221 _object_schalten:
   028B C0*00              1222 	push	_bp
   028D 85 81*00           1223 	mov	_bp,sp
   0290 05 81              1224 	inc	sp
   0292 05 81              1225 	inc	sp
   0294 AF 82              1226 	mov	r7,dpl
                    0296   1227 	C$fb_app_rollo11.c$329$1$1 ==.
                           1228 ;	..\fb_app_rollo11.c:329: kwin = kanal[objno & 0x03]& 0x0f;// kwin heisst KanalWertIN. Bit 0+1 Relaise status, Bit 4+5 gewünschter Relaise status
   0296 74 03              1229 	mov	a,#0x03
   0298 5F                 1230 	anl	a,r7
   0299 24r23              1231 	add	a,#_kanal
   029B F9                 1232 	mov	r1,a
   029C 87 06              1233 	mov	ar6,@r1
   029E A8*00              1234 	mov	r0,_bp
   02A0 08                 1235 	inc	r0
   02A1 74 0F              1236 	mov	a,#0x0F
   02A3 5E                 1237 	anl	a,r6
   02A4 F6                 1238 	mov	@r0,a
                    02A5   1239 	C$fb_app_rollo11.c$330$1$1 ==.
                           1240 ;	..\fb_app_rollo11.c:330: kwout=kwin;
   02A5 A8*00              1241 	mov	r0,_bp
   02A7 08                 1242 	inc	r0
   02A8 86 05              1243 	mov	ar5,@r0
                    02AA   1244 	C$fb_app_rollo11.c$331$1$1 ==.
                           1245 ;	..\fb_app_rollo11.c:331: if (objstate) write_obj_value(objno & 0x07,1);		// Objektwert im userram speichern
   02AA 30*00 21           1246 	jnb	b0,00102$
   02AD 74 07              1247 	mov	a,#0x07
   02AF 5F                 1248 	anl	a,r7
   02B0 F5 82              1249 	mov	dpl,a
   02B2 C0 07              1250 	push	ar7
   02B4 C0 05              1251 	push	ar5
   02B6 C0*00              1252 	push	bits
   02B8 74 01              1253 	mov	a,#0x01
   02BA C0 E0              1254 	push	acc
   02BC E4                 1255 	clr	a
   02BD C0 E0              1256 	push	acc
   02BF 12s00rAC           1257 	lcall	_write_obj_value
   02C2 15 81              1258 	dec	sp
   02C4 15 81              1259 	dec	sp
   02C6 D0*00              1260 	pop	bits
   02C8 D0 05              1261 	pop	ar5
   02CA D0 07              1262 	pop	ar7
   02CC 80 1D              1263 	sjmp	00103$
   02CE                    1264 00102$:
                    02CE   1265 	C$fb_app_rollo11.c$332$1$1 ==.
                           1266 ;	..\fb_app_rollo11.c:332: else write_obj_value(objno & 0x07,0);
   02CE 74 07              1267 	mov	a,#0x07
   02D0 5F                 1268 	anl	a,r7
   02D1 F5 82              1269 	mov	dpl,a
   02D3 C0 07              1270 	push	ar7
   02D5 C0 05              1271 	push	ar5
   02D7 C0*00              1272 	push	bits
   02D9 E4                 1273 	clr	a
   02DA C0 E0              1274 	push	acc
   02DC C0 E0              1275 	push	acc
   02DE 12s00rAC           1276 	lcall	_write_obj_value
   02E1 15 81              1277 	dec	sp
   02E3 15 81              1278 	dec	sp
   02E5 D0*00              1279 	pop	bits
   02E7 D0 05              1280 	pop	ar5
   02E9 D0 07              1281 	pop	ar7
   02EB                    1282 00103$:
                    02EB   1283 	C$fb_app_rollo11.c$333$1$1 ==.
                           1284 ;	..\fb_app_rollo11.c:333: objflags=read_objflags(objno&0x07);			// Objekt Flags lesen
   02EB 74 07              1285 	mov	a,#0x07
   02ED 5F                 1286 	anl	a,r7
   02EE FC                 1287 	mov	r4,a
   02EF F5 82              1288 	mov	dpl,a
   02F1 C0 07              1289 	push	ar7
   02F3 C0 05              1290 	push	ar5
   02F5 C0 04              1291 	push	ar4
   02F7 C0*00              1292 	push	bits
   02F9 12s00r00           1293 	lcall	_read_objflags
   02FC AB 82              1294 	mov	r3,dpl
   02FE D0*00              1295 	pop	bits
   0300 D0 04              1296 	pop	ar4
   0302 D0 05              1297 	pop	ar5
   0304 D0 07              1298 	pop	ar7
                    0306   1299 	C$fb_app_rollo11.c$334$1$1 ==.
                           1300 ;	..\fb_app_rollo11.c:334: port_pattern=0x01<<(objno&0x07);//port_pattern=0x01<<(objno&0x0F)
   0306 8C F0              1301 	mov	b,r4
   0308 05 F0              1302 	inc	b
   030A 74 01              1303 	mov	a,#0x01
   030C 80 02              1304 	sjmp	00195$
   030E                    1305 00193$:
   030E 25 E0              1306 	add	a,acc
   0310                    1307 00195$:
   0310 D5 F0 FB           1308 	djnz	b,00193$
                    0313   1309 	C$fb_app_rollo11.c$337$1$1 ==.
                           1310 ;	..\fb_app_rollo11.c:337: if((port_pattern & blocked)==0 && (objflags&0x14)==0x14 ||(objno >=8)) {	// Objekt ist nicht gesperrt und Kommunikation zulässig (Bit 2 = communication enable) und Schreiben zulässig (Bit 4 = write enable)
   0313 55 0F              1311 	anl	a,_blocked
   0315 70 08              1312 	jnz	00161$
   0317 53 03 14           1313 	anl	ar3,#0x14
   031A BB 14 02           1314 	cjne	r3,#0x14,00197$
   031D 80 08              1315 	sjmp	00158$
   031F                    1316 00197$:
   031F                    1317 00161$:
   031F BF 08 00           1318 	cjne	r7,#0x08,00198$
   0322                    1319 00198$:
   0322 50 03              1320 	jnc	00199$
   0324 02s06r8F           1321 	ljmp	00162$
   0327                    1322 00199$:
   0327                    1323 00158$:
                    0327   1324 	C$fb_app_rollo11.c$338$2$2 ==.
                           1325 ;	..\fb_app_rollo11.c:338: objno=objno&0x07;	// damit die bypassobjekte 8-15 wieder 0-7 sind!
   0327 53 07 07           1326 	anl	ar7,#0x07
                    032A   1327 	C$fb_app_rollo11.c$342$2$2 ==.
                           1328 ;	..\fb_app_rollo11.c:342: if (objno<0x04){			//+++++ kurzzeitobjekt +++++
   032A BF 04 00           1329 	cjne	r7,#0x04,00200$
   032D                    1330 00200$:
   032D 40 03              1331 	jc	00201$
   032F 02s04r4D           1332 	ljmp	00146$
   0332                    1333 00201$:
                    0332   1334 	C$fb_app_rollo11.c$343$3$3 ==.
                           1335 ;	..\fb_app_rollo11.c:343: delay_target = (eeprom[0xE8+(objno>>1)]>>(3*(objno&0x01))&0x07)|0x80;// zeitbasis aus eeprom holen
   0332 EF                 1336 	mov	a,r7
   0333 C3                 1337 	clr	c
   0334 13                 1338 	rrc	a
   0335 24 E8              1339 	add	a,#0xE8
   0337 90s00r00           1340 	mov	dptr,#_eeprom
   033A 93                 1341 	movc	a,@a+dptr
   033B FC                 1342 	mov	r4,a
   033C 74 01              1343 	mov	a,#0x01
   033E 5F                 1344 	anl	a,r7
   033F 75 F0 03           1345 	mov	b,#0x03
   0342 A4                 1346 	mul	ab
   0343 F5 F0              1347 	mov	b,a
   0345 05 F0              1348 	inc	b
   0347 EC                 1349 	mov	a,r4
   0348 80 02              1350 	sjmp	00203$
   034A                    1351 00202$:
   034A C3                 1352 	clr	c
   034B 13                 1353 	rrc	a
   034C                    1354 00203$:
   034C D5 F0 FB           1355 	djnz	b,00202$
   034F 54 07              1356 	anl	a,#0x07
   0351 FC                 1357 	mov	r4,a
   0352 43 04 80           1358 	orl	ar4,#0x80
                    0355   1359 	C$fb_app_rollo11.c$344$3$3 ==.
                           1360 ;	..\fb_app_rollo11.c:344: faktor=eeprom[0xEA+objno];// faktor holen um dann auf 0 zu prüfen
   0355 74 EA              1361 	mov	a,#0xEA
   0357 2F                 1362 	add	a,r7
   0358 90s00r00           1363 	mov	dptr,#_eeprom
   035B 93                 1364 	movc	a,@a+dptr
                    035C   1365 	C$fb_app_rollo11.c$345$3$3 ==.
                           1366 ;	..\fb_app_rollo11.c:345: pluszeit=faktor + (faktor>>5);// 3% zeit bei "auf" 
   035C FB                 1367 	mov	r3,a
   035D C4                 1368 	swap	a
   035E 03                 1369 	rr	a
   035F 54 07              1370 	anl	a,#0x07
   0361 2B                 1371 	add	a,r3
   0362 FA                 1372 	mov	r2,a
                    0363   1373 	C$fb_app_rollo11.c$347$3$3 ==.
                           1374 ;	..\fb_app_rollo11.c:347: if (objstate==0){	//----- auf -----
   0363 20*00 71           1375 	jb	b0,00116$
                    0366   1376 	C$fb_app_rollo11.c$349$4$4 ==.
                           1377 ;	..\fb_app_rollo11.c:349: if (kwin&0x33){					// wenn faehrt,dann stop
   0366 A8*00              1378 	mov	r0,_bp
   0368 08                 1379 	inc	r0
   0369 E6                 1380 	mov	a,@r0
   036A 54 33              1381 	anl	a,#0x33
   036C 60 39              1382 	jz	00108$
                    036E   1383 	C$fb_app_rollo11.c$350$5$5 ==.
                           1384 ;	..\fb_app_rollo11.c:350: set_pause(objno,kwin&0x03);
   036E A8*00              1385 	mov	r0,_bp
   0370 08                 1386 	inc	r0
   0371 74 03              1387 	mov	a,#0x03
   0373 56                 1388 	anl	a,@r0
   0374 FE                 1389 	mov	r6,a
   0375 C0 07              1390 	push	ar7
   0377 C0 06              1391 	push	ar6
   0379 8F 82              1392 	mov	dpl,r7
   037B 12s09r46           1393 	lcall	_set_pause
   037E 15 81              1394 	dec	sp
   0380 D0 07              1395 	pop	ar7
                    0382   1396 	C$fb_app_rollo11.c$352$5$5 ==.
                           1397 ;	..\fb_app_rollo11.c:352: kwout=kwin&0xCC;	// Fahrt in beide Richtungen stoppen
   0382 A8*00              1398 	mov	r0,_bp
   0384 08                 1399 	inc	r0
   0385 74 CC              1400 	mov	a,#0xCC
   0387 56                 1401 	anl	a,@r0
   0388 FD                 1402 	mov	r5,a
                    0389   1403 	C$fb_app_rollo11.c$353$5$5 ==.
                           1404 ;	..\fb_app_rollo11.c:353: timerbase[objno]=0;	// kurzzeit löschen
   0389 EF                 1405 	mov	a,r7
   038A 24 10              1406 	add	a,#_timerbase
   038C F8                 1407 	mov	r0,a
   038D 76 00              1408 	mov	@r0,#0x00
                    038F   1409 	C$fb_app_rollo11.c$354$5$5 ==.
                           1410 ;	..\fb_app_rollo11.c:354: timerstate[objno]=0;	// kurzzeit löschen
   038F EF                 1411 	mov	a,r7
   0390 24r10              1412 	add	a,#_timerstate
   0392 F8                 1413 	mov	r0,a
   0393 76 00              1414 	mov	@r0,#0x00
                    0395   1415 	C$fb_app_rollo11.c$355$5$5 ==.
                           1416 ;	..\fb_app_rollo11.c:355: timerbase[objno+4]=0;  // lanzeit löschen
   0395 74 04              1417 	mov	a,#0x04
   0397 2F                 1418 	add	a,r7
   0398 FE                 1419 	mov	r6,a
   0399 24 10              1420 	add	a,#_timerbase
   039B F8                 1421 	mov	r0,a
   039C 76 00              1422 	mov	@r0,#0x00
                    039E   1423 	C$fb_app_rollo11.c$356$5$5 ==.
                           1424 ;	..\fb_app_rollo11.c:356: timerstate[objno+4]=0;  // lanzeit löschen
   039E EE                 1425 	mov	a,r6
   039F 24r10              1426 	add	a,#_timerstate
   03A1 F8                 1427 	mov	r0,a
   03A2 76 00              1428 	mov	@r0,#0x00
   03A4 02s06r32           1429 	ljmp	00147$
   03A7                    1430 00108$:
                    03A7   1431 	C$fb_app_rollo11.c$359$4$4 ==.
                           1432 ;	..\fb_app_rollo11.c:359: if ((!(kwin&0x33))&&(faktor)){	//wenn stillstand und faktor>0  dann step
   03A7 A8*00              1433 	mov	r0,_bp
   03A9 08                 1434 	inc	r0
   03AA E6                 1435 	mov	a,@r0
   03AB 54 33              1436 	anl	a,#0x33
   03AD 60 03              1437 	jz	00207$
   03AF 02s06r32           1438 	ljmp	00147$
   03B2                    1439 00207$:
   03B2 EB                 1440 	mov	a,r3
   03B3 70 03              1441 	jnz	00208$
   03B5 02s06r32           1442 	ljmp	00147$
   03B8                    1443 00208$:
                    03B8   1444 	C$fb_app_rollo11.c$360$5$6 ==.
                           1445 ;	..\fb_app_rollo11.c:360: kwout=kwin|0x10;
   03B8 A8*00              1446 	mov	r0,_bp
   03BA 08                 1447 	inc	r0
   03BB 74 10              1448 	mov	a,#0x10
   03BD 46                 1449 	orl	a,@r0
   03BE FD                 1450 	mov	r5,a
                    03BF   1451 	C$fb_app_rollo11.c$361$5$6 ==.
                           1452 ;	..\fb_app_rollo11.c:361: kwout=kwout&0xDF;
   03BF 53 05 DF           1453 	anl	ar5,#0xDF
                    03C2   1454 	C$fb_app_rollo11.c$363$5$6 ==.
                           1455 ;	..\fb_app_rollo11.c:363: timerbase[objno]=delay_target;
   03C2 EF                 1456 	mov	a,r7
   03C3 24 10              1457 	add	a,#_timerbase
   03C5 F8                 1458 	mov	r0,a
   03C6 A6 04              1459 	mov	@r0,ar4
                    03C8   1460 	C$fb_app_rollo11.c$364$5$6 ==.
                           1461 ;	..\fb_app_rollo11.c:364: timercnt[objno]=pluszeit;
   03C8 EF                 1462 	mov	a,r7
   03C9 24r00              1463 	add	a,#_timercnt
   03CB F8                 1464 	mov	r0,a
   03CC A6 02              1465 	mov	@r0,ar2
                    03CE   1466 	C$fb_app_rollo11.c$365$5$6 ==.
                           1467 ;	..\fb_app_rollo11.c:365: timerstate[objno]=0x01;
   03CE EF                 1468 	mov	a,r7
   03CF 24r10              1469 	add	a,#_timerstate
   03D1 F8                 1470 	mov	r0,a
   03D2 76 01              1471 	mov	@r0,#0x01
   03D4 02s06r32           1472 	ljmp	00147$
   03D7                    1473 00116$:
                    03D7   1474 	C$fb_app_rollo11.c$370$4$7 ==.
                           1475 ;	..\fb_app_rollo11.c:370: if (kwin&0x33){					// wenn faehrt, dann stop
   03D7 A8*00              1476 	mov	r0,_bp
   03D9 08                 1477 	inc	r0
   03DA E6                 1478 	mov	a,@r0
   03DB 54 33              1479 	anl	a,#0x33
   03DD 60 3E              1480 	jz	00111$
                    03DF   1481 	C$fb_app_rollo11.c$371$5$8 ==.
                           1482 ;	..\fb_app_rollo11.c:371: set_pause(objno,kwin&0x03); //einsch. verz "pause" für eventuelle Faht in gegenrichtung
   03DF A8*00              1483 	mov	r0,_bp
   03E1 08                 1484 	inc	r0
   03E2 74 03              1485 	mov	a,#0x03
   03E4 56                 1486 	anl	a,@r0
   03E5 FE                 1487 	mov	r6,a
   03E6 C0 07              1488 	push	ar7
   03E8 C0 04              1489 	push	ar4
   03EA C0 03              1490 	push	ar3
   03EC C0 06              1491 	push	ar6
   03EE 8F 82              1492 	mov	dpl,r7
   03F0 12s09r46           1493 	lcall	_set_pause
   03F3 15 81              1494 	dec	sp
   03F5 D0 03              1495 	pop	ar3
   03F7 D0 04              1496 	pop	ar4
   03F9 D0 07              1497 	pop	ar7
                    03FB   1498 	C$fb_app_rollo11.c$372$5$8 ==.
                           1499 ;	..\fb_app_rollo11.c:372: kwout=kwin&0xCC;
   03FB A8*00              1500 	mov	r0,_bp
   03FD 08                 1501 	inc	r0
   03FE 74 CC              1502 	mov	a,#0xCC
   0400 56                 1503 	anl	a,@r0
   0401 FD                 1504 	mov	r5,a
                    0402   1505 	C$fb_app_rollo11.c$375$5$8 ==.
                           1506 ;	..\fb_app_rollo11.c:375: timerbase[objno]=0;
   0402 EF                 1507 	mov	a,r7
   0403 24 10              1508 	add	a,#_timerbase
   0405 F8                 1509 	mov	r0,a
   0406 76 00              1510 	mov	@r0,#0x00
                    0408   1511 	C$fb_app_rollo11.c$376$5$8 ==.
                           1512 ;	..\fb_app_rollo11.c:376: timerstate[objno]=0;
   0408 EF                 1513 	mov	a,r7
   0409 24r10              1514 	add	a,#_timerstate
   040B F8                 1515 	mov	r0,a
   040C 76 00              1516 	mov	@r0,#0x00
                    040E   1517 	C$fb_app_rollo11.c$377$5$8 ==.
                           1518 ;	..\fb_app_rollo11.c:377: timerbase[objno+4]=0;
   040E 74 04              1519 	mov	a,#0x04
   0410 2F                 1520 	add	a,r7
   0411 FE                 1521 	mov	r6,a
   0412 24 10              1522 	add	a,#_timerbase
   0414 F8                 1523 	mov	r0,a
   0415 76 00              1524 	mov	@r0,#0x00
                    0417   1525 	C$fb_app_rollo11.c$378$5$8 ==.
                           1526 ;	..\fb_app_rollo11.c:378: timerstate[objno+4]=0;
   0417 EE                 1527 	mov	a,r6
   0418 24r10              1528 	add	a,#_timerstate
   041A F8                 1529 	mov	r0,a
   041B 76 00              1530 	mov	@r0,#0x00
   041D                    1531 00111$:
                    041D   1532 	C$fb_app_rollo11.c$380$4$7 ==.
                           1533 ;	..\fb_app_rollo11.c:380: if ((!(kwin&0x33))&&(faktor)){		// wenn stillstand dann step
   041D A8*00              1534 	mov	r0,_bp
   041F 08                 1535 	inc	r0
   0420 E6                 1536 	mov	a,@r0
   0421 54 33              1537 	anl	a,#0x33
   0423 60 03              1538 	jz	00211$
   0425 02s06r32           1539 	ljmp	00147$
   0428                    1540 00211$:
   0428 EB                 1541 	mov	a,r3
   0429 70 03              1542 	jnz	00212$
   042B 02s06r32           1543 	ljmp	00147$
   042E                    1544 00212$:
                    042E   1545 	C$fb_app_rollo11.c$381$5$9 ==.
                           1546 ;	..\fb_app_rollo11.c:381: kwout=kwin|0x20;
   042E A8*00              1547 	mov	r0,_bp
   0430 08                 1548 	inc	r0
   0431 74 20              1549 	mov	a,#0x20
   0433 46                 1550 	orl	a,@r0
   0434 FD                 1551 	mov	r5,a
                    0435   1552 	C$fb_app_rollo11.c$382$5$9 ==.
                           1553 ;	..\fb_app_rollo11.c:382: kwout=kwout&0xEF;
   0435 53 05 EF           1554 	anl	ar5,#0xEF
                    0438   1555 	C$fb_app_rollo11.c$384$5$9 ==.
                           1556 ;	..\fb_app_rollo11.c:384: timerbase[objno]=delay_target;
   0438 EF                 1557 	mov	a,r7
   0439 24 10              1558 	add	a,#_timerbase
   043B F8                 1559 	mov	r0,a
   043C A6 04              1560 	mov	@r0,ar4
                    043E   1561 	C$fb_app_rollo11.c$385$5$9 ==.
                           1562 ;	..\fb_app_rollo11.c:385: timercnt[objno]=faktor;
   043E EF                 1563 	mov	a,r7
   043F 24r00              1564 	add	a,#_timercnt
   0441 F8                 1565 	mov	r0,a
   0442 A6 03              1566 	mov	@r0,ar3
                    0444   1567 	C$fb_app_rollo11.c$386$5$9 ==.
                           1568 ;	..\fb_app_rollo11.c:386: timerstate[objno]=0x02;
   0444 EF                 1569 	mov	a,r7
   0445 24r10              1570 	add	a,#_timerstate
   0447 F8                 1571 	mov	r0,a
   0448 76 02              1572 	mov	@r0,#0x02
   044A 02s06r32           1573 	ljmp	00147$
   044D                    1574 00146$:
                    044D   1575 	C$fb_app_rollo11.c$393$2$1 ==.
                           1576 ;	..\fb_app_rollo11.c:393: delay_target=(eeprom[0xFB+((objno&0x03)>>1)]>>(3*(objno&0x01))&0x07) | 0x80;// zeitbasis aus eeprom holen
   044D C0 05              1577 	push	ar5
   044F 74 03              1578 	mov	a,#0x03
   0451 5F                 1579 	anl	a,r7
   0452 FE                 1580 	mov	r6,a
   0453 C3                 1581 	clr	c
   0454 13                 1582 	rrc	a
   0455 24 FB              1583 	add	a,#0xFB
   0457 90s00r00           1584 	mov	dptr,#_eeprom
   045A 93                 1585 	movc	a,@a+dptr
   045B FD                 1586 	mov	r5,a
   045C 74 01              1587 	mov	a,#0x01
   045E 5F                 1588 	anl	a,r7
   045F 75 F0 03           1589 	mov	b,#0x03
   0462 A4                 1590 	mul	ab
   0463 F5 F0              1591 	mov	b,a
   0465 05 F0              1592 	inc	b
   0467 ED                 1593 	mov	a,r5
   0468 80 02              1594 	sjmp	00214$
   046A                    1595 00213$:
   046A C3                 1596 	clr	c
   046B 13                 1597 	rrc	a
   046C                    1598 00214$:
   046C D5 F0 FB           1599 	djnz	b,00213$
   046F 54 07              1600 	anl	a,#0x07
   0471 FD                 1601 	mov	r5,a
   0472 74 80              1602 	mov	a,#0x80
   0474 4D                 1603 	orl	a,r5
   0475 FC                 1604 	mov	r4,a
                    0476   1605 	C$fb_app_rollo11.c$394$3$10 ==.
                           1606 ;	..\fb_app_rollo11.c:394: faktor = eeprom[0xDA+(objno&0x03)];
   0476 74 DA              1607 	mov	a,#0xDA
   0478 2E                 1608 	add	a,r6
   0479 90s00r00           1609 	mov	dptr,#_eeprom
   047C 93                 1610 	movc	a,@a+dptr
                    047D   1611 	C$fb_app_rollo11.c$395$3$10 ==.
                           1612 ;	..\fb_app_rollo11.c:395: faktor = faktor + (faktor>>2);// +25% zeit bei langzeit 
   047D FB                 1613 	mov	r3,a
   047E 03                 1614 	rr	a
   047F 03                 1615 	rr	a
   0480 54 3F              1616 	anl	a,#0x3F
   0482 2B                 1617 	add	a,r3
                    0483   1618 	C$fb_app_rollo11.c$396$3$10 ==.
                           1619 ;	..\fb_app_rollo11.c:396: pluszeit=faktor + (faktor>>5);// 3% zeit bei "auf" 
   0483 FB                 1620 	mov	r3,a
   0484 C4                 1621 	swap	a
   0485 03                 1622 	rr	a
   0486 54 07              1623 	anl	a,#0x07
   0488 2B                 1624 	add	a,r3
   0489 FA                 1625 	mov	r2,a
                    048A   1626 	C$fb_app_rollo11.c$397$3$10 ==.
                           1627 ;	..\fb_app_rollo11.c:397: lz_ue=((eeprom[0xF2]>>objno)&0x01);		//lz_ue bedeutet: langzeit unendlich
   048A 90s00rF2           1628 	mov	dptr,#(_eeprom + 0x00f2)
   048D E4                 1629 	clr	a
   048E 93                 1630 	movc	a,@a+dptr
   048F FE                 1631 	mov	r6,a
   0490 8F F0              1632 	mov	b,r7
   0492 05 F0              1633 	inc	b
   0494 EE                 1634 	mov	a,r6
   0495 80 02              1635 	sjmp	00216$
   0497                    1636 00215$:
   0497 C3                 1637 	clr	c
   0498 13                 1638 	rrc	a
   0499                    1639 00216$:
   0499 D5 F0 FB           1640 	djnz	b,00215$
   049C FE                 1641 	mov	r6,a
   049D A8*00              1642 	mov	r0,_bp
   049F 08                 1643 	inc	r0
   04A0 08                 1644 	inc	r0
   04A1 74 01              1645 	mov	a,#0x01
   04A3 5E                 1646 	anl	a,r6
   04A4 F6                 1647 	mov	@r0,a
                    04A5   1648 	C$fb_app_rollo11.c$398$2$1 ==.
                           1649 ;	..\fb_app_rollo11.c:398: if (objstate==0){// --- auf ----
   04A5 D0 05              1650 	pop	ar5
   04A7 30*00 03           1651 	jnb	b0,00217$
   04AA 02s05r5F           1652 	ljmp	00143$
   04AD                    1653 00217$:
                    04AD   1654 	C$fb_app_rollo11.c$399$4$11 ==.
                           1655 ;	..\fb_app_rollo11.c:399: if (kwin&0x11){		//läuft bereits, also nachtriggern
   04AD A8*00              1656 	mov	r0,_bp
   04AF 08                 1657 	inc	r0
   04B0 E6                 1658 	mov	a,@r0
   04B1 54 11              1659 	anl	a,#0x11
   04B3 60 35              1660 	jz	00121$
                    04B5   1661 	C$fb_app_rollo11.c$400$5$12 ==.
                           1662 ;	..\fb_app_rollo11.c:400: kwout=kwin|0x10;// auch hier neu setzen da in delay nach rechts kommt
   04B5 A8*00              1663 	mov	r0,_bp
   04B7 08                 1664 	inc	r0
   04B8 74 10              1665 	mov	a,#0x10
   04BA 46                 1666 	orl	a,@r0
   04BB FD                 1667 	mov	r5,a
                    04BC   1668 	C$fb_app_rollo11.c$401$5$12 ==.
                           1669 ;	..\fb_app_rollo11.c:401: timercnt[objno-4]=0;//kurzzeit löschen
   04BC EF                 1670 	mov	a,r7
   04BD 24 FC              1671 	add	a,#0xFC
   04BF FE                 1672 	mov	r6,a
   04C0 24r00              1673 	add	a,#_timercnt
   04C2 F8                 1674 	mov	r0,a
   04C3 76 00              1675 	mov	@r0,#0x00
                    04C5   1676 	C$fb_app_rollo11.c$402$5$12 ==.
                           1677 ;	..\fb_app_rollo11.c:402: timerstate[objno-4]=0;
   04C5 EE                 1678 	mov	a,r6
   04C6 24r10              1679 	add	a,#_timerstate
   04C8 F8                 1680 	mov	r0,a
   04C9 76 00              1681 	mov	@r0,#0x00
                    04CB   1682 	C$fb_app_rollo11.c$403$5$12 ==.
                           1683 ;	..\fb_app_rollo11.c:403: timerbase[objno-4]=0;
   04CB EE                 1684 	mov	a,r6
   04CC 24 10              1685 	add	a,#_timerbase
   04CE F8                 1686 	mov	r0,a
   04CF 76 00              1687 	mov	@r0,#0x00
                    04D1   1688 	C$fb_app_rollo11.c$404$5$12 ==.
                           1689 ;	..\fb_app_rollo11.c:404: if (!lz_ue){
   04D1 A8*00              1690 	mov	r0,_bp
   04D3 08                 1691 	inc	r0
   04D4 08                 1692 	inc	r0
   04D5 E6                 1693 	mov	a,@r0
   04D6 70 12              1694 	jnz	00121$
                    04D8   1695 	C$fb_app_rollo11.c$406$6$13 ==.
                           1696 ;	..\fb_app_rollo11.c:406: timerbase[objno]=delay_target;
   04D8 EF                 1697 	mov	a,r7
   04D9 24 10              1698 	add	a,#_timerbase
   04DB F8                 1699 	mov	r0,a
   04DC A6 04              1700 	mov	@r0,ar4
                    04DE   1701 	C$fb_app_rollo11.c$407$6$13 ==.
                           1702 ;	..\fb_app_rollo11.c:407: timercnt[objno]=pluszeit;
   04DE EF                 1703 	mov	a,r7
   04DF 24r00              1704 	add	a,#_timercnt
   04E1 F8                 1705 	mov	r0,a
   04E2 A6 02              1706 	mov	@r0,ar2
                    04E4   1707 	C$fb_app_rollo11.c$408$6$13 ==.
                           1708 ;	..\fb_app_rollo11.c:408: timerstate[objno]=0x01;
   04E4 EF                 1709 	mov	a,r7
   04E5 24r10              1710 	add	a,#_timerstate
   04E7 F8                 1711 	mov	r0,a
   04E8 76 01              1712 	mov	@r0,#0x01
   04EA                    1713 00121$:
                    04EA   1714 	C$fb_app_rollo11.c$411$4$11 ==.
                           1715 ;	..\fb_app_rollo11.c:411: if (!(kwin&0x33)){	//wenn stillstand, dann move
   04EA A8*00              1716 	mov	r0,_bp
   04EC 08                 1717 	inc	r0
   04ED E6                 1718 	mov	a,@r0
   04EE 54 33              1719 	anl	a,#0x33
   04F0 70 20              1720 	jnz	00125$
                    04F2   1721 	C$fb_app_rollo11.c$412$5$14 ==.
                           1722 ;	..\fb_app_rollo11.c:412: kwout=kwin|0x10;
   04F2 A8*00              1723 	mov	r0,_bp
   04F4 08                 1724 	inc	r0
   04F5 74 10              1725 	mov	a,#0x10
   04F7 46                 1726 	orl	a,@r0
   04F8 FD                 1727 	mov	r5,a
                    04F9   1728 	C$fb_app_rollo11.c$415$5$14 ==.
                           1729 ;	..\fb_app_rollo11.c:415: if (!lz_ue){
   04F9 A8*00              1730 	mov	r0,_bp
   04FB 08                 1731 	inc	r0
   04FC 08                 1732 	inc	r0
   04FD E6                 1733 	mov	a,@r0
   04FE 70 12              1734 	jnz	00125$
                    0500   1735 	C$fb_app_rollo11.c$417$6$15 ==.
                           1736 ;	..\fb_app_rollo11.c:417: timerbase[objno]=delay_target;
   0500 EF                 1737 	mov	a,r7
   0501 24 10              1738 	add	a,#_timerbase
   0503 F8                 1739 	mov	r0,a
   0504 A6 04              1740 	mov	@r0,ar4
                    0506   1741 	C$fb_app_rollo11.c$418$6$15 ==.
                           1742 ;	..\fb_app_rollo11.c:418: timercnt[objno]=pluszeit;
   0506 EF                 1743 	mov	a,r7
   0507 24r00              1744 	add	a,#_timercnt
   0509 F8                 1745 	mov	r0,a
   050A A6 02              1746 	mov	@r0,ar2
                    050C   1747 	C$fb_app_rollo11.c$419$6$15 ==.
                           1748 ;	..\fb_app_rollo11.c:419: timerstate[objno]=0x01;
   050C EF                 1749 	mov	a,r7
   050D 24r10              1750 	add	a,#_timerstate
   050F F8                 1751 	mov	r0,a
   0510 76 01              1752 	mov	@r0,#0x01
   0512                    1753 00125$:
                    0512   1754 	C$fb_app_rollo11.c$423$4$11 ==.
                           1755 ;	..\fb_app_rollo11.c:423: if (kwin&0x22){		// wenn fahrt in andere richtung
   0512 A8*00              1756 	mov	r0,_bp
   0514 08                 1757 	inc	r0
   0515 E6                 1758 	mov	a,@r0
   0516 54 22              1759 	anl	a,#0x22
   0518 70 03              1760 	jnz	00223$
   051A 02s06r32           1761 	ljmp	00147$
   051D                    1762 00223$:
                    051D   1763 	C$fb_app_rollo11.c$424$5$16 ==.
                           1764 ;	..\fb_app_rollo11.c:424: set_pause(objno,0x05);// einsch. verz "pause" für eventuelle Faht in gegenrichtung
   051D C0 07              1765 	push	ar7
   051F C0 04              1766 	push	ar4
   0521 C0 02              1767 	push	ar2
   0523 74 05              1768 	mov	a,#0x05
   0525 C0 E0              1769 	push	acc
   0527 8F 82              1770 	mov	dpl,r7
   0529 12s09r46           1771 	lcall	_set_pause
   052C 15 81              1772 	dec	sp
   052E D0 02              1773 	pop	ar2
   0530 D0 04              1774 	pop	ar4
   0532 D0 07              1775 	pop	ar7
                    0534   1776 	C$fb_app_rollo11.c$425$5$16 ==.
                           1777 ;	..\fb_app_rollo11.c:425: kwout=kwin|0x10;
   0534 A8*00              1778 	mov	r0,_bp
   0536 08                 1779 	inc	r0
   0537 74 10              1780 	mov	a,#0x10
   0539 46                 1781 	orl	a,@r0
   053A FD                 1782 	mov	r5,a
                    053B   1783 	C$fb_app_rollo11.c$426$5$16 ==.
                           1784 ;	..\fb_app_rollo11.c:426: kwout=kwout&0xDF;
   053B 53 05 DF           1785 	anl	ar5,#0xDF
                    053E   1786 	C$fb_app_rollo11.c$427$5$16 ==.
                           1787 ;	..\fb_app_rollo11.c:427: if (!lz_ue){
   053E A8*00              1788 	mov	r0,_bp
   0540 08                 1789 	inc	r0
   0541 08                 1790 	inc	r0
   0542 E6                 1791 	mov	a,@r0
   0543 60 03              1792 	jz	00224$
   0545 02s06r32           1793 	ljmp	00147$
   0548                    1794 00224$:
                    0548   1795 	C$fb_app_rollo11.c$429$6$17 ==.
                           1796 ;	..\fb_app_rollo11.c:429: timerbase[objno]=delay_target & 0x7F;// timer-run für den move löschen
   0548 EF                 1797 	mov	a,r7
   0549 24 10              1798 	add	a,#_timerbase
   054B F9                 1799 	mov	r1,a
   054C 74 7F              1800 	mov	a,#0x7F
   054E 5C                 1801 	anl	a,r4
   054F F7                 1802 	mov	@r1,a
                    0550   1803 	C$fb_app_rollo11.c$430$6$17 ==.
                           1804 ;	..\fb_app_rollo11.c:430: timercnt[objno]=pluszeit;
   0550 EF                 1805 	mov	a,r7
   0551 24r00              1806 	add	a,#_timercnt
   0553 F8                 1807 	mov	r0,a
   0554 A6 02              1808 	mov	@r0,ar2
                    0556   1809 	C$fb_app_rollo11.c$431$6$17 ==.
                           1810 ;	..\fb_app_rollo11.c:431: timerstate[objno]=0x01;
   0556 EF                 1811 	mov	a,r7
   0557 24r10              1812 	add	a,#_timerstate
   0559 F8                 1813 	mov	r0,a
   055A 76 01              1814 	mov	@r0,#0x01
   055C 02s06r32           1815 	ljmp	00147$
   055F                    1816 00143$:
                    055F   1817 	C$fb_app_rollo11.c$437$4$18 ==.
                           1818 ;	..\fb_app_rollo11.c:437: if (kwin&0x22){		//läuft bereits, also nachtriggern
   055F A8*00              1819 	mov	r0,_bp
   0561 08                 1820 	inc	r0
   0562 E6                 1821 	mov	a,@r0
   0563 54 22              1822 	anl	a,#0x22
   0565 60 35              1823 	jz	00133$
                    0567   1824 	C$fb_app_rollo11.c$438$5$19 ==.
                           1825 ;	..\fb_app_rollo11.c:438: kwout=kwin|0x20;// auch hier neu setzen da in delay nach rechts kommt
   0567 A8*00              1826 	mov	r0,_bp
   0569 08                 1827 	inc	r0
   056A 74 20              1828 	mov	a,#0x20
   056C 46                 1829 	orl	a,@r0
   056D FD                 1830 	mov	r5,a
                    056E   1831 	C$fb_app_rollo11.c$439$5$19 ==.
                           1832 ;	..\fb_app_rollo11.c:439: timerbase[objno-4]=0; 
   056E EF                 1833 	mov	a,r7
   056F 24 FC              1834 	add	a,#0xFC
   0571 FE                 1835 	mov	r6,a
   0572 24 10              1836 	add	a,#_timerbase
   0574 F8                 1837 	mov	r0,a
   0575 76 00              1838 	mov	@r0,#0x00
                    0577   1839 	C$fb_app_rollo11.c$440$5$19 ==.
                           1840 ;	..\fb_app_rollo11.c:440: timercnt[objno-4]=0;
   0577 EE                 1841 	mov	a,r6
   0578 24r00              1842 	add	a,#_timercnt
   057A F8                 1843 	mov	r0,a
   057B 76 00              1844 	mov	@r0,#0x00
                    057D   1845 	C$fb_app_rollo11.c$441$5$19 ==.
                           1846 ;	..\fb_app_rollo11.c:441: timerstate[objno-4]=0;
   057D EE                 1847 	mov	a,r6
   057E 24r10              1848 	add	a,#_timerstate
   0580 F8                 1849 	mov	r0,a
   0581 76 00              1850 	mov	@r0,#0x00
                    0583   1851 	C$fb_app_rollo11.c$443$5$19 ==.
                           1852 ;	..\fb_app_rollo11.c:443: if (!lz_ue){
   0583 A8*00              1853 	mov	r0,_bp
   0585 08                 1854 	inc	r0
   0586 08                 1855 	inc	r0
   0587 E6                 1856 	mov	a,@r0
   0588 70 12              1857 	jnz	00133$
                    058A   1858 	C$fb_app_rollo11.c$445$6$20 ==.
                           1859 ;	..\fb_app_rollo11.c:445: timerbase[objno]=delay_target;
   058A EF                 1860 	mov	a,r7
   058B 24 10              1861 	add	a,#_timerbase
   058D F8                 1862 	mov	r0,a
   058E A6 04              1863 	mov	@r0,ar4
                    0590   1864 	C$fb_app_rollo11.c$446$6$20 ==.
                           1865 ;	..\fb_app_rollo11.c:446: timercnt[objno]=faktor;
   0590 EF                 1866 	mov	a,r7
   0591 24r00              1867 	add	a,#_timercnt
   0593 F8                 1868 	mov	r0,a
   0594 A6 03              1869 	mov	@r0,ar3
                    0596   1870 	C$fb_app_rollo11.c$447$6$20 ==.
                           1871 ;	..\fb_app_rollo11.c:447: timerstate[objno]=0x02;
   0596 EF                 1872 	mov	a,r7
   0597 24r10              1873 	add	a,#_timerstate
   0599 F8                 1874 	mov	r0,a
   059A 76 02              1875 	mov	@r0,#0x02
   059C                    1876 00133$:
                    059C   1877 	C$fb_app_rollo11.c$450$4$18 ==.
                           1878 ;	..\fb_app_rollo11.c:450: if (!(kwin&0x33)){	//wenn stillstand, dann move
   059C A8*00              1879 	mov	r0,_bp
   059E 08                 1880 	inc	r0
   059F E6                 1881 	mov	a,@r0
   05A0 54 33              1882 	anl	a,#0x33
   05A2 70 35              1883 	jnz	00137$
                    05A4   1884 	C$fb_app_rollo11.c$451$5$21 ==.
                           1885 ;	..\fb_app_rollo11.c:451: kwout=kwin|0x20;// kanal setzen
   05A4 A8*00              1886 	mov	r0,_bp
   05A6 08                 1887 	inc	r0
   05A7 74 20              1888 	mov	a,#0x20
   05A9 46                 1889 	orl	a,@r0
   05AA FD                 1890 	mov	r5,a
                    05AB   1891 	C$fb_app_rollo11.c$454$5$21 ==.
                           1892 ;	..\fb_app_rollo11.c:454: timerbase[objno-4]=0; 
   05AB EF                 1893 	mov	a,r7
   05AC 24 FC              1894 	add	a,#0xFC
   05AE FE                 1895 	mov	r6,a
   05AF 24 10              1896 	add	a,#_timerbase
   05B1 F8                 1897 	mov	r0,a
   05B2 76 00              1898 	mov	@r0,#0x00
                    05B4   1899 	C$fb_app_rollo11.c$455$5$21 ==.
                           1900 ;	..\fb_app_rollo11.c:455: timercnt[objno-4]=0;
   05B4 EE                 1901 	mov	a,r6
   05B5 24r00              1902 	add	a,#_timercnt
   05B7 F8                 1903 	mov	r0,a
   05B8 76 00              1904 	mov	@r0,#0x00
                    05BA   1905 	C$fb_app_rollo11.c$456$5$21 ==.
                           1906 ;	..\fb_app_rollo11.c:456: timerstate[objno-4]=0;
   05BA EE                 1907 	mov	a,r6
   05BB 24r10              1908 	add	a,#_timerstate
   05BD F8                 1909 	mov	r0,a
   05BE 76 00              1910 	mov	@r0,#0x00
                    05C0   1911 	C$fb_app_rollo11.c$457$5$21 ==.
                           1912 ;	..\fb_app_rollo11.c:457: if (!lz_ue){
   05C0 A8*00              1913 	mov	r0,_bp
   05C2 08                 1914 	inc	r0
   05C3 08                 1915 	inc	r0
   05C4 E6                 1916 	mov	a,@r0
   05C5 70 12              1917 	jnz	00137$
                    05C7   1918 	C$fb_app_rollo11.c$459$6$22 ==.
                           1919 ;	..\fb_app_rollo11.c:459: timerbase[objno]=delay_target;
   05C7 EF                 1920 	mov	a,r7
   05C8 24 10              1921 	add	a,#_timerbase
   05CA F8                 1922 	mov	r0,a
   05CB A6 04              1923 	mov	@r0,ar4
                    05CD   1924 	C$fb_app_rollo11.c$460$6$22 ==.
                           1925 ;	..\fb_app_rollo11.c:460: timercnt[objno]=faktor;
   05CD EF                 1926 	mov	a,r7
   05CE 24r00              1927 	add	a,#_timercnt
   05D0 F8                 1928 	mov	r0,a
   05D1 A6 03              1929 	mov	@r0,ar3
                    05D3   1930 	C$fb_app_rollo11.c$461$6$22 ==.
                           1931 ;	..\fb_app_rollo11.c:461: timerstate[objno]=0x02;
   05D3 EF                 1932 	mov	a,r7
   05D4 24r10              1933 	add	a,#_timerstate
   05D6 F8                 1934 	mov	r0,a
   05D7 76 02              1935 	mov	@r0,#0x02
   05D9                    1936 00137$:
                    05D9   1937 	C$fb_app_rollo11.c$464$4$18 ==.
                           1938 ;	..\fb_app_rollo11.c:464: if (kwin&0x11){					// wenn fahrt in andere richtung
   05D9 A8*00              1939 	mov	r0,_bp
   05DB 08                 1940 	inc	r0
   05DC E6                 1941 	mov	a,@r0
   05DD 54 11              1942 	anl	a,#0x11
   05DF 60 51              1943 	jz	00147$
                    05E1   1944 	C$fb_app_rollo11.c$465$5$23 ==.
                           1945 ;	..\fb_app_rollo11.c:465: set_pause(objno, 0x06);// einsch. verz "pause" für eventuelle Faht in gegenrichtung
   05E1 C0 07              1946 	push	ar7
   05E3 C0 04              1947 	push	ar4
   05E5 C0 03              1948 	push	ar3
   05E7 74 06              1949 	mov	a,#0x06
   05E9 C0 E0              1950 	push	acc
   05EB 8F 82              1951 	mov	dpl,r7
   05ED 12s09r46           1952 	lcall	_set_pause
   05F0 15 81              1953 	dec	sp
   05F2 D0 03              1954 	pop	ar3
   05F4 D0 04              1955 	pop	ar4
   05F6 D0 07              1956 	pop	ar7
                    05F8   1957 	C$fb_app_rollo11.c$466$5$23 ==.
                           1958 ;	..\fb_app_rollo11.c:466: kwout=kwin|0x20;
   05F8 A8*00              1959 	mov	r0,_bp
   05FA 08                 1960 	inc	r0
   05FB 74 20              1961 	mov	a,#0x20
   05FD 46                 1962 	orl	a,@r0
   05FE FD                 1963 	mov	r5,a
                    05FF   1964 	C$fb_app_rollo11.c$467$5$23 ==.
                           1965 ;	..\fb_app_rollo11.c:467: kwout=kwout&0xEF;
   05FF 53 05 EF           1966 	anl	ar5,#0xEF
                    0602   1967 	C$fb_app_rollo11.c$469$5$23 ==.
                           1968 ;	..\fb_app_rollo11.c:469: timerbase[objno-4]=0; // kurzzeit löschen
   0602 EF                 1969 	mov	a,r7
   0603 24 FC              1970 	add	a,#0xFC
   0605 FE                 1971 	mov	r6,a
   0606 24 10              1972 	add	a,#_timerbase
   0608 F8                 1973 	mov	r0,a
   0609 76 00              1974 	mov	@r0,#0x00
                    060B   1975 	C$fb_app_rollo11.c$470$5$23 ==.
                           1976 ;	..\fb_app_rollo11.c:470: timercnt[objno-4]=0;
   060B EE                 1977 	mov	a,r6
   060C 24r00              1978 	add	a,#_timercnt
   060E F8                 1979 	mov	r0,a
   060F 76 00              1980 	mov	@r0,#0x00
                    0611   1981 	C$fb_app_rollo11.c$471$5$23 ==.
                           1982 ;	..\fb_app_rollo11.c:471: timerstate[objno-4]=0;
   0611 EE                 1983 	mov	a,r6
   0612 24r10              1984 	add	a,#_timerstate
   0614 F8                 1985 	mov	r0,a
   0615 76 00              1986 	mov	@r0,#0x00
                    0617   1987 	C$fb_app_rollo11.c$472$5$23 ==.
                           1988 ;	..\fb_app_rollo11.c:472: if (!lz_ue){
   0617 A8*00              1989 	mov	r0,_bp
   0619 08                 1990 	inc	r0
   061A 08                 1991 	inc	r0
   061B E6                 1992 	mov	a,@r0
   061C 70 14              1993 	jnz	00147$
                    061E   1994 	C$fb_app_rollo11.c$474$6$24 ==.
                           1995 ;	..\fb_app_rollo11.c:474: timerbase[objno]=delay_target & 0x7F;// timer run des langzeit löschen
   061E EF                 1996 	mov	a,r7
   061F 24 10              1997 	add	a,#_timerbase
   0621 F9                 1998 	mov	r1,a
   0622 74 7F              1999 	mov	a,#0x7F
   0624 5C                 2000 	anl	a,r4
   0625 F7                 2001 	mov	@r1,a
                    0626   2002 	C$fb_app_rollo11.c$475$6$24 ==.
                           2003 ;	..\fb_app_rollo11.c:475: timercnt[objno]=faktor;
   0626 EF                 2004 	mov	a,r7
   0627 24r00              2005 	add	a,#_timercnt
   0629 F8                 2006 	mov	r0,a
   062A A6 03              2007 	mov	@r0,ar3
                    062C   2008 	C$fb_app_rollo11.c$476$6$24 ==.
                           2009 ;	..\fb_app_rollo11.c:476: timerstate[objno]=0x02;
   062C EF                 2010 	mov	a,r7
   062D 24r10              2011 	add	a,#_timerstate
   062F F8                 2012 	mov	r0,a
   0630 76 02              2013 	mov	@r0,#0x02
   0632                    2014 00147$:
                    0632   2015 	C$fb_app_rollo11.c$485$2$2 ==.
                           2016 ;	..\fb_app_rollo11.c:485: kwin=kwout;
   0632 A8*00              2017 	mov	r0,_bp
   0634 08                 2018 	inc	r0
   0635 A6 05              2019 	mov	@r0,ar5
                    0637   2020 	C$fb_app_rollo11.c$486$2$2 ==.
                           2021 ;	..\fb_app_rollo11.c:486: if (objno<=7){
   0637 EF                 2022 	mov	a,r7
   0638 24 F8              2023 	add	a,#0xff - 0x07
   063A 40 49              2024 	jc	00157$
                    063C   2025 	C$fb_app_rollo11.c$487$3$25 ==.
                           2026 ;	..\fb_app_rollo11.c:487: tmp=timerstate[((objno & 0x03)+11)]& 0x07;
   063C 74 03              2027 	mov	a,#0x03
   063E 5F                 2028 	anl	a,r7
   063F 24 0B              2029 	add	a,#0x0B
   0641 24r10              2030 	add	a,#_timerstate
   0643 F9                 2031 	mov	r1,a
   0644 87 06              2032 	mov	ar6,@r1
   0646 53 06 07           2033 	anl	ar6,#0x07
                    0649   2034 	C$fb_app_rollo11.c$489$3$25 ==.
                           2035 ;	..\fb_app_rollo11.c:489: if ((tmp<4)&& (tmp & (kwout>>4) & 0x03)){
   0649 BE 04 00           2036 	cjne	r6,#0x04,00233$
   064C                    2037 00233$:
   064C 50 23              2038 	jnc	00149$
   064E ED                 2039 	mov	a,r5
   064F C4                 2040 	swap	a
   0650 54 0F              2041 	anl	a,#0x0F
   0652 FC                 2042 	mov	r4,a
   0653 5E                 2043 	anl	a,r6
   0654 54 03              2044 	anl	a,#0x03
   0656 60 19              2045 	jz	00149$
                    0658   2046 	C$fb_app_rollo11.c$491$4$26 ==.
                           2047 ;	..\fb_app_rollo11.c:491: timerbase[(objno&0x03)+11]=0; 
   0658 74 03              2048 	mov	a,#0x03
   065A 5F                 2049 	anl	a,r7
   065B 24 0B              2050 	add	a,#0x0B
   065D FC                 2051 	mov	r4,a
   065E 24 10              2052 	add	a,#_timerbase
   0660 F8                 2053 	mov	r0,a
   0661 76 00              2054 	mov	@r0,#0x00
                    0663   2055 	C$fb_app_rollo11.c$492$4$26 ==.
                           2056 ;	..\fb_app_rollo11.c:492: timercnt[(objno&0x03)+11]=0;//gleiche Richtung: Pause löschen
   0663 EC                 2057 	mov	a,r4
   0664 24r00              2058 	add	a,#_timercnt
   0666 F8                 2059 	mov	r0,a
   0667 76 00              2060 	mov	@r0,#0x00
                    0669   2061 	C$fb_app_rollo11.c$493$4$26 ==.
                           2062 ;	..\fb_app_rollo11.c:493: timerstate[(objno&0x03)+11]=0;
   0669 EC                 2063 	mov	a,r4
   066A 24r10              2064 	add	a,#_timerstate
   066C F8                 2065 	mov	r0,a
   066D 76 00              2066 	mov	@r0,#0x00
                    066F   2067 	C$fb_app_rollo11.c$494$4$26 ==.
                           2068 ;	..\fb_app_rollo11.c:494: tmp=0;
   066F 7E 00              2069 	mov	r6,#0x00
   0671                    2070 00149$:
                    0671   2071 	C$fb_app_rollo11.c$497$3$25 ==.
                           2072 ;	..\fb_app_rollo11.c:497: if(tmp & 0x04){//wenn Pause wegen umschalten läuft,Kanal "ist" löschen.
   0671 EE                 2073 	mov	a,r6
   0672 30 E2 05           2074 	jnb	acc.2,00154$
                    0675   2075 	C$fb_app_rollo11.c$499$4$27 ==.
                           2076 ;	..\fb_app_rollo11.c:499: kwout=kwout&0xF0;
   0675 53 05 F0           2077 	anl	ar5,#0xF0
   0678 80 0B              2078 	sjmp	00157$
   067A                    2079 00154$:
                    067A   2080 	C$fb_app_rollo11.c$502$4$28 ==.
                           2081 ;	..\fb_app_rollo11.c:502: if(!(tmp)){
   067A EE                 2082 	mov	a,r6
   067B 70 08              2083 	jnz	00157$
                    067D   2084 	C$fb_app_rollo11.c$503$5$29 ==.
                           2085 ;	..\fb_app_rollo11.c:503: kwout=kwin>>4;//wenn keiene Pause Läuft, dann kanal "soll" in "ist" kopieren
   067D A8*00              2086 	mov	r0,_bp
   067F 08                 2087 	inc	r0
   0680 E6                 2088 	mov	a,@r0
   0681 C4                 2089 	swap	a
   0682 54 0F              2090 	anl	a,#0x0F
   0684 FD                 2091 	mov	r5,a
   0685                    2092 00157$:
                    0685   2093 	C$fb_app_rollo11.c$509$2$2 ==.
                           2094 ;	..\fb_app_rollo11.c:509: kanal[objno&0x03]=kwout;
   0685 74 03              2095 	mov	a,#0x03
   0687 5F                 2096 	anl	a,r7
   0688 24r23              2097 	add	a,#_kanal
   068A F8                 2098 	mov	r0,a
   068B A6 05              2099 	mov	@r0,ar5
                    068D   2100 	C$fb_app_rollo11.c$510$2$2 ==.
                           2101 ;	..\fb_app_rollo11.c:510: portchanged=1;
   068D D2*00              2102 	setb	_portchanged
   068F                    2103 00162$:
   068F 85*00 81           2104 	mov	sp,_bp
   0692 D0*00              2105 	pop	_bp
                    0694   2106 	C$fb_app_rollo11.c$514$2$1 ==.
                    0694   2107 	XG$object_schalten$0$0 ==.
   0694 22                 2108 	ret
                           2109 ;------------------------------------------------------------
                           2110 ;Allocation info for local variables in function 'delay_timer'
                           2111 ;------------------------------------------------------------
                           2112 ;objno                     Allocated to registers r7 
                           2113 ;delay_state               Allocated to registers r6 
                           2114 ;m                         Allocated to registers r5 
                           2115 ;timerflags                Allocated to registers r6 r7 
                           2116 ;------------------------------------------------------------
                    0695   2117 	G$delay_timer$0$0 ==.
                    0695   2118 	C$fb_app_rollo11.c$519$2$1 ==.
                           2119 ;	..\fb_app_rollo11.c:519: void delay_timer(void)	// zählt alle 8 ms die Variable Timer hoch und prüft Queue
                           2120 ;	-----------------------------------------
                           2121 ;	 function delay_timer
                           2122 ;	-----------------------------------------
   0695                    2123 _delay_timer:
                    0695   2124 	C$fb_app_rollo11.c$528$1$1 ==.
                           2125 ;	..\fb_app_rollo11.c:528: RTCCON=0x61;		// RTC Flag löschen
   0695 75 D1 61           2126 	mov	_RTCCON,#0x61
                    0698   2127 	C$fb_app_rollo11.c$530$1$1 ==.
                           2128 ;	..\fb_app_rollo11.c:530: timer++;
   0698 74 01              2129 	mov	a,#0x01
   069A 25 09              2130 	add	a,_timer
   069C F5 09              2131 	mov	_timer,a
   069E E4                 2132 	clr	a
   069F 35 0A              2133 	addc	a,(_timer + 1)
   06A1 F5 0A              2134 	mov	(_timer + 1),a
                    06A3   2135 	C$fb_app_rollo11.c$531$1$1 ==.
                           2136 ;	..\fb_app_rollo11.c:531: timerflags = timer&(~(timer-1));
   06A3 E5 09              2137 	mov	a,_timer
   06A5 24 FF              2138 	add	a,#0xFF
   06A7 FE                 2139 	mov	r6,a
   06A8 E5 0A              2140 	mov	a,(_timer + 1)
   06AA 34 FF              2141 	addc	a,#0xFF
   06AC FF                 2142 	mov	r7,a
   06AD EE                 2143 	mov	a,r6
   06AE F4                 2144 	cpl	a
   06AF FE                 2145 	mov	r6,a
   06B0 EF                 2146 	mov	a,r7
   06B1 F4                 2147 	cpl	a
   06B2 FF                 2148 	mov	r7,a
   06B3 E5 09              2149 	mov	a,_timer
   06B5 52 06              2150 	anl	ar6,a
   06B7 E5 0A              2151 	mov	a,(_timer + 1)
   06B9 52 07              2152 	anl	ar7,a
                    06BB   2153 	C$fb_app_rollo11.c$534$4$4 ==.
                           2154 ;	..\fb_app_rollo11.c:534: for(m=0;m<TIMERANZ;m++){// die timer der reihe nach checken und dec wenn laufen
   06BB 7D 00              2155 	mov	r5,#0x00
   06BD                    2156 00138$:
   06BD BD 10 00           2157 	cjne	r5,#0x10,00173$
   06C0                    2158 00173$:
   06C0 50 40              2159 	jnc	00141$
                    06C2   2160 	C$fb_app_rollo11.c$536$2$2 ==.
                           2161 ;	..\fb_app_rollo11.c:536: if(timerbase[m]& 0x80){// wenn run-bit gesetzt
   06C2 ED                 2162 	mov	a,r5
   06C3 24 10              2163 	add	a,#_timerbase
   06C5 F9                 2164 	mov	r1,a
   06C6 E7                 2165 	mov	a,@r1
   06C7 FC                 2166 	mov	r4,a
   06C8 30 E7 34           2167 	jnb	acc.7,00140$
                    06CB   2168 	C$fb_app_rollo11.c$537$3$3 ==.
                           2169 ;	..\fb_app_rollo11.c:537: if((timerbase[m]==0x82)||(timerflags & (timerflagmask[timerbase[m]&0x7f]))){// wenn das flag mit der gespeicherten base übereinstimmt						
   06CB ED                 2170 	mov	a,r5
   06CC 24 10              2171 	add	a,#_timerbase
   06CE F9                 2172 	mov	r1,a
   06CF 87 04              2173 	mov	ar4,@r1
   06D1 BC 82 02           2174 	cjne	r4,#0x82,00176$
   06D4 80 1E              2175 	sjmp	00103$
   06D6                    2176 00176$:
   06D6 ED                 2177 	mov	a,r5
   06D7 24 10              2178 	add	a,#_timerbase
   06D9 F9                 2179 	mov	r1,a
   06DA 87 04              2180 	mov	ar4,@r1
   06DC 53 04 7F           2181 	anl	ar4,#0x7F
   06DF EC                 2182 	mov	a,r4
   06E0 2C                 2183 	add	a,r4
   06E1 FB                 2184 	mov	r3,a
   06E2 90s00r00           2185 	mov	dptr,#_timerflagmask
   06E5 93                 2186 	movc	a,@a+dptr
   06E6 CB                 2187 	xch	a,r3
   06E7 A3                 2188 	inc	dptr
   06E8 93                 2189 	movc	a,@a+dptr
   06E9 FC                 2190 	mov	r4,a
   06EA EE                 2191 	mov	a,r6
   06EB 52 03              2192 	anl	ar3,a
   06ED EF                 2193 	mov	a,r7
   06EE 52 04              2194 	anl	ar4,a
   06F0 EB                 2195 	mov	a,r3
   06F1 4C                 2196 	orl	a,r4
   06F2 60 0B              2197 	jz	00140$
   06F4                    2198 00103$:
                    06F4   2199 	C$fb_app_rollo11.c$538$4$4 ==.
                           2200 ;	..\fb_app_rollo11.c:538: if (timercnt[m]>0x00){// wenn der counter läuft...
   06F4 ED                 2201 	mov	a,r5
   06F5 24r00              2202 	add	a,#_timercnt
   06F7 F9                 2203 	mov	r1,a
   06F8 E7                 2204 	mov	a,@r1
   06F9 FC                 2205 	mov	r4,a
   06FA 60 03              2206 	jz	00140$
                    06FC   2207 	C$fb_app_rollo11.c$539$5$5 ==.
                           2208 ;	..\fb_app_rollo11.c:539: timercnt[m]=timercnt[m]-1;// den timer [m]decrementieren
   06FC EC                 2209 	mov	a,r4
   06FD 14                 2210 	dec	a
   06FE F7                 2211 	mov	@r1,a
   06FF                    2212 00140$:
                    06FF   2213 	C$fb_app_rollo11.c$534$1$1 ==.
                           2214 ;	..\fb_app_rollo11.c:534: for(m=0;m<TIMERANZ;m++){// die timer der reihe nach checken und dec wenn laufen
   06FF 0D                 2215 	inc	r5
   0700 80 BB              2216 	sjmp	00138$
   0702                    2217 00141$:
                    0702   2218 	C$fb_app_rollo11.c$550$5$14 ==.
                           2219 ;	..\fb_app_rollo11.c:550: for(objno=0;objno<=15;objno++) {
   0702 7F 00              2220 	mov	r7,#0x00
   0704                    2221 00142$:
   0704 EF                 2222 	mov	a,r7
   0705 24 F0              2223 	add	a,#0xff - 0x0F
   0707 50 03              2224 	jnc	00179$
   0709 02s07rFE           2225 	ljmp	00145$
   070C                    2226 00179$:
                    070C   2227 	C$fb_app_rollo11.c$551$2$6 ==.
                           2228 ;	..\fb_app_rollo11.c:551: delay_state=timerstate[objno];			//status des timer-records
   070C EF                 2229 	mov	a,r7
   070D 24r10              2230 	add	a,#_timerstate
   070F F9                 2231 	mov	r1,a
                    0710   2232 	C$fb_app_rollo11.c$552$2$6 ==.
                           2233 ;	..\fb_app_rollo11.c:552: if(delay_state!=0x00) {					// 0x00 = delay Eintrag ist leer   
   0710 E7                 2234 	mov	a,@r1
   0711 FE                 2235 	mov	r6,a
   0712 70 03              2236 	jnz	00180$
   0714 02s07rFA           2237 	ljmp	00144$
   0717                    2238 00180$:
                    0717   2239 	C$fb_app_rollo11.c$553$3$7 ==.
                           2240 ;	..\fb_app_rollo11.c:553: if(timercnt[objno]==0 && (timerbase[objno]&0x80)) { 	// wenn der cnt null und run=1, also zeit ist abgelaufen...
   0717 EF                 2241 	mov	a,r7
   0718 24r00              2242 	add	a,#_timercnt
   071A F8                 2243 	mov	r0,a
   071B E6                 2244 	mov	a,@r0
   071C 60 03              2245 	jz	00181$
   071E 02s07rFA           2246 	ljmp	00144$
   0721                    2247 00181$:
   0721 EF                 2248 	mov	a,r7
   0722 24 10              2249 	add	a,#_timerbase
   0724 FD                 2250 	mov	r5,a
   0725 C0 00              2251 	push	ar0
   0727 A8 05              2252 	mov	r0,ar5
   0729 86 05              2253 	mov	ar5,@r0
   072B D0 00              2254 	pop	ar0
   072D ED                 2255 	mov	a,r5
   072E 20 E7 03           2256 	jb	acc.7,00182$
   0731 02s07rFA           2257 	ljmp	00144$
   0734                    2258 00182$:
                    0734   2259 	C$fb_app_rollo11.c$554$4$8 ==.
                           2260 ;	..\fb_app_rollo11.c:554: if (objno<=7){// wenns ein kurz oder langzeit objekt ist...
   0734 EF                 2261 	mov	a,r7
   0735 24 F8              2262 	add	a,#0xff - 0x07
   0737 40 26              2263 	jc	00109$
                    0739   2264 	C$fb_app_rollo11.c$555$5$9 ==.
                           2265 ;	..\fb_app_rollo11.c:555: timerbase[objno]=0;
   0739 EF                 2266 	mov	a,r7
   073A 24 10              2267 	add	a,#_timerbase
   073C C0 00              2268 	push	ar0
   073E F8                 2269 	mov	r0,a
   073F 76 00              2270 	mov	@r0,#0x00
   0741 D0 00              2271 	pop	ar0
                    0743   2272 	C$fb_app_rollo11.c$556$5$9 ==.
                           2273 ;	..\fb_app_rollo11.c:556: timercnt[objno]=0;
                    0743   2274 	C$fb_app_rollo11.c$557$5$9 ==.
                           2275 ;	..\fb_app_rollo11.c:557: timerstate[objno]=0;
                    0743   2276 	C$fb_app_rollo11.c$558$5$9 ==.
                           2277 ;	..\fb_app_rollo11.c:558: kanal[objno&0x03]=0x00;
   0743 E4                 2278 	clr	a
   0744 F6                 2279 	mov	@r0,a
   0745 F7                 2280 	mov	@r1,a
   0746 74 03              2281 	mov	a,#0x03
   0748 5F                 2282 	anl	a,r7
   0749 24r23              2283 	add	a,#_kanal
   074B F8                 2284 	mov	r0,a
   074C 76 00              2285 	mov	@r0,#0x00
                    074E   2286 	C$fb_app_rollo11.c$559$5$9 ==.
                           2287 ;	..\fb_app_rollo11.c:559: set_pause(objno,(delay_state));// einsch. verz "pause" für eventuelle Fahrt in gegenrichtung
   074E C0 07              2288 	push	ar7
   0750 C0 06              2289 	push	ar6
   0752 C0 06              2290 	push	ar6
   0754 8F 82              2291 	mov	dpl,r7
   0756 12s09r46           2292 	lcall	_set_pause
   0759 15 81              2293 	dec	sp
   075B D0 06              2294 	pop	ar6
   075D D0 07              2295 	pop	ar7
   075F                    2296 00109$:
                    075F   2297 	C$fb_app_rollo11.c$562$4$8 ==.
                           2298 ;	..\fb_app_rollo11.c:562: if (objno==9 ){	//Sicherheit 1
   075F BF 09 1A           2299 	cjne	r7,#0x09,00113$
                    0762   2300 	C$fb_app_rollo11.c$563$5$10 ==.
                           2301 ;	..\fb_app_rollo11.c:563: if (delay_state == 0x01){
   0762 BE 01 17           2302 	cjne	r6,#0x01,00113$
                    0765   2303 	C$fb_app_rollo11.c$564$6$11 ==.
                           2304 ;	..\fb_app_rollo11.c:564: timerstate[9]=0x02;// wenn ziel erreicht in delrec sichern
   0765 75*19 02           2305 	mov	(_timerstate + 0x0009),#0x02
                    0768   2306 	C$fb_app_rollo11.c$565$6$11 ==.
                           2307 ;	..\fb_app_rollo11.c:565: Sobject_schalten(48,1);// und Sicherheitsobjekt über bypass schalten
   0768 C0 07              2308 	push	ar7
   076A C0 06              2309 	push	ar6
   076C 74 01              2310 	mov	a,#0x01
   076E C0 E0              2311 	push	acc
   0770 75 82 30           2312 	mov	dpl,#0x30
   0773 12s01r21           2313 	lcall	_Sobject_schalten
   0776 15 81              2314 	dec	sp
   0778 D0 06              2315 	pop	ar6
   077A D0 07              2316 	pop	ar7
   077C                    2317 00113$:
                    077C   2318 	C$fb_app_rollo11.c$569$4$8 ==.
                           2319 ;	..\fb_app_rollo11.c:569: if (objno==10 ){	//Sicherheit 2
   077C BF 0A 1A           2320 	cjne	r7,#0x0A,00117$
                    077F   2321 	C$fb_app_rollo11.c$570$5$12 ==.
                           2322 ;	..\fb_app_rollo11.c:570: if (delay_state == 0x01){
   077F BE 01 17           2323 	cjne	r6,#0x01,00117$
                    0782   2324 	C$fb_app_rollo11.c$571$6$13 ==.
                           2325 ;	..\fb_app_rollo11.c:571: timerstate[10]=0x02;// wenn ziel erreicht in delrec sichern
   0782 75*1A 02           2326 	mov	(_timerstate + 0x000a),#0x02
                    0785   2327 	C$fb_app_rollo11.c$572$6$13 ==.
                           2328 ;	..\fb_app_rollo11.c:572: Sobject_schalten(49,1);// und Sicherheitsobjekt über bypass schalten
   0785 C0 07              2329 	push	ar7
   0787 C0 06              2330 	push	ar6
   0789 74 01              2331 	mov	a,#0x01
   078B C0 E0              2332 	push	acc
   078D 75 82 31           2333 	mov	dpl,#0x31
   0790 12s01r21           2334 	lcall	_Sobject_schalten
   0793 15 81              2335 	dec	sp
   0795 D0 06              2336 	pop	ar6
   0797 D0 07              2337 	pop	ar7
   0799                    2338 00117$:
                    0799   2339 	C$fb_app_rollo11.c$576$4$8 ==.
                           2340 ;	..\fb_app_rollo11.c:576: if ((objno>=11) && (objno<=14)){// die Pausezeit der Kanaele
   0799 BF 0B 00           2341 	cjne	r7,#0x0B,00192$
   079C                    2342 00192$:
   079C 40 3D              2343 	jc	00121$
   079E EF                 2344 	mov	a,r7
   079F 24 F1              2345 	add	a,#0xff - 0x0E
   07A1 40 38              2346 	jc	00121$
                    07A3   2347 	C$fb_app_rollo11.c$577$5$14 ==.
                           2348 ;	..\fb_app_rollo11.c:577: kanal[objno-11]=kanal[objno-11]>>4;			// die oberen 4 bit des kanals sind die neue value.
   07A3 EF                 2349 	mov	a,r7
   07A4 24 F5              2350 	add	a,#0xF5
   07A6 24r23              2351 	add	a,#_kanal
   07A8 F9                 2352 	mov	r1,a
   07A9 E7                 2353 	mov	a,@r1
   07AA C4                 2354 	swap	a
   07AB 54 0F              2355 	anl	a,#0x0F
   07AD FD                 2356 	mov	r5,a
   07AE F7                 2357 	mov	@r1,a
                    07AF   2358 	C$fb_app_rollo11.c$578$5$14 ==.
                           2359 ;	..\fb_app_rollo11.c:578: timerbase[objno]=0;
   07AF EF                 2360 	mov	a,r7
   07B0 24 10              2361 	add	a,#_timerbase
   07B2 F8                 2362 	mov	r0,a
   07B3 76 00              2363 	mov	@r0,#0x00
                    07B5   2364 	C$fb_app_rollo11.c$579$5$14 ==.
                           2365 ;	..\fb_app_rollo11.c:579: timercnt[objno]=0;			//timer loeschen
   07B5 EF                 2366 	mov	a,r7
   07B6 24r00              2367 	add	a,#_timercnt
   07B8 F8                 2368 	mov	r0,a
   07B9 76 00              2369 	mov	@r0,#0x00
                    07BB   2370 	C$fb_app_rollo11.c$580$5$14 ==.
                           2371 ;	..\fb_app_rollo11.c:580: timerstate[objno]=0;
   07BB EF                 2372 	mov	a,r7
   07BC 24r10              2373 	add	a,#_timerstate
   07BE F8                 2374 	mov	r0,a
   07BF 76 00              2375 	mov	@r0,#0x00
                    07C1   2376 	C$fb_app_rollo11.c$581$5$14 ==.
                           2377 ;	..\fb_app_rollo11.c:581: if(timerstate[objno-7])timerbase[objno-7]|=0x80;// timer run-bit des zugehörigen Langzeitobjektes setzen
   07C1 EF                 2378 	mov	a,r7
   07C2 24 F9              2379 	add	a,#0xF9
   07C4 24r10              2380 	add	a,#_timerstate
   07C6 F9                 2381 	mov	r1,a
   07C7 E7                 2382 	mov	a,@r1
   07C8 60 11              2383 	jz	00121$
   07CA EF                 2384 	mov	a,r7
   07CB 24 F9              2385 	add	a,#0xF9
   07CD FD                 2386 	mov	r5,a
   07CE 24 10              2387 	add	a,#_timerbase
   07D0 F9                 2388 	mov	r1,a
   07D1 ED                 2389 	mov	a,r5
   07D2 24 10              2390 	add	a,#_timerbase
   07D4 F8                 2391 	mov	r0,a
   07D5 86 05              2392 	mov	ar5,@r0
   07D7 74 80              2393 	mov	a,#0x80
   07D9 4D                 2394 	orl	a,r5
   07DA F7                 2395 	mov	@r1,a
   07DB                    2396 00121$:
                    07DB   2397 	C$fb_app_rollo11.c$583$4$8 ==.
                           2398 ;	..\fb_app_rollo11.c:583: if (objno>=15){// handmode kurz/langtele + einschaltverz + ausschaltverz
   07DB BF 0F 00           2399 	cjne	r7,#0x0F,00196$
   07DE                    2400 00196$:
   07DE 40 18              2401 	jc	00130$
                    07E0   2402 	C$fb_app_rollo11.c$585$5$15 ==.
                           2403 ;	..\fb_app_rollo11.c:585: if (delay_state == 0x12) timerstate[15]=0x22; // wenn ziel 2 erreicht,  sichern
   07E0 BE 12 03           2404 	cjne	r6,#0x12,00124$
   07E3 75*1F 22           2405 	mov	(_timerstate + 0x000f),#0x22
   07E6                    2406 00124$:
                    07E6   2407 	C$fb_app_rollo11.c$586$5$15 ==.
                           2408 ;	..\fb_app_rollo11.c:586: if (delay_state == 0x01){
   07E6 BE 01 09           2409 	cjne	r6,#0x01,00126$
                    07E9   2410 	C$fb_app_rollo11.c$587$6$16 ==.
                           2411 ;	..\fb_app_rollo11.c:587: timerbase[15]=0x80 + 3;
   07E9 75 1F 83           2412 	mov	(_timerbase + 0x000f),#0x83
                    07EC   2413 	C$fb_app_rollo11.c$588$6$16 ==.
                           2414 ;	..\fb_app_rollo11.c:588: timerstate[15]=0x12;
   07EC 75*1F 12           2415 	mov	(_timerstate + 0x000f),#0x12
                    07EF   2416 	C$fb_app_rollo11.c$589$6$16 ==.
                           2417 ;	..\fb_app_rollo11.c:589: timercnt[15]= 20;// wenn ziel 1 erreicht , sichern und restzeit fuer ziel 2 schreiben
   07EF 75*0F 14           2418 	mov	(_timercnt + 0x000f),#0x14
   07F2                    2419 00126$:
                    07F2   2420 	C$fb_app_rollo11.c$592$5$15 ==.
                           2421 ;	..\fb_app_rollo11.c:592: if (delay_state == 0x04) timerstate[15]= 0x08;// wenn ziel erreicht , sichern
   07F2 BE 04 03           2422 	cjne	r6,#0x04,00130$
   07F5 75*1F 08           2423 	mov	(_timerstate + 0x000f),#0x08
   07F8                    2424 00130$:
                    07F8   2425 	C$fb_app_rollo11.c$594$4$8 ==.
                           2426 ;	..\fb_app_rollo11.c:594: portchanged=1;
   07F8 D2*00              2427 	setb	_portchanged
   07FA                    2428 00144$:
                    07FA   2429 	C$fb_app_rollo11.c$550$1$1 ==.
                           2430 ;	..\fb_app_rollo11.c:550: for(objno=0;objno<=15;objno++) {
   07FA 0F                 2431 	inc	r7
   07FB 02s07r04           2432 	ljmp	00142$
   07FE                    2433 00145$:
                    07FE   2434 	C$fb_app_rollo11.c$604$1$1 ==.
                           2435 ;	..\fb_app_rollo11.c:604: if (eeprom[0xE5]& 0xC0){
   07FE 90s00rE5           2436 	mov	dptr,#(_eeprom + 0x00e5)
   0801 E4                 2437 	clr	a
   0802 93                 2438 	movc	a,@a+dptr
   0803 FF                 2439 	mov	r7,a
   0804 54 C0              2440 	anl	a,#0xC0
   0806 60 03              2441 	jz	00146$
                    0808   2442 	C$fb_app_rollo11.c$605$2$17 ==.
                           2443 ;	..\fb_app_rollo11.c:605: handsteuerung();   // Handbetätigung nur jedes 8.mal ausführen
   0808 12s08r0C           2444 	lcall	_handsteuerung
   080B                    2445 00146$:
                    080B   2446 	C$fb_app_rollo11.c$609$2$1 ==.
                    080B   2447 	XG$delay_timer$0$0 ==.
   080B 22                 2448 	ret
                           2449 ;------------------------------------------------------------
                           2450 ;Allocation info for local variables in function 'handsteuerung'
                           2451 ;------------------------------------------------------------
                           2452 ;n                         Allocated to registers r6 
                           2453 ;tmph                      Allocated to registers 
                           2454 ;key_pattern               Allocated to registers r7 
                           2455 ;Tasten                    Allocated to registers r7 
                           2456 ;------------------------------------------------------------
                    080C   2457 	G$handsteuerung$0$0 ==.
                    080C   2458 	C$fb_app_rollo11.c$684$2$1 ==.
                           2459 ;	..\fb_app_rollo11.c:684: void handsteuerung(void)
                           2460 ;	-----------------------------------------
                           2461 ;	 function handsteuerung
                           2462 ;	-----------------------------------------
   080C                    2463 _handsteuerung:
                    080C   2464 	C$fb_app_rollo11.c$699$1$1 ==.
                           2465 ;	..\fb_app_rollo11.c:699: if((TMOD&0x0F)==0x02 && fb_state==0) {
   080C 74 0F              2466 	mov	a,#0x0F
   080E 55 89              2467 	anl	a,_TMOD
   0810 FF                 2468 	mov	r7,a
   0811 BF 02 02           2469 	cjne	r7,#0x02,00155$
   0814 80 03              2470 	sjmp	00156$
   0816                    2471 00155$:
   0816 02s09r1A           2472 	ljmp	00136$
   0819                    2473 00156$:
   0819 E5*00              2474 	mov	a,_fb_state
   081B 60 03              2475 	jz	00157$
   081D 02s09r1A           2476 	ljmp	00136$
   0820                    2477 00157$:
                    0820   2478 	C$fb_app_rollo11.c$709$2$2 ==.
                           2479 ;	..\fb_app_rollo11.c:709: while( (TMOD&0x0F)==0x02 && ( TL0>0x72));// PWM scannen um "Hand"-Tasten abzufragen
   0820                    2480 00102$:
   0820 74 0F              2481 	mov	a,#0x0F
   0822 55 89              2482 	anl	a,_TMOD
   0824 FF                 2483 	mov	r7,a
   0825 BF 02 06           2484 	cjne	r7,#0x02,00104$
   0828 E5 8A              2485 	mov	a,_TL0
   082A 24 8D              2486 	add	a,#0xff - 0x72
   082C 40 F2              2487 	jc	00102$
   082E                    2488 00104$:
                    082E   2489 	C$fb_app_rollo11.c$734$2$2 ==.
                           2490 ;	..\fb_app_rollo11.c:734: key_pattern=(0x01<<(delay_toggle&0x03));
   082E 74 03              2491 	mov	a,#0x03
   0830 55 09              2492 	anl	a,_delay_toggle
   0832 FF                 2493 	mov	r7,a
   0833 8F F0              2494 	mov	b,r7
   0835 05 F0              2495 	inc	b
   0837 74 01              2496 	mov	a,#0x01
   0839 80 02              2497 	sjmp	00163$
   083B                    2498 00161$:
   083B 25 E0              2499 	add	a,acc
   083D                    2500 00163$:
   083D D5 F0 FB           2501 	djnz	b,00161$
                    0840   2502 	C$fb_app_rollo11.c$735$2$2 ==.
                           2503 ;	..\fb_app_rollo11.c:735: P0 = ~key_pattern;
   0840 FF                 2504 	mov	r7,a
   0841 F4                 2505 	cpl	a
   0842 F5 80              2506 	mov	_P0,a
                    0844   2507 	C$fb_app_rollo11.c$736$2$2 ==.
                           2508 ;	..\fb_app_rollo11.c:736: P0_5=1;
   0844 D2 85              2509 	setb	_P0_5
                    0846   2510 	C$fb_app_rollo11.c$737$2$2 ==.
                           2511 ;	..\fb_app_rollo11.c:737: if(!P0_5 && !ledport)ledport=0x08+(delay_toggle&0x03);	
   0846 20 85 0C           2512 	jb	_P0_5,00106$
   0849 E5*28              2513 	mov	a,_ledport
   084B 70 08              2514 	jnz	00106$
   084D 74 03              2515 	mov	a,#0x03
   084F 55 09              2516 	anl	a,_delay_toggle
   0851 24 08              2517 	add	a,#0x08
   0853 F5*28              2518 	mov	_ledport,a
   0855                    2519 00106$:
                    0855   2520 	C$fb_app_rollo11.c$739$2$2 ==.
                           2521 ;	..\fb_app_rollo11.c:739: P0=oldportbuffer; 
   0855 85 0E 80           2522 	mov	_P0,_oldportbuffer
                    0858   2523 	C$fb_app_rollo11.c$746$2$2 ==.
                           2524 ;	..\fb_app_rollo11.c:746: if (key_pattern==0x08)
   0858 BF 08 02           2525 	cjne	r7,#0x08,00166$
   085B 80 03              2526 	sjmp	00167$
   085D                    2527 00166$:
   085D 02s09r1A           2528 	ljmp	00136$
   0860                    2529 00167$:
                    0860   2530 	C$fb_app_rollo11.c$749$3$3 ==.
                           2531 ;	..\fb_app_rollo11.c:749: Tasten=ledport;
   0860 AF*28              2532 	mov	r7,_ledport
                    0862   2533 	C$fb_app_rollo11.c$750$3$3 ==.
                           2534 ;	..\fb_app_rollo11.c:750: ledport=0;
   0862 75*28 00           2535 	mov	_ledport,#0x00
                    0865   2536 	C$fb_app_rollo11.c$754$3$3 ==.
                           2537 ;	..\fb_app_rollo11.c:754: if (Tasten & 0x08 ){
   0865 EF                 2538 	mov	a,r7
   0866 30 E3 13           2539 	jnb	acc.3,00123$
                    0869   2540 	C$fb_app_rollo11.c$755$4$4 ==.
                           2541 ;	..\fb_app_rollo11.c:755: if (!Tval ){// steigende Flanke des Tasters 
   0869 E5*20              2542 	mov	a,_Tval
   086B 60 03              2543 	jz	00169$
   086D 02s09r05           2544 	ljmp	00124$
   0870                    2545 00169$:
                    0870   2546 	C$fb_app_rollo11.c$758$5$5 ==.
                           2547 ;	..\fb_app_rollo11.c:758: timerstate[15]=0x01;
   0870 75*1F 01           2548 	mov	(_timerstate + 0x000f),#0x01
                    0873   2549 	C$fb_app_rollo11.c$759$5$5 ==.
                           2550 ;	..\fb_app_rollo11.c:759: timerbase[15]=0x80 + 2;
   0873 75 1F 82           2551 	mov	(_timerbase + 0x000f),#0x82
                    0876   2552 	C$fb_app_rollo11.c$760$5$5 ==.
                           2553 ;	..\fb_app_rollo11.c:760: timercnt[15]= 50;
   0876 75*0F 32           2554 	mov	(_timercnt + 0x000f),#0x32
   0879 02s09r05           2555 	ljmp	00124$
   087C                    2556 00123$:
                    087C   2557 	C$fb_app_rollo11.c$764$4$6 ==.
                           2558 ;	..\fb_app_rollo11.c:764: if ( Tval & 0x08){ // wenn tasten >7 und Tval <=7 also taste losgelassen...
   087C E5*20              2559 	mov	a,_Tval
   087E 20 E3 03           2560 	jb	acc.3,00170$
   0881 02s09r05           2561 	ljmp	00124$
   0884                    2562 00170$:
                    0884   2563 	C$fb_app_rollo11.c$765$5$7 ==.
                           2564 ;	..\fb_app_rollo11.c:765: if (timerstate[15]&0x20){
   0884 E5*1F              2565 	mov	a,(_timerstate + 0x000f)
   0886 30 E5 29           2566 	jnb	acc.5,00114$
                    0889   2567 	C$fb_app_rollo11.c$766$6$8 ==.
                           2568 ;	..\fb_app_rollo11.c:766: handmode = !handmode;
   0889 B2*02              2569 	cpl	_handmode
                    088B   2570 	C$fb_app_rollo11.c$767$6$8 ==.
                           2571 ;	..\fb_app_rollo11.c:767: timerbase[15]=0;
   088B 75 1F 00           2572 	mov	(_timerbase + 0x000f),#0x00
                    088E   2573 	C$fb_app_rollo11.c$768$6$8 ==.
                           2574 ;	..\fb_app_rollo11.c:768: timerstate[15]=0;
   088E 75*1F 00           2575 	mov	(_timerstate + 0x000f),#0x00
                    0891   2576 	C$fb_app_rollo11.c$769$6$8 ==.
                           2577 ;	..\fb_app_rollo11.c:769: timercnt[15]=0;
   0891 75*0F 00           2578 	mov	(_timercnt + 0x000f),#0x00
                    0894   2579 	C$fb_app_rollo11.c$770$6$8 ==.
                           2580 ;	..\fb_app_rollo11.c:770: if (handmode){
   0894 30*02 14           2581 	jnb	_handmode,00111$
                    0897   2582 	C$fb_app_rollo11.c$771$7$9 ==.
                           2583 ;	..\fb_app_rollo11.c:771: for(n=0;n<=3;n++) kanal[n]=0x00;
   0897 7E 00              2584 	mov	r6,#0x00
   0899                    2585 00132$:
   0899 EE                 2586 	mov	a,r6
   089A 24 FC              2587 	add	a,#0xff - 0x03
   089C 40 09              2588 	jc	00135$
   089E EE                 2589 	mov	a,r6
   089F 24r23              2590 	add	a,#_kanal
   08A1 F8                 2591 	mov	r0,a
   08A2 76 00              2592 	mov	@r0,#0x00
   08A4 0E                 2593 	inc	r6
   08A5 80 F2              2594 	sjmp	00132$
   08A7                    2595 00135$:
                    08A7   2596 	C$fb_app_rollo11.c$772$7$9 ==.
                           2597 ;	..\fb_app_rollo11.c:772: portchanged=1;
   08A7 D2*00              2598 	setb	_portchanged
   08A9 80 07              2599 	sjmp	00114$
   08AB                    2600 00111$:
                    08AB   2601 	C$fb_app_rollo11.c$775$7$10 ==.
                           2602 ;	..\fb_app_rollo11.c:775: sobj_update();
   08AB C0 07              2603 	push	ar7
   08AD 12s09r1B           2604 	lcall	_sobj_update
   08B0 D0 07              2605 	pop	ar7
   08B2                    2606 00114$:
                    08B2   2607 	C$fb_app_rollo11.c$778$5$7 ==.
                           2608 ;	..\fb_app_rollo11.c:778: if (handmode){// wenn handmode aktiv...
   08B2 30*02 47           2609 	jnb	_handmode,00119$
                    08B5   2610 	C$fb_app_rollo11.c$779$6$11 ==.
                           2611 ;	..\fb_app_rollo11.c:779: if (timerstate[15]&0x02){// status der zeit=2 also abgelaufen..
   08B5 E5*1F              2612 	mov	a,(_timerstate + 0x000f)
   08B7 30 E1 22           2613 	jnb	acc.1,00116$
                    08BA   2614 	C$fb_app_rollo11.c$780$7$12 ==.
                           2615 ;	..\fb_app_rollo11.c:780: object_schalten(((Tval&0x07)>>1)+12,(Tval&0x01));
   08BA E5*20              2616 	mov	a,_Tval
   08BC 54 01              2617 	anl	a,#0x01
   08BE 24 FF              2618 	add	a,#0xff
   08C0 92*00              2619 	mov	b0,c
   08C2 74 07              2620 	mov	a,#0x07
   08C4 55*20              2621 	anl	a,_Tval
   08C6 C3                 2622 	clr	c
   08C7 13                 2623 	rrc	a
   08C8 24 0C              2624 	add	a,#0x0C
   08CA F5 82              2625 	mov	dpl,a
   08CC A2*00              2626 	mov	c,b0
   08CE 92 F0              2627 	mov	b[0],c
   08D0 C0 07              2628 	push	ar7
   08D2 85 F0*00           2629 	mov	bits,b
   08D5 12s02r8B           2630 	lcall	_object_schalten
   08D8 D0 07              2631 	pop	ar7
   08DA 80 20              2632 	sjmp	00119$
   08DC                    2633 00116$:
                    08DC   2634 	C$fb_app_rollo11.c$783$7$13 ==.
                           2635 ;	..\fb_app_rollo11.c:783: object_schalten(((Tval&0x07)>>1)+8,(Tval&0x01));
   08DC E5*20              2636 	mov	a,_Tval
   08DE 54 01              2637 	anl	a,#0x01
   08E0 24 FF              2638 	add	a,#0xff
   08E2 92*00              2639 	mov	b0,c
   08E4 74 07              2640 	mov	a,#0x07
   08E6 55*20              2641 	anl	a,_Tval
   08E8 C3                 2642 	clr	c
   08E9 13                 2643 	rrc	a
   08EA 24 08              2644 	add	a,#0x08
   08EC F5 82              2645 	mov	dpl,a
   08EE A2*00              2646 	mov	c,b0
   08F0 92 F0              2647 	mov	b[0],c
   08F2 C0 07              2648 	push	ar7
   08F4 85 F0*00           2649 	mov	bits,b
   08F7 12s02r8B           2650 	lcall	_object_schalten
   08FA D0 07              2651 	pop	ar7
   08FC                    2652 00119$:
                    08FC   2653 	C$fb_app_rollo11.c$787$5$7 ==.
                           2654 ;	..\fb_app_rollo11.c:787: timerbase[15]=0x80 + 3;//130ms
   08FC 75 1F 83           2655 	mov	(_timerbase + 0x000f),#0x83
                    08FF   2656 	C$fb_app_rollo11.c$788$5$7 ==.
                           2657 ;	..\fb_app_rollo11.c:788: timerstate[15]=0x04;
   08FF 75*1F 04           2658 	mov	(_timerstate + 0x000f),#0x04
                    0902   2659 	C$fb_app_rollo11.c$789$5$7 ==.
                           2660 ;	..\fb_app_rollo11.c:789: timercnt[15]=116;//=15 Sekunden
   0902 75*0F 74           2661 	mov	(_timercnt + 0x000f),#0x74
   0905                    2662 00124$:
                    0905   2663 	C$fb_app_rollo11.c$792$3$3 ==.
                           2664 ;	..\fb_app_rollo11.c:792: Tval=Tasten;
   0905 8F*20              2665 	mov	_Tval,r7
                    0907   2666 	C$fb_app_rollo11.c$794$3$3 ==.
                           2667 ;	..\fb_app_rollo11.c:794: if(timerstate[15]&0x08){
   0907 E5*1F              2668 	mov	a,(_timerstate + 0x000f)
   0909 30 E3 0E           2669 	jnb	acc.3,00136$
                    090C   2670 	C$fb_app_rollo11.c$795$4$14 ==.
                           2671 ;	..\fb_app_rollo11.c:795: handmode=0;//handmode automatisch ausschalten
   090C C2*02              2672 	clr	_handmode
                    090E   2673 	C$fb_app_rollo11.c$797$4$14 ==.
                           2674 ;	..\fb_app_rollo11.c:797: timerbase[15]=0;
   090E 75 1F 00           2675 	mov	(_timerbase + 0x000f),#0x00
                    0911   2676 	C$fb_app_rollo11.c$798$4$14 ==.
                           2677 ;	..\fb_app_rollo11.c:798: timerstate[15]=0;
   0911 75*1F 00           2678 	mov	(_timerstate + 0x000f),#0x00
                    0914   2679 	C$fb_app_rollo11.c$799$4$14 ==.
                           2680 ;	..\fb_app_rollo11.c:799: timercnt[15]=0;
   0914 75*0F 00           2681 	mov	(_timercnt + 0x000f),#0x00
                    0917   2682 	C$fb_app_rollo11.c$800$4$14 ==.
                           2683 ;	..\fb_app_rollo11.c:800: sobj_update();
   0917 12s09r1B           2684 	lcall	_sobj_update
   091A                    2685 00136$:
                    091A   2686 	C$fb_app_rollo11.c$805$1$1 ==.
                    091A   2687 	XG$handsteuerung$0$0 ==.
   091A 22                 2688 	ret
                           2689 ;------------------------------------------------------------
                           2690 ;Allocation info for local variables in function 'sobj_update'
                           2691 ;------------------------------------------------------------
                    091B   2692 	G$sobj_update$0$0 ==.
                    091B   2693 	C$fb_app_rollo11.c$809$1$1 ==.
                           2694 ;	..\fb_app_rollo11.c:809: void sobj_update(void)
                           2695 ;	-----------------------------------------
                           2696 ;	 function sobj_update
                           2697 ;	-----------------------------------------
   091B                    2698 _sobj_update:
                    091B   2699 	C$fb_app_rollo11.c$811$1$1 ==.
                           2700 ;	..\fb_app_rollo11.c:811: Sobject_schalten(16,read_obj_value(16)&0x01);
   091B 75 82 10           2701 	mov	dpl,#0x10
   091E 12s00r44           2702 	lcall	_read_obj_value
   0921 AC 82              2703 	mov	r4,dpl
   0923 53 04 01           2704 	anl	ar4,#0x01
   0926 C0 04              2705 	push	ar4
   0928 75 82 10           2706 	mov	dpl,#0x10
   092B 12s01r21           2707 	lcall	_Sobject_schalten
   092E 15 81              2708 	dec	sp
                    0930   2709 	C$fb_app_rollo11.c$812$1$1 ==.
                           2710 ;	..\fb_app_rollo11.c:812: Sobject_schalten(17,read_obj_value(17)&0x01);
   0930 75 82 11           2711 	mov	dpl,#0x11
   0933 12s00r44           2712 	lcall	_read_obj_value
   0936 AC 82              2713 	mov	r4,dpl
   0938 53 04 01           2714 	anl	ar4,#0x01
   093B C0 04              2715 	push	ar4
   093D 75 82 11           2716 	mov	dpl,#0x11
   0940 12s01r21           2717 	lcall	_Sobject_schalten
   0943 15 81              2718 	dec	sp
                    0945   2719 	C$fb_app_rollo11.c$813$1$1 ==.
                    0945   2720 	XG$sobj_update$0$0 ==.
   0945 22                 2721 	ret
                           2722 ;------------------------------------------------------------
                           2723 ;Allocation info for local variables in function 'set_pause'
                           2724 ;------------------------------------------------------------
                           2725 ;Pstate                    Allocated to stack - _bp -3
                           2726 ;objnr                     Allocated to registers r7 
                           2727 ;pause                     Allocated to registers r7 
                           2728 ;pauseobj                  Allocated to registers r6 
                           2729 ;------------------------------------------------------------
                    0946   2730 	G$set_pause$0$0 ==.
                    0946   2731 	C$fb_app_rollo11.c$814$1$1 ==.
                           2732 ;	..\fb_app_rollo11.c:814: void set_pause(unsigned char objnr,unsigned char Pstate)// setzt die Pausezeit und traegt Pstate in timerstate[ ] ein
                           2733 ;	-----------------------------------------
                           2734 ;	 function set_pause
                           2735 ;	-----------------------------------------
   0946                    2736 _set_pause:
   0946 C0*00              2737 	push	_bp
   0948 85 81*00           2738 	mov	_bp,sp
   094B AF 82              2739 	mov	r7,dpl
                    094D   2740 	C$fb_app_rollo11.c$817$1$1 ==.
                           2741 ;	..\fb_app_rollo11.c:817: pauseobj=(objnr&0x03)+11;
   094D 53 07 03           2742 	anl	ar7,#0x03
   0950 74 0B              2743 	mov	a,#0x0B
   0952 2F                 2744 	add	a,r7
                    0953   2745 	C$fb_app_rollo11.c$818$1$1 ==.
                           2746 ;	..\fb_app_rollo11.c:818: timerstate[pauseobj]=Pstate;
   0953 FE                 2747 	mov	r6,a
   0954 24r10              2748 	add	a,#_timerstate
   0956 F8                 2749 	mov	r0,a
   0957 E5*00              2750 	mov	a,_bp
   0959 24 FD              2751 	add	a,#0xfd
   095B F9                 2752 	mov	r1,a
   095C E7                 2753 	mov	a,@r1
   095D F6                 2754 	mov	@r0,a
                    095E   2755 	C$fb_app_rollo11.c$819$1$1 ==.
                           2756 ;	..\fb_app_rollo11.c:819: switch ((eeprom[0xEE]>>((objnr&0x03)<<1))&0x03) { // Dauer zwischen auf und ab
   095E 90s00rEE           2757 	mov	dptr,#(_eeprom + 0x00ee)
   0961 E4                 2758 	clr	a
   0962 93                 2759 	movc	a,@a+dptr
   0963 FD                 2760 	mov	r5,a
   0964 E4                 2761 	clr	a
   0965 CF                 2762 	xch	a,r7
   0966 25 E0              2763 	add	a,acc
   0968 CF                 2764 	xch	a,r7
   0969 33                 2765 	rlc	a
   096A FC                 2766 	mov	r4,a
   096B 8F F0              2767 	mov	b,r7
   096D 05 F0              2768 	inc	b
   096F ED                 2769 	mov	a,r5
   0970 80 02              2770 	sjmp	00112$
   0972                    2771 00111$:
   0972 C3                 2772 	clr	c
   0973 13                 2773 	rrc	a
   0974                    2774 00112$:
   0974 D5 F0 FB           2775 	djnz	b,00111$
   0977 54 03              2776 	anl	a,#0x03
   0979 FF                 2777 	mov	r7,a
   097A 60 0A              2778 	jz	00101$
   097C BF 01 02           2779 	cjne	r7,#0x01,00114$
   097F 80 09              2780 	sjmp	00102$
   0981                    2781 00114$:
                    0981   2782 	C$fb_app_rollo11.c$820$2$2 ==.
                           2783 ;	..\fb_app_rollo11.c:820: case 0:	// 0,5s
   0981 BF 02 0E           2784 	cjne	r7,#0x02,00104$
   0984 80 08              2785 	sjmp	00103$
   0986                    2786 00101$:
                    0986   2787 	C$fb_app_rollo11.c$821$2$2 ==.
                           2788 ;	..\fb_app_rollo11.c:821: pause=4 ;
   0986 7F 04              2789 	mov	r7,#0x04
                    0988   2790 	C$fb_app_rollo11.c$822$2$2 ==.
                           2791 ;	..\fb_app_rollo11.c:822: break;
                    0988   2792 	C$fb_app_rollo11.c$823$2$2 ==.
                           2793 ;	..\fb_app_rollo11.c:823: case 1:	// 1s
   0988 80 0A              2794 	sjmp	00105$
   098A                    2795 00102$:
                    098A   2796 	C$fb_app_rollo11.c$824$2$2 ==.
                           2797 ;	..\fb_app_rollo11.c:824: pause=8 ;
   098A 7F 08              2798 	mov	r7,#0x08
                    098C   2799 	C$fb_app_rollo11.c$825$2$2 ==.
                           2800 ;	..\fb_app_rollo11.c:825: break;
                    098C   2801 	C$fb_app_rollo11.c$826$2$2 ==.
                           2802 ;	..\fb_app_rollo11.c:826: case 2:	// 2s
   098C 80 06              2803 	sjmp	00105$
   098E                    2804 00103$:
                    098E   2805 	C$fb_app_rollo11.c$827$2$2 ==.
                           2806 ;	..\fb_app_rollo11.c:827: pause=16 ;
   098E 7F 10              2807 	mov	r7,#0x10
                    0990   2808 	C$fb_app_rollo11.c$828$2$2 ==.
                           2809 ;	..\fb_app_rollo11.c:828: break;
                    0990   2810 	C$fb_app_rollo11.c$829$2$2 ==.
                           2811 ;	..\fb_app_rollo11.c:829: default:	// 5s
   0990 80 02              2812 	sjmp	00105$
   0992                    2813 00104$:
                    0992   2814 	C$fb_app_rollo11.c$830$2$2 ==.
                           2815 ;	..\fb_app_rollo11.c:830: pause=39 ;
   0992 7F 27              2816 	mov	r7,#0x27
                    0994   2817 	C$fb_app_rollo11.c$832$1$1 ==.
                           2818 ;	..\fb_app_rollo11.c:832: }
   0994                    2819 00105$:
                    0994   2820 	C$fb_app_rollo11.c$833$1$1 ==.
                           2821 ;	..\fb_app_rollo11.c:833: timercnt[pauseobj]=pause;
   0994 EE                 2822 	mov	a,r6
   0995 24r00              2823 	add	a,#_timercnt
   0997 F8                 2824 	mov	r0,a
   0998 A6 07              2825 	mov	@r0,ar7
                    099A   2826 	C$fb_app_rollo11.c$834$1$1 ==.
                           2827 ;	..\fb_app_rollo11.c:834: timerbase[pauseobj]= 3 | 0x80;
   099A EE                 2828 	mov	a,r6
   099B 24 10              2829 	add	a,#_timerbase
   099D F8                 2830 	mov	r0,a
   099E 76 83              2831 	mov	@r0,#0x83
   09A0 D0*00              2832 	pop	_bp
                    09A2   2833 	C$fb_app_rollo11.c$836$1$1 ==.
                    09A2   2834 	XG$set_pause$0$0 ==.
   09A2 22                 2835 	ret
                           2836 ;------------------------------------------------------------
                           2837 ;Allocation info for local variables in function 'set_entriegeln'
                           2838 ;------------------------------------------------------------
                           2839 ;zeitnr                    Allocated to registers r7 
                           2840 ;svbase                    Allocated to registers r6 
                           2841 ;------------------------------------------------------------
                    09A3   2842 	G$set_entriegeln$0$0 ==.
                    09A3   2843 	C$fb_app_rollo11.c$839$1$1 ==.
                           2844 ;	..\fb_app_rollo11.c:839: void set_entriegeln(unsigned char zeitnr)// Setzt die zyklische überwachungszeit
                           2845 ;	-----------------------------------------
                           2846 ;	 function set_entriegeln
                           2847 ;	-----------------------------------------
   09A3                    2848 _set_entriegeln:
   09A3 AF 82              2849 	mov	r7,dpl
                    09A5   2850 	C$fb_app_rollo11.c$844$1$1 ==.
                           2851 ;	..\fb_app_rollo11.c:844: svbase=eeprom[0xD9]&0x0F;
   09A5 90s00rD9           2852 	mov	dptr,#(_eeprom + 0x00d9)
   09A8 E4                 2853 	clr	a
   09A9 93                 2854 	movc	a,@a+dptr
                    09AA   2855 	C$fb_app_rollo11.c$845$1$1 ==.
                           2856 ;	..\fb_app_rollo11.c:845: if(svbase){
   09AA 54 0F              2857 	anl	a,#0x0F
   09AC FE                 2858 	mov	r6,a
   09AD 60 19              2859 	jz	00102$
                    09AF   2860 	C$fb_app_rollo11.c$846$2$2 ==.
                           2861 ;	..\fb_app_rollo11.c:846: timercnt[zeitnr]=svfaktorarray[svbase];
   09AF EF                 2862 	mov	a,r7
   09B0 24r00              2863 	add	a,#_timercnt
   09B2 F9                 2864 	mov	r1,a
   09B3 EE                 2865 	mov	a,r6
   09B4 90s00r0C           2866 	mov	dptr,#_svfaktorarray
   09B7 93                 2867 	movc	a,@a+dptr
   09B8 FE                 2868 	mov	r6,a
   09B9 F7                 2869 	mov	@r1,a
                    09BA   2870 	C$fb_app_rollo11.c$847$2$2 ==.
                           2871 ;	..\fb_app_rollo11.c:847: timerbase[zeitnr]=5 | 0x80;
   09BA EF                 2872 	mov	a,r7
   09BB 24 10              2873 	add	a,#_timerbase
   09BD F8                 2874 	mov	r0,a
   09BE 76 85              2875 	mov	@r0,#0x85
                    09C0   2876 	C$fb_app_rollo11.c$848$2$2 ==.
                           2877 ;	..\fb_app_rollo11.c:848: timerstate[zeitnr]=0x01;
   09C0 EF                 2878 	mov	a,r7
   09C1 24r10              2879 	add	a,#_timerstate
   09C3 F8                 2880 	mov	r0,a
   09C4 76 01              2881 	mov	@r0,#0x01
   09C6 80 0C              2882 	sjmp	00104$
   09C8                    2883 00102$:
                    09C8   2884 	C$fb_app_rollo11.c$851$2$3 ==.
                           2885 ;	..\fb_app_rollo11.c:851: timerbase[zeitnr]=0;
   09C8 EF                 2886 	mov	a,r7
   09C9 24 10              2887 	add	a,#_timerbase
   09CB F8                 2888 	mov	r0,a
   09CC 76 00              2889 	mov	@r0,#0x00
                    09CE   2890 	C$fb_app_rollo11.c$852$2$3 ==.
                           2891 ;	..\fb_app_rollo11.c:852: timerstate[zeitnr]=0;
   09CE EF                 2892 	mov	a,r7
   09CF 24r10              2893 	add	a,#_timerstate
   09D1 F8                 2894 	mov	r0,a
   09D2 76 00              2895 	mov	@r0,#0x00
   09D4                    2896 00104$:
                    09D4   2897 	C$fb_app_rollo11.c$855$1$1 ==.
                    09D4   2898 	XG$set_entriegeln$0$0 ==.
   09D4 22                 2899 	ret
                           2900 ;------------------------------------------------------------
                           2901 ;Allocation info for local variables in function 'port_schalten'
                           2902 ;------------------------------------------------------------
                           2903 ;kmod                      Allocated to registers r7 
                           2904 ;------------------------------------------------------------
                    09D5   2905 	G$port_schalten$0$0 ==.
                    09D5   2906 	C$fb_app_rollo11.c$918$1$1 ==.
                           2907 ;	..\fb_app_rollo11.c:918: void port_schalten(void)		// Schaltet die Ports mit PWM, DUTY ist Pulsverhältnis
                           2908 ;	-----------------------------------------
                           2909 ;	 function port_schalten
                           2910 ;	-----------------------------------------
   09D5                    2911 _port_schalten:
                    09D5   2912 	C$fb_app_rollo11.c$922$1$1 ==.
                           2913 ;	..\fb_app_rollo11.c:922: portbuffer=0;
   09D5 75 0D 00           2914 	mov	_portbuffer,#0x00
                    09D8   2915 	C$fb_app_rollo11.c$923$1$1 ==.
                           2916 ;	..\fb_app_rollo11.c:923: if (eeprom[0xE4]& 0x80) kmod=0x01;		// bit 7 ist Kanal-mode
   09D8 90s00rE4           2917 	mov	dptr,#(_eeprom + 0x00e4)
   09DB E4                 2918 	clr	a
   09DC 93                 2919 	movc	a,@a+dptr
   09DD FF                 2920 	mov	r7,a
   09DE 30 E7 04           2921 	jnb	acc.7,00102$
   09E1 7F 01              2922 	mov	r7,#0x01
   09E3 80 02              2923 	sjmp	00103$
   09E5                    2924 00102$:
                    09E5   2925 	C$fb_app_rollo11.c$924$1$1 ==.
                           2926 ;	..\fb_app_rollo11.c:924: else kmod=0x03;
   09E5 7F 03              2927 	mov	r7,#0x03
   09E7                    2928 00103$:
                    09E7   2929 	C$fb_app_rollo11.c$925$1$1 ==.
                           2930 ;	..\fb_app_rollo11.c:925: for (knr=0;knr<=0x03;knr++){
   09E7 75*27 00           2931 	mov	_knr,#0x00
   09EA                    2932 00107$:
   09EA E5*27              2933 	mov	a,_knr
   09EC 24 FC              2934 	add	a,#0xff - 0x03
   09EE 40 23              2935 	jc	00110$
                    09F0   2936 	C$fb_app_rollo11.c$926$2$2 ==.
                           2937 ;	..\fb_app_rollo11.c:926: portbuffer=portbuffer|((kanal[knr & kmod]& 0x03)<<(knr<<1));
   09F0 EF                 2938 	mov	a,r7
   09F1 55*27              2939 	anl	a,_knr
   09F3 24r23              2940 	add	a,#_kanal
   09F5 F9                 2941 	mov	r1,a
   09F6 87 06              2942 	mov	ar6,@r1
   09F8 53 06 03           2943 	anl	ar6,#0x03
   09FB E5*27              2944 	mov	a,_knr
   09FD 25*27              2945 	add	a,_knr
   09FF FD                 2946 	mov	r5,a
   0A00 8D F0              2947 	mov	b,r5
   0A02 05 F0              2948 	inc	b
   0A04 EE                 2949 	mov	a,r6
   0A05 80 02              2950 	sjmp	00121$
   0A07                    2951 00119$:
   0A07 25 E0              2952 	add	a,acc
   0A09                    2953 00121$:
   0A09 D5 F0 FB           2954 	djnz	b,00119$
   0A0C FE                 2955 	mov	r6,a
   0A0D 42 0D              2956 	orl	_portbuffer,a
                    0A0F   2957 	C$fb_app_rollo11.c$925$1$1 ==.
                           2958 ;	..\fb_app_rollo11.c:925: for (knr=0;knr<=0x03;knr++){
   0A0F 05*27              2959 	inc	_knr
   0A11 80 D7              2960 	sjmp	00107$
   0A13                    2961 00110$:
                    0A13   2962 	C$fb_app_rollo11.c$991$1$1 ==.
                           2963 ;	..\fb_app_rollo11.c:991: if(portbuffer & ~oldportbuffer) {	// Vollstrom nur wenn ein relais eingeschaltet wird
   0A13 AE 0E              2964 	mov	r6,_oldportbuffer
   0A15 7F 00              2965 	mov	r7,#0x00
   0A17 EE                 2966 	mov	a,r6
   0A18 F4                 2967 	cpl	a
   0A19 FE                 2968 	mov	r6,a
   0A1A EF                 2969 	mov	a,r7
   0A1B F4                 2970 	cpl	a
   0A1C FF                 2971 	mov	r7,a
   0A1D AC 0D              2972 	mov	r4,_portbuffer
   0A1F 7D 00              2973 	mov	r5,#0x00
   0A21 EC                 2974 	mov	a,r4
   0A22 52 06              2975 	anl	ar6,a
   0A24 ED                 2976 	mov	a,r5
   0A25 52 07              2977 	anl	ar7,a
   0A27 EE                 2978 	mov	a,r6
   0A28 4F                 2979 	orl	a,r7
   0A29 60 1F              2980 	jz	00105$
                    0A2B   2981 	C$fb_app_rollo11.c$992$2$3 ==.
                           2982 ;	..\fb_app_rollo11.c:992: TR0=0;
   0A2B C2 8C              2983 	clr	_TCON_4
                    0A2D   2984 	C$fb_app_rollo11.c$993$2$3 ==.
                           2985 ;	..\fb_app_rollo11.c:993: AUXR1&=0xE9;	// PWM von Timer 0 nicht mehr auf Pin ausgeben
   0A2D 53 A2 E9           2986 	anl	_AUXR1,#0xE9
                    0A30   2987 	C$fb_app_rollo11.c$996$2$3 ==.
                           2988 ;	..\fb_app_rollo11.c:996: PWM=0;			// Vollstrom an
   0A30 C2 92              2989 	clr	_P1_2
                    0A32   2990 	C$fb_app_rollo11.c$998$2$3 ==.
                           2991 ;	..\fb_app_rollo11.c:998: P0=portbuffer;		// Ports schalten
   0A32 85 0D 80           2992 	mov	_P0,_portbuffer
                    0A35   2993 	C$fb_app_rollo11.c$999$2$3 ==.
                           2994 ;	..\fb_app_rollo11.c:999: TF0=0;			// Timer 0 für Haltezeit Vollstrom verwenden
   0A35 C2 8D              2995 	clr	_TCON_5
                    0A37   2996 	C$fb_app_rollo11.c$1000$2$3 ==.
                           2997 ;	..\fb_app_rollo11.c:1000: TH0=0x00;		// 16ms (10ms=6fff)
                    0A37   2998 	C$fb_app_rollo11.c$1001$2$3 ==.
                           2999 ;	..\fb_app_rollo11.c:1001: TL0=0x00;
                    0A37   3000 	C$fb_app_rollo11.c$1002$2$3 ==.
                           3001 ;	..\fb_app_rollo11.c:1002: TMOD=(TMOD & 0xF0) +1;		// Timer 0 als 16-Bit Timer
   0A37 E4                 3002 	clr	a
   0A38 F5 8C              3003 	mov	_TH0,a
   0A3A F5 8A              3004 	mov	_TL0,a
   0A3C 74 F0              3005 	mov	a,#0xF0
   0A3E 55 89              3006 	anl	a,_TMOD
   0A40 04                 3007 	inc	a
   0A41 F5 89              3008 	mov	_TMOD,a
                    0A43   3009 	C$fb_app_rollo11.c$1003$2$3 ==.
                           3010 ;	..\fb_app_rollo11.c:1003: TAMOD=0x00;
   0A43 75 8F 00           3011 	mov	_TAMOD,#0x00
                    0A46   3012 	C$fb_app_rollo11.c$1004$2$3 ==.
                           3013 ;	..\fb_app_rollo11.c:1004: TR0=1;
   0A46 D2 8C              3014 	setb	_TCON_4
   0A48 80 03              3015 	sjmp	00106$
   0A4A                    3016 00105$:
                    0A4A   3017 	C$fb_app_rollo11.c$1006$1$1 ==.
                           3018 ;	..\fb_app_rollo11.c:1006: else P0=portbuffer;
   0A4A 85 0D 80           3019 	mov	_P0,_portbuffer
   0A4D                    3020 00106$:
                    0A4D   3021 	C$fb_app_rollo11.c$1009$1$1 ==.
                           3022 ;	..\fb_app_rollo11.c:1009: oldportbuffer=portbuffer;
   0A4D 85 0D 0E           3023 	mov	_oldportbuffer,_portbuffer
                    0A50   3024 	C$fb_app_rollo11.c$1010$1$1 ==.
                           3025 ;	..\fb_app_rollo11.c:1010: portchanged=0;
   0A50 C2*00              3026 	clr	_portchanged
                    0A52   3027 	C$fb_app_rollo11.c$1014$1$1 ==.
                    0A52   3028 	XG$port_schalten$0$0 ==.
   0A52 22                 3029 	ret
                           3030 ;------------------------------------------------------------
                           3031 ;Allocation info for local variables in function 'bus_return'
                           3032 ;------------------------------------------------------------
                           3033 ;n                         Allocated to registers r7 
                           3034 ;------------------------------------------------------------
                    0A53   3035 	G$bus_return$0$0 ==.
                    0A53   3036 	C$fb_app_rollo11.c$1136$1$1 ==.
                           3037 ;	..\fb_app_rollo11.c:1136: void bus_return(void)		// Aktionen bei Busspannungswiederkehr
                           3038 ;	-----------------------------------------
                           3039 ;	 function bus_return
                           3040 ;	-----------------------------------------
   0A53                    3041 _bus_return:
                    0A53   3042 	C$fb_app_rollo11.c$1139$1$1 ==.
                           3043 ;	..\fb_app_rollo11.c:1139: blocked=blockedsave;		// Ausgänge gesperrt?
   0A53 90 1B FD           3044 	mov	dptr,#_blockedsave
   0A56 E4                 3045 	clr	a
   0A57 93                 3046 	movc	a,@a+dptr
   0A58 F5 0F              3047 	mov	_blocked,a
                    0A5A   3048 	C$fb_app_rollo11.c$1140$1$1 ==.
                           3049 ;	..\fb_app_rollo11.c:1140: timer=0;			// Timer-Variable, wird alle 8 ms inkrementiert
                    0A5A   3050 	C$fb_app_rollo11.c$1141$2$2 ==.
                           3051 ;	..\fb_app_rollo11.c:1141: for (n=0;n<=15;n++){// Löschen aller zeiten
   0A5A E4                 3052 	clr	a
   0A5B F5 09              3053 	mov	_timer,a
   0A5D F5 0A              3054 	mov	(_timer + 1),a
   0A5F FF                 3055 	mov	r7,a
   0A60                    3056 00107$:
   0A60 EF                 3057 	mov	a,r7
   0A61 24 F0              3058 	add	a,#0xff - 0x0F
   0A63 40 15              3059 	jc	00110$
                    0A65   3060 	C$fb_app_rollo11.c$1142$2$2 ==.
                           3061 ;	..\fb_app_rollo11.c:1142: timerstate[n]=0;
   0A65 EF                 3062 	mov	a,r7
   0A66 24r10              3063 	add	a,#_timerstate
   0A68 F8                 3064 	mov	r0,a
   0A69 76 00              3065 	mov	@r0,#0x00
                    0A6B   3066 	C$fb_app_rollo11.c$1143$2$2 ==.
                           3067 ;	..\fb_app_rollo11.c:1143: timerbase[n]=0;
   0A6B EF                 3068 	mov	a,r7
   0A6C 24 10              3069 	add	a,#_timerbase
   0A6E F8                 3070 	mov	r0,a
   0A6F 76 00              3071 	mov	@r0,#0x00
                    0A71   3072 	C$fb_app_rollo11.c$1144$2$2 ==.
                           3073 ;	..\fb_app_rollo11.c:1144: timercnt[n]=0;
   0A71 EF                 3074 	mov	a,r7
   0A72 24r00              3075 	add	a,#_timercnt
   0A74 F8                 3076 	mov	r0,a
   0A75 76 00              3077 	mov	@r0,#0x00
                    0A77   3078 	C$fb_app_rollo11.c$1141$1$1 ==.
                           3079 ;	..\fb_app_rollo11.c:1141: for (n=0;n<=15;n++){// Löschen aller zeiten
   0A77 0F                 3080 	inc	r7
   0A78 80 E6              3081 	sjmp	00107$
   0A7A                    3082 00110$:
                    0A7A   3083 	C$fb_app_rollo11.c$1146$1$1 ==.
                           3084 ;	..\fb_app_rollo11.c:1146: for (n=0;n<=3;n++){
   0A7A 7F 00              3085 	mov	r7,#0x00
   0A7C                    3086 00111$:
   0A7C EF                 3087 	mov	a,r7
   0A7D 24 FC              3088 	add	a,#0xff - 0x03
   0A7F 40 63              3089 	jc	00114$
                    0A81   3090 	C$fb_app_rollo11.c$1147$2$3 ==.
                           3091 ;	..\fb_app_rollo11.c:1147: if(((eeprom[0xF1]>>n)&0x11)==0 ){// wenn keine Sperrfunktion zugewiesen
   0A81 90s00rF1           3092 	mov	dptr,#(_eeprom + 0x00f1)
   0A84 E4                 3093 	clr	a
   0A85 93                 3094 	movc	a,@a+dptr
   0A86 FE                 3095 	mov	r6,a
   0A87 8F F0              3096 	mov	b,r7
   0A89 05 F0              3097 	inc	b
   0A8B EE                 3098 	mov	a,r6
   0A8C 80 02              3099 	sjmp	00129$
   0A8E                    3100 00128$:
   0A8E C3                 3101 	clr	c
   0A8F 13                 3102 	rrc	a
   0A90                    3103 00129$:
   0A90 D5 F0 FB           3104 	djnz	b,00128$
   0A93 54 11              3105 	anl	a,#0x11
   0A95 60 02              3106 	jz	00131$
   0A97 80 11              3107 	sjmp	00102$
   0A99                    3108 00131$:
                    0A99   3109 	C$fb_app_rollo11.c$1148$3$4 ==.
                           3110 ;	..\fb_app_rollo11.c:1148: blocked &= ~(0x11<<n);  // dann blocked löschen, damit nach umpara
   0A99 8F F0              3111 	mov	b,r7
   0A9B 05 F0              3112 	inc	b
   0A9D 74 11              3113 	mov	a,#0x11
   0A9F 80 02              3114 	sjmp	00134$
   0AA1                    3115 00132$:
   0AA1 25 E0              3116 	add	a,acc
   0AA3                    3117 00134$:
   0AA3 D5 F0 FB           3118 	djnz	b,00132$
   0AA6 F4                 3119 	cpl	a
   0AA7 FE                 3120 	mov	r6,a
   0AA8 52 0F              3121 	anl	_blocked,a
   0AAA                    3122 00102$:
                    0AAA   3123 	C$fb_app_rollo11.c$1150$2$3 ==.
                           3124 ;	..\fb_app_rollo11.c:1150: switch(eeprom[0xD9]& 0xC0){
   0AAA 90s00rD9           3125 	mov	dptr,#(_eeprom + 0x00d9)
   0AAD E4                 3126 	clr	a
   0AAE 93                 3127 	movc	a,@a+dptr
   0AAF FE                 3128 	mov	r6,a
   0AB0 53 06 C0           3129 	anl	ar6,#0xC0
   0AB3 BE 40 02           3130 	cjne	r6,#0x40,00135$
   0AB6 80 05              3131 	sjmp	00103$
   0AB8                    3132 00135$:
                    0AB8   3133 	C$fb_app_rollo11.c$1151$3$5 ==.
                           3134 ;	..\fb_app_rollo11.c:1151: case 0x40:
   0AB8 BE 80 26           3135 	cjne	r6,#0x80,00113$
   0ABB 80 13              3136 	sjmp	00104$
   0ABD                    3137 00103$:
                    0ABD   3138 	C$fb_app_rollo11.c$1152$3$5 ==.
                           3139 ;	..\fb_app_rollo11.c:1152: object_schalten(n+12,0);
   0ABD 74 0C              3140 	mov	a,#0x0C
   0ABF 2F                 3141 	add	a,r7
   0AC0 F5 82              3142 	mov	dpl,a
   0AC2 C2 F0              3143 	clr	b[0]
   0AC4 C0 07              3144 	push	ar7
   0AC6 85 F0*00           3145 	mov	bits,b
   0AC9 12s02r8B           3146 	lcall	_object_schalten
   0ACC D0 07              3147 	pop	ar7
                    0ACE   3148 	C$fb_app_rollo11.c$1153$3$5 ==.
                           3149 ;	..\fb_app_rollo11.c:1153: break;
                    0ACE   3150 	C$fb_app_rollo11.c$1154$3$5 ==.
                           3151 ;	..\fb_app_rollo11.c:1154: case 0x80:
   0ACE 80 11              3152 	sjmp	00113$
   0AD0                    3153 00104$:
                    0AD0   3154 	C$fb_app_rollo11.c$1155$3$5 ==.
                           3155 ;	..\fb_app_rollo11.c:1155: object_schalten(n+12,1);
   0AD0 74 0C              3156 	mov	a,#0x0C
   0AD2 2F                 3157 	add	a,r7
   0AD3 F5 82              3158 	mov	dpl,a
   0AD5 D2 F0              3159 	setb	b[0]
   0AD7 C0 07              3160 	push	ar7
   0AD9 85 F0*00           3161 	mov	bits,b
   0ADC 12s02r8B           3162 	lcall	_object_schalten
   0ADF D0 07              3163 	pop	ar7
                    0AE1   3164 	C$fb_app_rollo11.c$1158$2$3 ==.
                           3165 ;	..\fb_app_rollo11.c:1158: }
   0AE1                    3166 00113$:
                    0AE1   3167 	C$fb_app_rollo11.c$1146$1$1 ==.
                           3168 ;	..\fb_app_rollo11.c:1146: for (n=0;n<=3;n++){
   0AE1 0F                 3169 	inc	r7
   0AE2 80 98              3170 	sjmp	00111$
   0AE4                    3171 00114$:
                    0AE4   3172 	C$fb_app_rollo11.c$1162$1$1 ==.
                           3173 ;	..\fb_app_rollo11.c:1162: oldportbuffer=0; 	// auf 0 setzen, da sonst kein Vollstrom aktiviert wird
   0AE4 75 0E 00           3174 	mov	_oldportbuffer,#0x00
                    0AE7   3175 	C$fb_app_rollo11.c$1163$1$1 ==.
                           3176 ;	..\fb_app_rollo11.c:1163: portchanged=1;		// Post hinterlegen damit in delaytimer nach portschalten springt
   0AE7 D2*00              3177 	setb	_portchanged
                    0AE9   3178 	C$fb_app_rollo11.c$1165$1$1 ==.
                           3179 ;	..\fb_app_rollo11.c:1165: set_entriegeln(9);	// Überwachungszeit Sicherheitsfahrt
   0AE9 75 82 09           3180 	mov	dpl,#0x09
   0AEC 12s09rA3           3181 	lcall	_set_entriegeln
                    0AEF   3182 	C$fb_app_rollo11.c$1166$1$1 ==.
                           3183 ;	..\fb_app_rollo11.c:1166: set_entriegeln(10);	// dto
   0AEF 75 82 0A           3184 	mov	dpl,#0x0A
   0AF2 12s09rA3           3185 	lcall	_set_entriegeln
                    0AF5   3186 	C$fb_app_rollo11.c$1169$1$1 ==.
                    0AF5   3187 	XG$bus_return$0$0 ==.
   0AF5 22                 3188 	ret
                           3189 ;------------------------------------------------------------
                           3190 ;Allocation info for local variables in function 'restart_app'
                           3191 ;------------------------------------------------------------
                    0AF6   3192 	G$restart_app$0$0 ==.
                    0AF6   3193 	C$fb_app_rollo11.c$1171$1$1 ==.
                           3194 ;	..\fb_app_rollo11.c:1171: void restart_app(void) 		// Alle Applikations-Parameter zurücksetzen
                           3195 ;	-----------------------------------------
                           3196 ;	 function restart_app
                           3197 ;	-----------------------------------------
   0AF6                    3198 _restart_app:
                    0AF6   3199 	C$fb_app_rollo11.c$1174$1$1 ==.
                           3200 ;	..\fb_app_rollo11.c:1174: Tval=0x00;
   0AF6 75*20 00           3201 	mov	_Tval,#0x00
                    0AF9   3202 	C$fb_app_rollo11.c$1175$1$1 ==.
                           3203 ;	..\fb_app_rollo11.c:1175: handmode=0;
   0AF9 C2*02              3204 	clr	_handmode
                    0AFB   3205 	C$fb_app_rollo11.c$1177$1$1 ==.
                           3206 ;	..\fb_app_rollo11.c:1177: P0=0;
   0AFB 75 80 00           3207 	mov	_P0,#0x00
                    0AFE   3208 	C$fb_app_rollo11.c$1178$1$1 ==.
                           3209 ;	..\fb_app_rollo11.c:1178: P0M1=0x00;		// Port 0 Modus push-pull für Ausgang
   0AFE 75 84 00           3210 	mov	_P0M1,#0x00
                    0B01   3211 	C$fb_app_rollo11.c$1183$1$1 ==.
                           3212 ;	..\fb_app_rollo11.c:1183: P0M2=0x0F;
   0B01 75 85 0F           3213 	mov	_P0M2,#0x0F
                    0B04   3214 	C$fb_app_rollo11.c$1189$1$1 ==.
                           3215 ;	..\fb_app_rollo11.c:1189: TMOD=(TMOD & 0xF0) + 2;		// Timer 0 als PWM
   0B04 74 F0              3216 	mov	a,#0xF0
   0B06 55 89              3217 	anl	a,_TMOD
   0B08 24 02              3218 	add	a,#0x02
   0B0A F5 89              3219 	mov	_TMOD,a
                    0B0C   3220 	C$fb_app_rollo11.c$1190$1$1 ==.
                           3221 ;	..\fb_app_rollo11.c:1190: TAMOD=0x01;
   0B0C 75 8F 01           3222 	mov	_TAMOD,#0x01
                    0B0F   3223 	C$fb_app_rollo11.c$1191$1$1 ==.
                           3224 ;	..\fb_app_rollo11.c:1191: TH0=DUTY;		// Pulsverhältnis PWM
   0B0F 75 8C 50           3225 	mov	_TH0,#0x50
                    0B12   3226 	C$fb_app_rollo11.c$1192$1$1 ==.
                           3227 ;	..\fb_app_rollo11.c:1192: AUXR1|=0x10;	// PWM von Timer 0 auf Pin ausgeben, gleichzeitig low-powermode ein (da <8MHz)
   0B12 43 A2 10           3228 	orl	_AUXR1,#0x10
                    0B15   3229 	C$fb_app_rollo11.c$1193$1$1 ==.
                           3230 ;	..\fb_app_rollo11.c:1193: TR0=1;			// Timer 0 starten (PWM)
   0B15 D2 8C              3231 	setb	_TCON_4
                    0B17   3232 	C$fb_app_rollo11.c$1198$1$1 ==.
                           3233 ;	..\fb_app_rollo11.c:1198: ET0=0;			// Interrupt für Timer 0 sperren
   0B17 C2 A9              3234 	clr	_IEN0_1
                    0B19   3235 	C$fb_app_rollo11.c$1199$1$1 ==.
                           3236 ;	..\fb_app_rollo11.c:1199: IT0=1;
   0B19 D2 88              3237 	setb	_TCON_0
                    0B1B   3238 	C$fb_app_rollo11.c$1200$1$1 ==.
                           3239 ;	..\fb_app_rollo11.c:1200: blocked=0x00;		// Ausgänge nicht gesperrt
                    0B1B   3240 	C$fb_app_rollo11.c$1201$1$1 ==.
                           3241 ;	..\fb_app_rollo11.c:1201: timer=0;			// Timer-Variable, wird alle 8ms inkrementiert
                    0B1B   3242 	C$fb_app_rollo11.c$1204$1$1 ==.
                           3243 ;	..\fb_app_rollo11.c:1204: delay_toggle=0;
   0B1B E4                 3244 	clr	a
   0B1C F5 0F              3245 	mov	_blocked,a
   0B1E F5 09              3246 	mov	_timer,a
   0B20 F5 0A              3247 	mov	(_timer + 1),a
   0B22 F5 09              3248 	mov	_delay_toggle,a
                    0B24   3249 	C$fb_app_rollo11.c$1206$1$1 ==.
                           3250 ;	..\fb_app_rollo11.c:1206: EA=0;						// Interrupts sperren, damit flashen nicht unterbrochen wird
   0B24 C2 AF              3251 	clr	_IEN0_7
                    0B26   3252 	C$fb_app_rollo11.c$1207$1$1 ==.
                           3253 ;	..\fb_app_rollo11.c:1207: START_WRITECYCLE
   0B26 75 E4 00           3254 	mov	_FMCON,#0x00
                    0B29   3255 	C$fb_app_rollo11.c$1208$1$1 ==.
                           3256 ;	..\fb_app_rollo11.c:1208: WRITE_BYTE(0x01,0x03,0x00)	// Herstellercode 0x0004 = Jung
   0B29 75 E7 1D           3257 	mov	_FMADRH,#0x1D
   0B2C 75 E6 03           3258 	mov	_FMADRL,#0x03
   0B2F 75 E5 00           3259 	mov	_FMDATA,#0x00
                    0B32   3260 	C$fb_app_rollo11.c$1209$1$1 ==.
                           3261 ;	..\fb_app_rollo11.c:1209: WRITE_BYTE(0x01,0x04,0x04)
   0B32 75 E7 1D           3262 	mov	_FMADRH,#0x1D
   0B35 75 E6 04           3263 	mov	_FMADRL,#0x04
   0B38 75 E5 04           3264 	mov	_FMDATA,#0x04
                    0B3B   3265 	C$fb_app_rollo11.c$1213$1$1 ==.
                           3266 ;	..\fb_app_rollo11.c:1213: WRITE_BYTE(0x01,0x0C,0x00)	// PORT A Direction Bit Setting
   0B3B 75 E7 1D           3267 	mov	_FMADRH,#0x1D
   0B3E 75 E6 0C           3268 	mov	_FMADRL,#0x0C
   0B41 75 E5 00           3269 	mov	_FMDATA,#0x00
                    0B44   3270 	C$fb_app_rollo11.c$1214$1$1 ==.
                           3271 ;	..\fb_app_rollo11.c:1214: WRITE_BYTE(0x01,0x0D,0xFF)	// Run-Status (00=stop FF=run)
   0B44 75 E7 1D           3272 	mov	_FMADRH,#0x1D
   0B47 75 E6 0D           3273 	mov	_FMADRL,#0x0D
   0B4A 75 E5 FF           3274 	mov	_FMDATA,#0xFF
                    0B4D   3275 	C$fb_app_rollo11.c$1216$1$1 ==.
                           3276 ;	..\fb_app_rollo11.c:1216: STOP_WRITECYCLE
   0B4D 75 E4 68           3277 	mov	_FMCON,#0x68
                    0B50   3278 	C$fb_app_rollo11.c$1217$1$1 ==.
                           3279 ;	..\fb_app_rollo11.c:1217: EA=1;						// Interrupts freigeben
   0B50 D2 AF              3280 	setb	_IEN0_7
                    0B52   3281 	C$fb_app_rollo11.c$1219$1$1 ==.
                           3282 ;	..\fb_app_rollo11.c:1219: RTCCON=0x60;		// RTC Flag löschen
   0B52 75 D1 60           3283 	mov	_RTCCON,#0x60
                    0B55   3284 	C$fb_app_rollo11.c$1220$1$1 ==.
                           3285 ;	..\fb_app_rollo11.c:1220: RTCH=0x01;			// reload Real Time Clock
   0B55 75 D2 01           3286 	mov	_RTCH,#0x01
                    0B58   3287 	C$fb_app_rollo11.c$1221$1$1 ==.
                           3288 ;	..\fb_app_rollo11.c:1221: RTCL=0xCD;			// 8ms
   0B58 75 D3 CD           3289 	mov	_RTCL,#0xCD
                    0B5B   3290 	C$fb_app_rollo11.c$1222$1$1 ==.
                           3291 ;	..\fb_app_rollo11.c:1222: RTCCON=0x61;
   0B5B 75 D1 61           3292 	mov	_RTCCON,#0x61
                    0B5E   3293 	C$fb_app_rollo11.c$1223$1$1 ==.
                    0B5E   3294 	XG$restart_app$0$0 ==.
   0B5E 22                 3295 	ret
                           3296 	.area CSEG    (CODE)
                           3297 	.area CONST   (CODE)
                    1BFD   3298 Ffb_app_rollo11$blockedsave$0$0 == 0x1bfd
                    1BFD   3299 _blockedsave	=	0x1bfd
                    0000   3300 G$timerflagmask$0$0 == .
   0000                    3301 _timerflagmask:
   0000 00 00              3302 	.byte #0x00,#0x00	; 0
   0002 00 00              3303 	.byte #0x00,#0x00	; 0
   0004 00 00              3304 	.byte #0x00,#0x00	; 0
   0006 08 00              3305 	.byte #0x08,#0x00	; 8
   0008 80 00              3306 	.byte #0x80,#0x00	; 128
   000A 00 08              3307 	.byte #0x00,#0x08	; 2048
                    000C   3308 G$svfaktorarray$0$0 == .
   000C                    3309 _svfaktorarray:
   000C 00                 3310 	.db #0x00	; 0
   000D 02                 3311 	.db #0x02	; 2
   000E 04                 3312 	.db #0x04	; 4
   000F 06                 3313 	.db #0x06	; 6
   0010 08                 3314 	.db #0x08	; 8
   0011 0A                 3315 	.db #0x0A	; 10
   0012 0C                 3316 	.db #0x0C	; 12
   0013 0E                 3317 	.db #0x0E	; 14
   0014 10                 3318 	.db #0x10	; 16
   0015 12                 3319 	.db #0x12	; 18
   0016 14                 3320 	.db #0x14	; 20
   0017 16                 3321 	.db #0x16	; 22
   0018 24                 3322 	.db #0x24	; 36
   0019 48                 3323 	.db #0x48	; 72	'H'
   001A 6D                 3324 	.db #0x6D	; 109	'm'
   001B DA                 3325 	.db #0xDA	; 218
                           3326 	.area XINIT   (CODE)
                           3327 	.area CABS    (ABS,CODE)
