ASxxxx Linker V02.00 + NoICE + sdld,  page 1.
Hexadecimal  [32-Bits]

Area                                    Addr        Size        Decimal Bytes (Attributes)
--------------------------------        ----        ----        ------- ----- ------------
CABS                                00000000    00000000 =           0. bytes (ABS,CON,CODE)

      Value  Global                              Global Defined In Module
      -----  --------------------------------   ------------------------
     0C:   00000000  l_CABS                          
     0C:   00000000  l_GSINIT1                       
     0C:   00000000  l_GSINIT5                       
     0C:   00000000  l_IABS                          
     0C:   00000000  l_ISEG                          
     0C:   00000000  l_OSEG                          
     0C:   00000000  l_PSEG                          
     0C:   00000000  l_REG_BANK_1                    
     0C:   00000000  l_REG_BANK_2                    
     0C:   00000000  l_REG_BANK_3                    
     0C:   00000000  l_RSEG                          
     0C:   00000000  l_RSEG0                         
     0C:   00000000  l_RSEG1                         
     0C:   00000000  l_XABS                          
     0C:   00000000  l_XINIT                         
     0C:   00000000  l_XISEG                         
     0C:   00000000  l_XSEG                          
     0C:   00000000  l__CODE                         
     0C:   00000000  s_BSEG                          
     0C:   00000000  s_CABS                          
     0C:   00000000  s_DSEG                          
     0C:   00000000  s_HOME                          
     0C:   00000000  s_IABS                          
     0C:   00000000  s_ISEG                          
     0C:   00000000  s_PSEG                          
     0C:   00000000  s_REG_BANK_0                    
     0C:   00000000  s_RSEG                          
     0C:   00000000  s_RSEG0                         
     0C:   00000000  s_RSEG1                         
     0C:   00000000  s_XABS                          
     0C:   00000000  s_XISEG                         
     0C:   00000000  s_XSEG                          
     0C:   00000001  l_BIT_BANK                      
     0C:   00000003  l_BSEG_BYTES                    
     0C:   00000003  l_GSFINAL                       
     0C:   00000003  l_GSINIT0                       
     0C:   00000006  l_GSINIT                        
     0C:   00000008  l_REG_BANK_0                    
     0C:   00000008  s_REG_BANK_1                    
     0C:   0000000A  l_GSINIT2                       
     0C:   00000010  s_REG_BANK_2                    
     0C:   00000015  l_BSEG                          
     0C:   00000018  l_CONST                         
     0C:   00000018  s_REG_BANK_3                    
     0C:   00000020  s_BSEG_BYTES                    
     0C:   00000020  s_OSEG                          
     0C:   00000020  s__CODE                         
     0C:   00000022  l_GSINIT3                       
     0C:   00000023  s_BIT_BANK                      
     0C:   0000002A  l_GSINIT4                       
ASxxxx Linker V02.00 + NoICE + sdld,  page 2.
Hexadecimal  [32-Bits]

Area                                    Addr        Size        Decimal Bytes (Attributes)
--------------------------------        ----        ----        ------- ----- ------------
CABS                                00000000    00000000 =           0. bytes (ABS,CON,CODE)

      Value  Global                              Global Defined In Module
      -----  --------------------------------   ------------------------
     0C:   00000043  l_HOME                          
     0C:   00000043  s_GSINIT0                       
     0C:   00000046  s_GSINIT1                       
     0C:   00000046  s_GSINIT2                       
     0C:   00000050  s_GSINIT3                       
     0C:   00000068  l_DSEG                          
     0C:   0000006E  s_SSEG                          
     0C:   00000072  s_GSINIT4                       
     0C:   00000092  l_SSEG                          
     0C:   0000009C  s_GSINIT                        
     0C:   0000009C  s_GSINIT5                       
     0C:   000000A2  s_GSFINAL                       
     0C:   000000A5  s_CSEG                          
     0C:   00000100  l_IRAM                          
     0C:   00001BC5  l_CSEG                          
     0C:   00001C6A  s_CONST                         
     0C:   00001C82  s_XINIT                         

ASxxxx Linker V02.00 + NoICE + sdld,  page 3.
Hexadecimal  [32-Bits]

Area                                    Addr        Size        Decimal Bytes (Attributes)
--------------------------------        ----        ----        ------- ----- ------------
.	.ABS.                             00000000    00000000 =           0. bytes (ABS,CON)

      Value  Global                              Global Defined In Module
      -----  --------------------------------   ------------------------
           00000000  .__.ABS.                           _startup
           00000000  G$RAM$0$0                          fb_counter
           00000000  _RAM                               fb_counter
           00000008  G$counter_summe$0$0                fb_app_counter
           00000008  _counter_summe                     fb_app_counter
           00000018  G$counter_moment$0$0               fb_app_counter
           00000018  _counter_moment                    fb_app_counter
           00000080  G$P0$0$0                           fb_lpc922
           00000080  G$P0_0$0$0                         fb_lpc922
           00000080  _P0                                fb_lpc922
           00000080  _P0_0                              fb_lpc922
           00000081  G$P0_1$0$0                         fb_lpc922
           00000081  G$SP$0$0                           fb_lpc922
           00000081  _P0_1                              fb_lpc922
           00000081  _SP                                fb_lpc922
           00000082  G$DPL$0$0                          fb_lpc922
           00000082  G$P0_2$0$0                         fb_lpc922
           00000082  _DPL                               fb_lpc922
           00000082  _P0_2                              fb_lpc922
           00000083  G$DPH$0$0                          fb_lpc922
           00000083  G$P0_3$0$0                         fb_lpc922
           00000083  _DPH                               fb_lpc922
           00000083  _P0_3                              fb_lpc922
           00000084  G$P0M1$0$0                         fb_lpc922
           00000084  G$P0_4$0$0                         fb_lpc922
           00000084  _P0M1                              fb_lpc922
           00000084  _P0_4                              fb_lpc922
           00000085  G$P0M2$0$0                         fb_lpc922
           00000085  G$P0_5$0$0                         fb_lpc922
           00000085  _P0M2                              fb_lpc922
           00000085  _P0_5                              fb_lpc922
           00000086  G$KBMASK$0$0                       fb_lpc922
           00000086  G$P0_6$0$0                         fb_lpc922
           00000086  _KBMASK                            fb_lpc922
           00000086  _P0_6                              fb_lpc922
           00000087  G$P0_7$0$0                         fb_lpc922
           00000087  G$PCON$0$0                         fb_lpc922
           00000087  _P0_7                              fb_lpc922
           00000087  _PCON                              fb_lpc922
           00000088  G$TCON$0$0                         fb_lpc922
           00000088  G$TCON_0$0$0                       fb_lpc922
           00000088  _TCON                              fb_lpc922
           00000088  _TCON_0                            fb_lpc922
           00000089  G$TCON_1$0$0                       fb_lpc922
           00000089  G$TMOD$0$0                         fb_lpc922
           00000089  _TCON_1                            fb_lpc922
           00000089  _TMOD                              fb_lpc922
           0000008A  G$TCON_2$0$0                       fb_lpc922
           0000008A  G$TL0$0$0                          fb_lpc922
           0000008A  _TCON_2                            fb_lpc922
ASxxxx Linker V02.00 + NoICE + sdld,  page 4.
Hexadecimal  [32-Bits]

Area                                    Addr        Size        Decimal Bytes (Attributes)
--------------------------------        ----        ----        ------- ----- ------------
.	.ABS.                             00000000    00000000 =           0. bytes (ABS,CON)

      Value  Global                              Global Defined In Module
      -----  --------------------------------   ------------------------
           0000008A  _TL0                               fb_lpc922
           0000008B  G$TCON_3$0$0                       fb_lpc922
           0000008B  G$TL1$0$0                          fb_lpc922
           0000008B  _TCON_3                            fb_lpc922
           0000008B  _TL1                               fb_lpc922
           0000008C  G$TCON_4$0$0                       fb_lpc922
           0000008C  G$TH0$0$0                          fb_lpc922
           0000008C  _TCON_4                            fb_lpc922
           0000008C  _TH0                               fb_lpc922
           0000008D  G$TCON_5$0$0                       fb_lpc922
           0000008D  G$TH1$0$0                          fb_lpc922
           0000008D  _TCON_5                            fb_lpc922
           0000008D  _TH1                               fb_lpc922
           0000008E  G$TCON_6$0$0                       fb_lpc922
           0000008E  _TCON_6                            fb_lpc922
           0000008F  G$TAMOD$0$0                        fb_lpc922
           0000008F  G$TCON_7$0$0                       fb_lpc922
           0000008F  _TAMOD                             fb_lpc922
           0000008F  _TCON_7                            fb_lpc922
           00000090  G$P1$0$0                           fb_lpc922
           00000090  G$P1_0$0$0                         fb_lpc922
           00000090  _P1                                fb_lpc922
           00000090  _P1_0                              fb_lpc922
           00000091  G$P1M1$0$0                         fb_lpc922
           00000091  G$P1_1$0$0                         fb_lpc922
           00000091  _P1M1                              fb_lpc922
           00000091  _P1_1                              fb_lpc922
           00000092  G$P1M2$0$0                         fb_lpc922
           00000092  G$P1_2$0$0                         fb_lpc922
           00000092  _P1M2                              fb_lpc922
           00000092  _P1_2                              fb_lpc922
           00000093  G$KBPATN$0$0                       fb_lpc922
           00000093  G$P1_3$0$0                         fb_lpc922
           00000093  _KBPATN                            fb_lpc922
           00000093  _P1_3                              fb_lpc922
           00000094  G$KBCON$0$0                        fb_lpc922
           00000094  G$P1_4$0$0                         fb_lpc922
           00000094  _KBCON                             fb_lpc922
           00000094  _P1_4                              fb_lpc922
           00000095  G$DIVM$0$0                         fb_lpc922
           00000095  G$P1_5$0$0                         fb_lpc922
           00000095  _DIVM                              fb_lpc922
           00000095  _P1_5                              fb_lpc922
           00000096  G$P1_6$0$0                         fb_lpc922
           00000096  G$TRIM$0$0                         fb_lpc922
           00000096  _P1_6                              fb_lpc922
           00000096  _TRIM                              fb_lpc922
           00000097  G$P1_7$0$0                         fb_lpc922
           00000097  _P1_7                              fb_lpc922
           00000098  G$SCON$0$0                         fb_lpc922
           00000098  G$SCON_0$0$0                       fb_lpc922
ASxxxx Linker V02.00 + NoICE + sdld,  page 5.
Hexadecimal  [32-Bits]

Area                                    Addr        Size        Decimal Bytes (Attributes)
--------------------------------        ----        ----        ------- ----- ------------
.	.ABS.                             00000000    00000000 =           0. bytes (ABS,CON)

      Value  Global                              Global Defined In Module
      -----  --------------------------------   ------------------------
           00000098  _SCON                              fb_lpc922
           00000098  _SCON_0                            fb_lpc922
           00000099  G$SBUF$0$0                         fb_lpc922
           00000099  G$SCON_1$0$0                       fb_lpc922
           00000099  _SBUF                              fb_lpc922
           00000099  _SCON_1                            fb_lpc922
           0000009A  G$SCON_2$0$0                       fb_lpc922
           0000009A  _SCON_2                            fb_lpc922
           0000009B  G$SCON_3$0$0                       fb_lpc922
           0000009B  _SCON_3                            fb_lpc922
           0000009C  G$SCON_4$0$0                       fb_lpc922
           0000009C  _SCON_4                            fb_lpc922
           0000009D  G$SCON_5$0$0                       fb_lpc922
           0000009D  _SCON_5                            fb_lpc922
           0000009E  G$SCON_6$0$0                       fb_lpc922
           0000009E  _SCON_6                            fb_lpc922
           0000009F  G$SCON_7$0$0                       fb_lpc922
           0000009F  _SCON_7                            fb_lpc922
           000000A0  __XPAGE                            
           000000A2  G$AUXR1$0$0                        fb_lpc922
           000000A2  _AUXR1                             fb_lpc922
           000000A7  G$WDCON$0$0                        fb_lpc922
           000000A7  _WDCON                             fb_lpc922
           000000A8  G$IEN0$0$0                         fb_lpc922
           000000A8  G$IEN0_0$0$0                       fb_lpc922
           000000A8  _IEN0                              fb_lpc922
           000000A8  _IEN0_0                            fb_lpc922
           000000A9  G$IEN0_1$0$0                       fb_lpc922
           000000A9  G$SADDR$0$0                        fb_lpc922
           000000A9  _IEN0_1                            fb_lpc922
           000000A9  _SADDR                             fb_lpc922
           000000AA  G$IEN0_2$0$0                       fb_lpc922
           000000AA  _IEN0_2                            fb_lpc922
           000000AB  G$IEN0_3$0$0                       fb_lpc922
           000000AB  _IEN0_3                            fb_lpc922
           000000AC  G$CMP1$0$0                         fb_lpc922
           000000AC  G$IEN0_4$0$0                       fb_lpc922
           000000AC  _CMP1                              fb_lpc922
           000000AC  _IEN0_4                            fb_lpc922
           000000AD  G$CMP2$0$0                         fb_lpc922
           000000AD  G$IEN0_5$0$0                       fb_lpc922
           000000AD  _CMP2                              fb_lpc922
           000000AD  _IEN0_5                            fb_lpc922
           000000AE  G$IEN0_6$0$0                       fb_lpc922
           000000AE  _IEN0_6                            fb_lpc922
           000000AF  G$IEN0_7$0$0                       fb_lpc922
           000000AF  _IEN0_7                            fb_lpc922
           000000B0  G$P3$0$0                           fb_lpc922
           000000B0  G$P3_0$0$0                         fb_lpc922
           000000B0  _P3                                fb_lpc922
           000000B0  _P3_0                              fb_lpc922
ASxxxx Linker V02.00 + NoICE + sdld,  page 6.
Hexadecimal  [32-Bits]

Area                                    Addr        Size        Decimal Bytes (Attributes)
--------------------------------        ----        ----        ------- ----- ------------
.	.ABS.                             00000000    00000000 =           0. bytes (ABS,CON)

      Value  Global                              Global Defined In Module
      -----  --------------------------------   ------------------------
           000000B1  G$P3M1$0$0                         fb_lpc922
           000000B1  G$P3_1$0$0                         fb_lpc922
           000000B1  _P3M1                              fb_lpc922
           000000B1  _P3_1                              fb_lpc922
           000000B2  G$P3M2$0$0                         fb_lpc922
           000000B2  _P3M2                              fb_lpc922
           000000B5  G$PCONA$0$0                        fb_lpc922
           000000B5  _PCONA                             fb_lpc922
           000000B7  G$IP0H$0$0                         fb_lpc922
           000000B7  _IP0H                              fb_lpc922
           000000B8  G$IP0$0$0                          fb_lpc922
           000000B8  G$IP0_0$0$0                        fb_lpc922
           000000B8  _IP0                               fb_lpc922
           000000B8  _IP0_0                             fb_lpc922
           000000B9  G$IP0_1$0$0                        fb_lpc922
           000000B9  G$SADEN$0$0                        fb_lpc922
           000000B9  _IP0_1                             fb_lpc922
           000000B9  _SADEN                             fb_lpc922
           000000BA  G$IP0_2$0$0                        fb_lpc922
           000000BA  G$SSTAT$0$0                        fb_lpc922
           000000BA  _IP0_2                             fb_lpc922
           000000BA  _SSTAT                             fb_lpc922
           000000BB  G$IP0_3$0$0                        fb_lpc922
           000000BB  _IP0_3                             fb_lpc922
           000000BC  G$IP0_4$0$0                        fb_lpc922
           000000BC  _IP0_4                             fb_lpc922
           000000BD  G$BRGCON$0$0                       fb_lpc922
           000000BD  G$IP0_5$0$0                        fb_lpc922
           000000BD  _BRGCON                            fb_lpc922
           000000BD  _IP0_5                             fb_lpc922
           000000BE  G$BRGR0$0$0                        fb_lpc922
           000000BE  G$IP0_6$0$0                        fb_lpc922
           000000BE  _BRGR0                             fb_lpc922
           000000BE  _IP0_6                             fb_lpc922
           000000BF  G$BRGR1$0$0                        fb_lpc922
           000000BF  _BRGR1                             fb_lpc922
           000000C1  G$WDL$0$0                          fb_lpc922
           000000C1  _WDL                               fb_lpc922
           000000C2  G$WFEED1$0$0                       fb_lpc922
           000000C2  _WFEED1                            fb_lpc922
           000000C3  G$WFEED2$0$0                       fb_lpc922
           000000C3  _WFEED2                            fb_lpc922
           000000D0  G$PSW$0$0                          fb_lpc922
           000000D0  G$PSW_0$0$0                        fb_lpc922
           000000D0  _PSW                               fb_lpc922
           000000D0  _PSW_0                             fb_lpc922
           000000D1  G$PSW_1$0$0                        fb_lpc922
           000000D1  G$RTCCON$0$0                       fb_lpc922
           000000D1  _PSW_1                             fb_lpc922
           000000D1  _RTCCON                            fb_lpc922
           000000D2  G$PSW_2$0$0                        fb_lpc922
ASxxxx Linker V02.00 + NoICE + sdld,  page 7.
Hexadecimal  [32-Bits]

Area                                    Addr        Size        Decimal Bytes (Attributes)
--------------------------------        ----        ----        ------- ----- ------------
.	.ABS.                             00000000    00000000 =           0. bytes (ABS,CON)

      Value  Global                              Global Defined In Module
      -----  --------------------------------   ------------------------
           000000D2  G$RTCH$0$0                         fb_lpc922
           000000D2  _PSW_2                             fb_lpc922
           000000D2  _RTCH                              fb_lpc922
           000000D3  G$PSW_3$0$0                        fb_lpc922
           000000D3  G$RTCL$0$0                         fb_lpc922
           000000D3  _PSW_3                             fb_lpc922
           000000D3  _RTCL                              fb_lpc922
           000000D4  G$PSW_4$0$0                        fb_lpc922
           000000D4  _PSW_4                             fb_lpc922
           000000D5  G$PSW_5$0$0                        fb_lpc922
           000000D5  _PSW_5                             fb_lpc922
           000000D6  G$PSW_6$0$0                        fb_lpc922
           000000D6  _PSW_6                             fb_lpc922
           000000D7  G$PSW_7$0$0                        fb_lpc922
           000000D7  _PSW_7                             fb_lpc922
           000000D8  G$I2CON$0$0                        fb_lpc922
           000000D8  G$I2CON_0$0$0                      fb_lpc922
           000000D8  _I2CON                             fb_lpc922
           000000D8  _I2CON_0                           fb_lpc922
           000000D9  G$I2STAT$0$0                       fb_lpc922
           000000D9  _I2STAT                            fb_lpc922
           000000DA  G$I2CON_2$0$0                      fb_lpc922
           000000DA  G$I2DAT$0$0                        fb_lpc922
           000000DA  _I2CON_2                           fb_lpc922
           000000DA  _I2DAT                             fb_lpc922
           000000DB  G$I2ADR$0$0                        fb_lpc922
           000000DB  G$I2CON_3$0$0                      fb_lpc922
           000000DB  _I2ADR                             fb_lpc922
           000000DB  _I2CON_3                           fb_lpc922
           000000DC  G$I2CON_4$0$0                      fb_lpc922
           000000DC  G$I2SCLL$0$0                       fb_lpc922
           000000DC  _I2CON_4                           fb_lpc922
           000000DC  _I2SCLL                            fb_lpc922
           000000DD  G$I2CON_5$0$0                      fb_lpc922
           000000DD  G$I2SCLH$0$0                       fb_lpc922
           000000DD  _I2CON_5                           fb_lpc922
           000000DD  _I2SCLH                            fb_lpc922
           000000DE  G$I2CON_6$0$0                      fb_lpc922
           000000DE  _I2CON_6                           fb_lpc922
           000000DF  G$RSTSRC$0$0                       fb_lpc922
           000000DF  _RSTSRC                            fb_lpc922
           000000E0  G$ACC$0$0                          fb_lpc922
           000000E0  _ACC                               fb_lpc922
           000000E4  G$FMCON$0$0                        fb_lpc922
           000000E4  _FMCON                             fb_lpc922
           000000E5  G$FMDATA$0$0                       fb_lpc922
           000000E5  _FMDATA                            fb_lpc922
           000000E6  G$FMADRL$0$0                       fb_lpc922
           000000E6  _FMADRL                            fb_lpc922
           000000E7  G$FMADRH$0$0                       fb_lpc922
           000000E7  _FMADRH                            fb_lpc922
ASxxxx Linker V02.00 + NoICE + sdld,  page 8.
Hexadecimal  [32-Bits]

Area                                    Addr        Size        Decimal Bytes (Attributes)
--------------------------------        ----        ----        ------- ----- ------------
.	.ABS.                             00000000    00000000 =           0. bytes (ABS,CON)

      Value  Global                              Global Defined In Module
      -----  --------------------------------   ------------------------
           000000E8  G$IEN1$0$0                         fb_lpc922
           000000E8  G$IEN1_0$0$0                       fb_lpc922
           000000E8  _IEN1                              fb_lpc922
           000000E8  _IEN1_0                            fb_lpc922
           000000E9  G$IEN1_1$0$0                       fb_lpc922
           000000E9  _IEN1_1                            fb_lpc922
           000000EA  G$IEN1_2$0$0                       fb_lpc922
           000000EA  _IEN1_2                            fb_lpc922
           000000F0  G$B$0$0                            fb_lpc922
           000000F0  _B                                 fb_lpc922
           000000F6  G$PT0AD$0$0                        fb_lpc922
           000000F6  _PT0AD                             fb_lpc922
           000000F7  G$IP1H$0$0                         fb_lpc922
           000000F7  _IP1H                              fb_lpc922
           000000F8  G$IP1$0$0                          fb_lpc922
           000000F8  G$IP1_0$0$0                        fb_lpc922
           000000F8  _IP1                               fb_lpc922
           000000F8  _IP1_0                             fb_lpc922
           000000F9  G$IP1_1$0$0                        fb_lpc922
           000000F9  _IP1_1                             fb_lpc922
           000000FA  G$IP1_2$0$0                        fb_lpc922
           000000FA  _IP1_2                             fb_lpc922
           000000FE  G$IP1_6$0$0                        fb_lpc922
           000000FE  _IP1_6                             fb_lpc922
           000001CE  G$space$0$0                        fb_counter
           000001CE  _space                             fb_counter
           00001C00  G$userram$0$0                      fb_lpc922
           00001C00  _userram                           fb_lpc922
           00001CFF  Lfb_counter.main$trimsave$1$1      fb_counter
           00001D00  G$eeprom$0$0                       fb_lpc922
           00001D00  _eeprom                            fb_lpc922
ASxxxx Linker V02.00 + NoICE + sdld,  page 9.
Hexadecimal  [32-Bits]

Area                                    Addr        Size        Decimal Bytes (Attributes)
--------------------------------        ----        ----        ------- ----- ------------
BSEG_BYTES                          00000020    00000003 =           3. bytes (REL,CON)

      Value  Global                              Global Defined In Module
      -----  --------------------------------   ------------------------
ASxxxx Linker V02.00 + NoICE + sdld,  page 10.
Hexadecimal  [32-Bits]

Area                                    Addr        Size        Decimal Bytes (Attributes)
--------------------------------        ----        ----        ------- ----- ------------
REG_BANK_0                          00000000    00000008 =           8. bytes (REL,OVR)

      Value  Global                              Global Defined In Module
      -----  --------------------------------   ------------------------
ASxxxx Linker V02.00 + NoICE + sdld,  page 11.
Hexadecimal  [32-Bits]

Area                                    Addr        Size        Decimal Bytes (Attributes)
--------------------------------        ----        ----        ------- ----- ------------
BSEG                                00000000    00000015 =          21. bytes (REL,CON,BIT)

      Value  Global                              Global Defined In Module
      -----  --------------------------------   ------------------------
     0B:   00000000  G$objval$0$0                       fb_app_counter
     0B:   00000000  _objval                            fb_app_counter
     0B:   00000001  G$jobj$0$0                         fb_app_counter
     0B:   00000001  _jobj                              fb_app_counter
     0B:   00000002  G$st_Flanke$0$0                    fb_app_counter
     0B:   00000002  _st_Flanke                         fb_app_counter
     0B:   00000003  G$counted0$0$0                     fb_app_counter
     0B:   00000003  _counted0                          fb_app_counter
     0B:   00000004  G$counted1$0$0                     fb_app_counter
     0B:   00000004  _counted1                          fb_app_counter
     0B:   00000005  G$parity_ok$0$0                    fb_lpc922
     0B:   00000005  _parity_ok                         fb_lpc922
     0B:   00000006  G$interrupted$0$0                  fb_lpc922
     0B:   00000006  _interrupted                       fb_lpc922
     0B:   00000007  G$fb_parity$0$0                    fb_lpc922
     0B:   00000007  _fb_parity                         fb_lpc922
     0B:   00000008  G$ack$0$0                          fb_lpc922
     0B:   00000008  _ack                               fb_lpc922
     0B:   00000009  G$nack$0$0                         fb_lpc922
     0B:   00000009  _nack                              fb_lpc922
     0B:   0000000A  G$its_me$0$0                       fb_lpc922
     0B:   0000000A  _its_me                            fb_lpc922
     0B:   0000000B  G$tel_arrived$0$0                  fb_lpc922
     0B:   0000000B  _tel_arrived                       fb_lpc922
     0B:   0000000C  G$tel_sent$0$0                     fb_lpc922
     0B:   0000000C  _tel_sent                          fb_lpc922
     0B:   0000000D  G$auto_ack$0$0                     fb_lpc922
     0B:   0000000D  _auto_ack                          fb_lpc922
     0B:   0000000E  G$fbtx_bit$0$0                     fb_lpc922
     0B:   0000000E  _fbtx_bit                          fb_lpc922
     0B:   0000000F  G$wait_for_ack$0$0                 fb_lpc922
     0B:   0000000F  _wait_for_ack                      fb_lpc922
     0B:   00000010  G$send_ack$0$0                     fb_lpc922
     0B:   00000010  _send_ack                          fb_lpc922
     0B:   00000011  G$send_nack$0$0                    fb_lpc922
     0B:   00000011  _send_nack                         fb_lpc922
     0B:   00000012  G$transparency$0$0                 fb_lpc922
     0B:   00000012  _transparency                      fb_lpc922
     0B:   00000013  G$connected$0$0                    fb_lpc922
     0B:   00000013  _connected                         fb_lpc922
     0B:   00000014  G$inc_pcount$0$0                   fb_lpc922
     0B:   00000014  _inc_pcount                        fb_lpc922
ASxxxx Linker V02.00 + NoICE + sdld,  page 12.
Hexadecimal  [32-Bits]

Area                                    Addr        Size        Decimal Bytes (Attributes)
--------------------------------        ----        ----        ------- ----- ------------
BIT_BANK                            00000023    00000001 =           1. bytes (REL,OVR)

      Value  Global                              Global Defined In Module
      -----  --------------------------------   ------------------------
ASxxxx Linker V02.00 + NoICE + sdld,  page 13.
Hexadecimal  [32-Bits]

Area                                    Addr        Size        Decimal Bytes (Attributes)
--------------------------------        ----        ----        ------- ----- ------------
DSEG                                00000000    00000068 =         104. bytes (REL,CON)

      Value  Global                              Global Defined In Module
      -----  --------------------------------   ------------------------
           00000024  G$portbuffer$0$0                   fb_app_counter
           00000024  _portbuffer                        fb_app_counter
           00000025  G$p0h$0$0                          fb_app_counter
           00000025  _p0h                               fb_app_counter
           00000026  G$objstate$0$0                     fb_app_counter
           00000026  _objstate                          fb_app_counter
           00000028  G$timer_base$0$0                   fb_app_counter
           00000028  _timer_base                        fb_app_counter
           00000029  G$timer_state$0$0                  fb_app_counter
           00000029  _timer_state                       fb_app_counter
           0000002A  G$timer500$0$0                     fb_app_counter
           0000002A  _timer500                          fb_app_counter
           0000002B  G$timer60$0$0                      fb_app_counter
           0000002B  _timer60                           fb_app_counter
           0000002C  G$timerhour$0$0                    fb_app_counter
           0000002C  _timerhour                         fb_app_counter
           0000002D  G$timerday$0$0                     fb_app_counter
           0000002D  _timerday                          fb_app_counter
           0000002E  G$timerflags$0$0                   fb_app_counter
           0000002E  _timerflags                        fb_app_counter
           0000002F  G$timerbase$0$0                    fb_app_counter
           0000002F  _timerbase                         fb_app_counter
           00000033  G$timercnt$0$0                     fb_app_counter
           00000033  _timercnt                          fb_app_counter
           00000037  G$para_value$0$0                   fb_app_counter
           00000037  _para_value                        fb_app_counter
           00000038  G$bitobj_z1$0$0                    fb_app_counter
           00000038  _bitobj_z1                         fb_app_counter
           0000003A  G$bitobj_z2$0$0                    fb_app_counter
           0000003A  _bitobj_z2                         fb_app_counter
           0000003C  G$precounter0$0$0                  fb_app_counter
           0000003C  _precounter0                       fb_app_counter
           0000003D  G$precounter1$0$0                  fb_app_counter
           0000003D  _precounter1                       fb_app_counter
           0000003E  G$conh$0$0                         fb_lpc922
           0000003E  _conh                              fb_lpc922
           0000003F  G$conl$0$0                         fb_lpc922
           0000003F  _conl                              fb_lpc922
           00000040  G$pcount$0$0                       fb_lpc922
           00000040  _pcount                            fb_lpc922
           00000041  G$mem_length$0$0                   fb_lpc922
           00000041  _mem_length                        fb_lpc922
           00000042  G$mem_adrh$0$0                     fb_lpc922
           00000042  _mem_adrh                          fb_lpc922
           00000043  G$mem_adrl$0$0                     fb_lpc922
           00000043  _mem_adrl                          fb_lpc922
           00000044  G$senders_pcount$0$0               fb_lpc922
           00000044  _senders_pcount                    fb_lpc922
           00000045  G$telegramm$0$0                    fb_lpc922
           00000045  _telegramm                         fb_lpc922
ASxxxx Linker V02.00 + NoICE + sdld,  page 14.
Hexadecimal  [32-Bits]

Area                                    Addr        Size        Decimal Bytes (Attributes)
--------------------------------        ----        ----        ------- ----- ------------
DSEG                                00000000    00000068 =         104. bytes (REL,CON)

      Value  Global                              Global Defined In Module
      -----  --------------------------------   ------------------------
           0000005C  G$tx_buffer$0$0                    fb_lpc922
           0000005C  _tx_buffer                         fb_lpc922
           00000064  G$telpos$0$0                       fb_lpc922
           00000064  _telpos                            fb_lpc922
           00000065  G$cs$0$0                           fb_lpc922
           00000065  _cs                                fb_lpc922
           00000066  G$fbrx_byte$0$0                    fb_lpc922
           00000066  _fbrx_byte                         fb_lpc922
           00000067  G$fb_pattern$0$0                   fb_lpc922
           00000067  _fb_pattern                        fb_lpc922
           00000068  G$fb_state$0$0                     fb_lpc922
           00000068  _fb_state                          fb_lpc922
           00000069  G$repeat_count$0$0                 fb_lpc922
           00000069  _repeat_count                      fb_lpc922
           0000006A  G$tx_nextwrite$0$0                 fb_lpc922
           0000006A  _tx_nextwrite                      fb_lpc922
           0000006B  G$tx_nextsend$0$0                  fb_lpc922
           0000006B  _tx_nextsend                       fb_lpc922
           0000006C  G$status60$0$0                     fb_lpc922
           0000006C  _status60                          fb_lpc922
           0000006D  _bp                                _bp

ASxxxx Linker V02.00 + NoICE + sdld,  page 15.
Hexadecimal  [32-Bits]

Area                                    Addr        Size        Decimal Bytes (Attributes)
--------------------------------        ----        ----        ------- ----- ------------
SSEG                                0000006E    00000092 =         146. bytes (REL,OVR)

      Value  Global                              Global Defined In Module
      -----  --------------------------------   ------------------------
           0000006E  __start__stack                     fb_counter

ASxxxx Linker V02.00 + NoICE + sdld,  page 16.
Hexadecimal  [32-Bits]

Area                                    Addr        Size        Decimal Bytes (Attributes)
--------------------------------        ----        ----        ------- ----- ------------
HOME                                00000000    00000043 =          67. bytes (REL,CON,CODE)

      Value  Global                              Global Defined In Module
      -----  --------------------------------   ------------------------
     0C:   00000000  A$fb_counter$520                   fb_counter
     0C:   00000003  A$fb_counter$521                   fb_counter
     0C:   0000000B  A$fb_counter$523                   fb_counter
     0C:   00000013  A$fb_counter$525                   fb_counter
     0C:   0000001B  A$fb_counter$527                   fb_counter
     0C:   00000023  A$fb_counter$529                   fb_counter
     0C:   0000002B  A$fb_counter$531                   fb_counter
     0C:   00000033  A$fb_counter$533                   fb_counter
     0C:   0000003B  A$fb_counter$535                   fb_counter
     0C:   0000003E  A$fb_counter$557                   fb_counter
     0C:   0000003E  __sdcc_program_startup             fb_counter
     0C:   00000041  A$fb_counter$559                   fb_counter
ASxxxx Linker V02.00 + NoICE + sdld,  page 17.
Hexadecimal  [32-Bits]

Area                                    Addr        Size        Decimal Bytes (Attributes)
--------------------------------        ----        ----        ------- ----- ------------
GSINIT0                             00000043    00000003 =           3. bytes (REL,CON,CODE)

      Value  Global                              Global Defined In Module
      -----  --------------------------------   ------------------------
     0C:   00000043  __sdcc_gsinit_startup              

ASxxxx Linker V02.00 + NoICE + sdld,  page 18.
Hexadecimal  [32-Bits]

Area                                    Addr        Size        Decimal Bytes (Attributes)
--------------------------------        ----        ----        ------- ----- ------------
GSINIT2                             00000046    0000000A =          10. bytes (REL,CON,CODE)

      Value  Global                              Global Defined In Module
      -----  --------------------------------   ------------------------
ASxxxx Linker V02.00 + NoICE + sdld,  page 19.
Hexadecimal  [32-Bits]

Area                                    Addr        Size        Decimal Bytes (Attributes)
--------------------------------        ----        ----        ------- ----- ------------
GSINIT3                             00000050    00000022 =          34. bytes (REL,CON,CODE)

      Value  Global                              Global Defined In Module
      -----  --------------------------------   ------------------------
     0C:   00000050  __mcs51_genXINIT                   

ASxxxx Linker V02.00 + NoICE + sdld,  page 20.
Hexadecimal  [32-Bits]

Area                                    Addr        Size        Decimal Bytes (Attributes)
--------------------------------        ----        ----        ------- ----- ------------
GSINIT4                             00000072    0000002A =          42. bytes (REL,CON,CODE)

      Value  Global                              Global Defined In Module
      -----  --------------------------------   ------------------------
     0C:   00000072  __mcs51_genRAMCLEAR                
     0C:   00000078  __mcs51_genXRAMCLEAR               

ASxxxx Linker V02.00 + NoICE + sdld,  page 21.
Hexadecimal  [32-Bits]

Area                                    Addr        Size        Decimal Bytes (Attributes)
--------------------------------        ----        ----        ------- ----- ------------
GSINIT                              0000009C    00000006 =           6. bytes (REL,CON,CODE)

      Value  Global                              Global Defined In Module
      -----  --------------------------------   ------------------------
     0C:   0000009C  A$fb_app_counter$617               fb_app_counter
     0C:   0000009E  A$fb_app_counter$621               fb_app_counter
     0C:   0000009E  C$fb_app_counter.c$49$1$1          fb_app_counter
     0C:   000000A0  A$fb_app_counter$625               fb_app_counter
     0C:   000000A0  C$fb_app_counter.c$51$1$1          fb_app_counter

ASxxxx Linker V02.00 + NoICE + sdld,  page 22.
Hexadecimal  [32-Bits]

Area                                    Addr        Size        Decimal Bytes (Attributes)
--------------------------------        ----        ----        ------- ----- ------------
GSFINAL                             000000A2    00000003 =           3. bytes (REL,CON,CODE)

      Value  Global                              Global Defined In Module
      -----  --------------------------------   ------------------------
     0C:   000000A2  A$fb_counter$550                   fb_counter

ASxxxx Linker V02.00 + NoICE + sdld,  page 23.
Hexadecimal  [32-Bits]

Area                                    Addr        Size        Decimal Bytes (Attributes)
--------------------------------        ----        ----        ------- ----- ------------
CSEG                                000000A5    00001BC5 =        7109. bytes (REL,CON,CODE)

      Value  Global                              Global Defined In Module
      -----  --------------------------------   ------------------------
     0C:   000000A5  A$fb_counter$591                   fb_counter
     0C:   000000A5  C$fb_counter.c$34$0$0              fb_counter
     0C:   000000A5  G$main$0$0                         fb_counter
     0C:   000000A5  _main                              fb_counter
     0C:   000000A7  A$fb_counter$592                   fb_counter
     0C:   000000AA  A$fb_counter$593                   fb_counter
     0C:   000000AC  A$fb_counter$596                   fb_counter
     0C:   000000AC  C$fb_counter.c$36$1$0              fb_counter
     0C:   000000AE  A$fb_counter$599                   fb_counter
     0C:   000000AE  C$fb_counter.c$47$1$0              fb_counter
     0C:   000000B0  A$fb_counter$602                   fb_counter
     0C:   000000B0  C$fb_counter.c$48$1$1              fb_counter
     0C:   000000B2  A$fb_counter$603                   fb_counter
     0C:   000000B3  A$fb_counter$604                   fb_counter
     0C:   000000B5  A$fb_counter$605                   fb_counter
     0C:   000000B6  A$fb_counter$606                   fb_counter
     0C:   000000B8  A$fb_counter$607                   fb_counter
     0C:   000000BA  A$fb_counter$610                   fb_counter
     0C:   000000BA  C$fb_counter.c$49$1$1              fb_counter
     0C:   000000BC  A$fb_counter$613                   fb_counter
     0C:   000000BC  C$fb_counter.c$50$1$1              fb_counter
     0C:   000000BF  A$fb_counter$614                   fb_counter
     0C:   000000C2  A$fb_counter$615                   fb_counter
     0C:   000000C4  A$fb_counter$616                   fb_counter
     0C:   000000C5  A$fb_counter$617                   fb_counter
     0C:   000000C7  A$fb_counter$618                   fb_counter
     0C:   000000C9  A$fb_counter$622                   fb_counter
     0C:   000000C9  C$fb_counter.c$51$1$1              fb_counter
     0C:   000000CC  A$fb_counter$623                   fb_counter
     0C:   000000CD  A$fb_counter$624                   fb_counter
     0C:   000000CE  A$fb_counter$625                   fb_counter
     0C:   000000CF  A$fb_counter$626                   fb_counter
     0C:   000000D1  A$fb_counter$627                   fb_counter
     0C:   000000D2  A$fb_counter$628                   fb_counter
     0C:   000000D4  A$fb_counter$632                   fb_counter
     0C:   000000D4  C$fb_counter.c$52$1$1              fb_counter
     0C:   000000D7  A$fb_counter$633                   fb_counter
     0C:   000000D8  A$fb_counter$634                   fb_counter
     0C:   000000D9  A$fb_counter$635                   fb_counter
     0C:   000000DB  A$fb_counter$636                   fb_counter
     0C:   000000DC  A$fb_counter$637                   fb_counter
     0C:   000000DD  A$fb_counter$638                   fb_counter
     0C:   000000DF  A$fb_counter$641                   fb_counter
     0C:   000000DF  C$fb_counter.c$53$1$1              fb_counter
     0C:   000000E2  A$fb_counter$644                   fb_counter
     0C:   000000E2  C$fb_counter.c$55$1$1              fb_counter
     0C:   000000E4  A$fb_counter$645                   fb_counter
     0C:   000000E6  A$fb_counter$646                   fb_counter
     0C:   000000E9  A$fb_counter$647                   fb_counter
     0C:   000000EB  A$fb_counter$650                   fb_counter
ASxxxx Linker V02.00 + NoICE + sdld,  page 24.
Hexadecimal  [32-Bits]

Area                                    Addr        Size        Decimal Bytes (Attributes)
--------------------------------        ----        ----        ------- ----- ------------
CSEG                                000000A5    00001BC5 =        7109. bytes (REL,CON,CODE)

      Value  Global                              Global Defined In Module
      -----  --------------------------------   ------------------------
     0C:   000000EB  C$fb_counter.c$58$1$1              fb_counter
     0C:   000000EE  A$fb_counter$653                   fb_counter
     0C:   000000EE  C$fb_counter.c$59$1$1              fb_counter
     0C:   000000F1  A$fb_counter$656                   fb_counter
     0C:   000000F1  C$fb_counter.c$60$1$1              fb_counter
     0C:   000000F4  A$fb_counter$659                   fb_counter
     0C:   000000F4  C$fb_counter.c$61$1$1              fb_counter
     0C:   000000F7  A$fb_counter$662                   fb_counter
     0C:   000000F7  C$fb_counter.c$62$1$1              fb_counter
     0C:   000000FA  A$fb_counter$665                   fb_counter
     0C:   000000FA  C$fb_counter.c$63$1$1              fb_counter
     0C:   000000FD  A$fb_counter$668                   fb_counter
     0C:   000000FD  C$fb_counter.c$64$1$1              fb_counter
     0C:   00000100  A$fb_counter$671                   fb_counter
     0C:   00000100  C$fb_counter.c$65$1$1              fb_counter
     0C:   00000103  A$fb_counter$674                   fb_counter
     0C:   00000103  C$fb_counter.c$66$1$1              fb_counter
     0C:   00000106  A$fb_counter$677                   fb_counter
     0C:   00000106  C$fb_counter.c$67$1$1              fb_counter
     0C:   00000109  A$fb_counter$680                   fb_counter
     0C:   00000109  C$fb_counter.c$73$1$1              fb_counter
     0C:   0000010B  A$fb_counter$681                   fb_counter
     0C:   0000010E  A$fb_counter$682                   fb_counter
     0C:   00000110  A$fb_counter$685                   fb_counter
     0C:   00000110  C$fb_counter.c$74$1$1              fb_counter
     0C:   00000112  A$fb_counter$686                   fb_counter
     0C:   00000115  A$fb_counter$687                   fb_counter
     0C:   00000117  A$fb_counter$688                   fb_counter
     0C:   00000119  A$fb_counter$691                   fb_counter
     0C:   00000119  C$fb_counter.c$77$1$1              fb_counter
     0C:   0000011C  A$fb_counter$694                   fb_counter
     0C:   0000011C  C$fb_counter.c$78$1$1              fb_counter
     0C:   0000011F  A$fb_counter$697                   fb_counter
     0C:   0000011F  C$fb_counter.c$83$1$1              fb_counter
     0C:   00000122  A$fb_counter$700                   fb_counter
     0C:   00000122  C$fb_counter.c$85$1$1              fb_counter
     0C:   00000124  A$fb_counter$702                   fb_counter
     0C:   00000127  A$fb_counter$704                   fb_counter
     0C:   00000129  A$fb_counter$707                   fb_counter
     0C:   00000129  C$fb_counter.c$86$3$3              fb_counter
     0C:   0000012B  A$fb_counter$710                   fb_counter
     0C:   0000012B  C$fb_counter.c$87$3$3              fb_counter
     0C:   0000012E  A$fb_counter$711                   fb_counter
     0C:   0000012F  A$fb_counter$712                   fb_counter
     0C:   00000130  A$fb_counter$713                   fb_counter
     0C:   00000132  A$fb_counter$716                   fb_counter
     0C:   00000132  C$fb_counter.c$88$3$3              fb_counter
     0C:   00000135  A$fb_counter$717                   fb_counter
     0C:   00000136  A$fb_counter$718                   fb_counter
     0C:   00000137  A$fb_counter$719                   fb_counter
     0C:   00000139  A$fb_counter$722                   fb_counter
ASxxxx Linker V02.00 + NoICE + sdld,  page 25.
Hexadecimal  [32-Bits]

Area                                    Addr        Size        Decimal Bytes (Attributes)
--------------------------------        ----        ----        ------- ----- ------------
CSEG                                000000A5    00001BC5 =        7109. bytes (REL,CON,CODE)

      Value  Global                              Global Defined In Module
      -----  --------------------------------   ------------------------
     0C:   00000139  C$fb_counter.c$89$3$3              fb_counter
     0C:   0000013B  A$fb_counter$725                   fb_counter
     0C:   0000013B  C$fb_counter.c$90$3$3              fb_counter
     0C:   0000013D  A$fb_counter$729                   fb_counter
     0C:   0000013D  C$fb_counter.c$91$3$3              fb_counter
     0C:   00000140  A$fb_counter$732                   fb_counter
     0C:   00000140  C$fb_counter.c$85$2$2              fb_counter
     0C:   00000141  A$fb_counter$733                   fb_counter
     0C:   00000143  A$fb_counter$737                   fb_counter
     0C:   00000143  C$fb_counter.c$97$1$1              fb_counter
     0C:   00000146  A$fb_counter$738                   fb_counter
     0C:   00000148  A$fb_counter$739                   fb_counter
     0C:   0000014A  A$fb_counter$740                   fb_counter
     0C:   0000014D  A$fb_counter$741                   fb_counter
     0C:   0000014F  A$fb_counter$742                   fb_counter
     0C:   00000151  A$fb_counter$746                   fb_counter
     0C:   00000151  C$fb_counter.c$99$1$1              fb_counter
     0C:   00000153  A$fb_counter$752                   fb_counter
     0C:   00000153  C$fb_counter.c$100$1$1             fb_counter
     0C:   00000153  C$fb_counter.c$109$2$4             fb_counter
     0C:   00000156  A$fb_counter$753                   fb_counter
     0C:   00000157  A$fb_counter$754                   fb_counter
     0C:   00000158  A$fb_counter$755                   fb_counter
     0C:   00000159  A$fb_counter$756                   fb_counter
     0C:   0000015C  A$fb_counter$757                   fb_counter
     0C:   0000015E  A$fb_counter$759                   fb_counter
     0C:   00000161  A$fb_counter$761                   fb_counter
     0C:   00000164  A$fb_counter$762                   fb_counter
     0C:   00000167  A$fb_counter$764                   fb_counter
     0C:   00000169  A$fb_counter$765                   fb_counter
     0C:   0000016C  A$fb_counter$766                   fb_counter
     0C:   0000016F  A$fb_counter$770                   fb_counter
     0C:   0000016F  C$fb_counter.c$110$3$5             fb_counter
     0C:   00000171  A$fb_counter$773                   fb_counter
     0C:   00000171  C$fb_counter.c$112$3$5             fb_counter
     0C:   00000174  A$fb_counter$776                   fb_counter
     0C:   00000174  C$fb_counter.c$116$3$5             fb_counter
     0C:   00000176  A$fb_counter$777                   fb_counter
     0C:   00000179  A$fb_counter$778                   fb_counter
     0C:   0000017B  A$fb_counter$782                   fb_counter
     0C:   0000017B  C$fb_counter.c$118$5$7             fb_counter
     0C:   0000017D  A$fb_counter$784                   fb_counter
     0C:   00000180  A$fb_counter$786                   fb_counter
     0C:   00000182  A$fb_counter$789                   fb_counter
     0C:   00000182  C$fb_counter.c$120$5$7             fb_counter
     0C:   00000184  A$fb_counter$790                   fb_counter
     0C:   00000186  A$fb_counter$791                   fb_counter
     0C:   00000187  A$fb_counter$792                   fb_counter
     0C:   00000188  A$fb_counter$793                   fb_counter
     0C:   0000018B  A$fb_counter$794                   fb_counter
     0C:   0000018C  A$fb_counter$795                   fb_counter
ASxxxx Linker V02.00 + NoICE + sdld,  page 26.
Hexadecimal  [32-Bits]

Area                                    Addr        Size        Decimal Bytes (Attributes)
--------------------------------        ----        ----        ------- ----- ------------
CSEG                                000000A5    00001BC5 =        7109. bytes (REL,CON,CODE)

      Value  Global                              Global Defined In Module
      -----  --------------------------------   ------------------------
     0C:   0000018D  A$fb_counter$796                   fb_counter
     0C:   0000018E  A$fb_counter$797                   fb_counter
     0C:   00000190  A$fb_counter$800                   fb_counter
     0C:   00000190  C$fb_counter.c$122$6$8             fb_counter
     0C:   00000192  A$fb_counter$801                   fb_counter
     0C:   00000194  A$fb_counter$802                   fb_counter
     0C:   00000196  A$fb_counter$803                   fb_counter
     0C:   00000198  A$fb_counter$804                   fb_counter
     0C:   0000019B  A$fb_counter$805                   fb_counter
     0C:   0000019D  A$fb_counter$806                   fb_counter
     0C:   0000019F  A$fb_counter$807                   fb_counter
     0C:   000001A1  A$fb_counter$811                   fb_counter
     0C:   000001A1  C$fb_counter.c$118$4$6             fb_counter
     0C:   000001A2  A$fb_counter$812                   fb_counter
     0C:   000001A3  A$fb_counter$813                   fb_counter
     0C:   000001A5  A$fb_counter$817                   fb_counter
     0C:   000001A5  C$fb_counter.c$125$4$6             fb_counter
     0C:   000001A8  A$fb_counter$822                   fb_counter
     0C:   000001A8  C$fb_counter.c$130$1$1             fb_counter
     0C:   000001AA  A$fb_counter$823                   fb_counter
     0C:   000001AC  A$fb_counter$824                   fb_counter
     0C:   000001AF  A$fb_counter$826                   fb_counter
     0C:   000001B1  A$fb_counter$827                   fb_counter
     0C:   000001B3  A$fb_counter$828                   fb_counter
     0C:   000001B5  A$fb_counter$829                   fb_counter
     0C:   000001B8  A$fb_counter$833                   fb_counter
     0C:   000001B8  C$fb_counter.c$131$4$9             fb_counter
     0C:   000001BA  A$fb_counter$836                   fb_counter
     0C:   000001BA  C$fb_counter.c$132$4$9             fb_counter
     0C:   000001BD  A$fb_counter$837                   fb_counter
     0C:   000001BF  A$fb_counter$838                   fb_counter
     0C:   000001C1  A$fb_counter$839                   fb_counter
     0C:   000001C3  A$fb_counter$840                   fb_counter
     0C:   000001C6  A$fb_counter$841                   fb_counter
     0C:   000001C8  A$fb_counter$842                   fb_counter
     0C:   000001CA  A$fb_counter$843                   fb_counter
     0C:   000001CC  A$fb_counter$844                   fb_counter
     0C:   000001CD  A$fb_counter$845                   fb_counter
     0C:   000001CF  A$fb_counter$846                   fb_counter
     0C:   000001D1  A$fb_counter$847                   fb_counter
     0C:   000001D3  A$fb_counter$848                   fb_counter
     0C:   000001D4  A$fb_counter$849                   fb_counter
     0C:   000001D5  A$fb_counter$850                   fb_counter
     0C:   000001D6  A$fb_counter$851                   fb_counter
     0C:   000001D7  A$fb_counter$854                   fb_counter
     0C:   000001D7  C$fb_counter.c$133$5$10            fb_counter
     0C:   000001D9  A$fb_counter$855                   fb_counter
     0C:   000001DB  A$fb_counter$856                   fb_counter
     0C:   000001DC  A$fb_counter$857                   fb_counter
     0C:   000001DD  A$fb_counter$858                   fb_counter
     0C:   000001DF  A$fb_counter$859                   fb_counter
ASxxxx Linker V02.00 + NoICE + sdld,  page 27.
Hexadecimal  [32-Bits]

Area                                    Addr        Size        Decimal Bytes (Attributes)
--------------------------------        ----        ----        ------- ----- ------------
CSEG                                000000A5    00001BC5 =        7109. bytes (REL,CON,CODE)

      Value  Global                              Global Defined In Module
      -----  --------------------------------   ------------------------
     0C:   000001E0  A$fb_counter$860                   fb_counter
     0C:   000001E1  A$fb_counter$861                   fb_counter
     0C:   000001E3  A$fb_counter$862                   fb_counter
     0C:   000001E4  A$fb_counter$863                   fb_counter
     0C:   000001E6  A$fb_counter$864                   fb_counter
     0C:   000001E8  A$fb_counter$867                   fb_counter
     0C:   000001E8  C$fb_counter.c$134$5$10            fb_counter
     0C:   000001EA  A$fb_counter$868                   fb_counter
     0C:   000001EB  A$fb_counter$869                   fb_counter
     0C:   000001EC  A$fb_counter$870                   fb_counter
     0C:   000001ED  A$fb_counter$871                   fb_counter
     0C:   000001EE  A$fb_counter$872                   fb_counter
     0C:   000001EF  A$fb_counter$873                   fb_counter
     0C:   000001F1  A$fb_counter$874                   fb_counter
     0C:   000001F2  A$fb_counter$875                   fb_counter
     0C:   000001F3  A$fb_counter$876                   fb_counter
     0C:   000001F5  A$fb_counter$877                   fb_counter
     0C:   000001F6  A$fb_counter$878                   fb_counter
     0C:   000001F7  A$fb_counter$879                   fb_counter
     0C:   000001F9  A$fb_counter$880                   fb_counter
     0C:   000001FA  A$fb_counter$881                   fb_counter
     0C:   000001FB  A$fb_counter$882                   fb_counter
     0C:   000001FD  A$fb_counter$883                   fb_counter
     0C:   000001FE  A$fb_counter$884                   fb_counter
     0C:   00000200  A$fb_counter$885                   fb_counter
     0C:   00000202  A$fb_counter$886                   fb_counter
     0C:   00000204  A$fb_counter$887                   fb_counter
     0C:   00000206  A$fb_counter$888                   fb_counter
     0C:   00000208  A$fb_counter$892                   fb_counter
     0C:   00000208  C$fb_counter.c$138$5$11            fb_counter
     0C:   0000020A  A$fb_counter$893                   fb_counter
     0C:   0000020C  A$fb_counter$894                   fb_counter
     0C:   0000020D  A$fb_counter$895                   fb_counter
     0C:   0000020F  A$fb_counter$896                   fb_counter
     0C:   00000210  A$fb_counter$897                   fb_counter
     0C:   00000211  A$fb_counter$898                   fb_counter
     0C:   00000213  A$fb_counter$899                   fb_counter
     0C:   00000214  A$fb_counter$900                   fb_counter
     0C:   00000216  A$fb_counter$901                   fb_counter
     0C:   00000218  A$fb_counter$904                   fb_counter
     0C:   00000218  C$fb_counter.c$139$5$11            fb_counter
     0C:   0000021A  A$fb_counter$905                   fb_counter
     0C:   0000021B  A$fb_counter$906                   fb_counter
     0C:   0000021C  A$fb_counter$907                   fb_counter
     0C:   0000021D  A$fb_counter$908                   fb_counter
     0C:   0000021E  A$fb_counter$909                   fb_counter
     0C:   0000021F  A$fb_counter$910                   fb_counter
     0C:   00000221  A$fb_counter$911                   fb_counter
     0C:   00000222  A$fb_counter$912                   fb_counter
     0C:   00000223  A$fb_counter$913                   fb_counter
     0C:   00000225  A$fb_counter$914                   fb_counter
ASxxxx Linker V02.00 + NoICE + sdld,  page 28.
Hexadecimal  [32-Bits]

Area                                    Addr        Size        Decimal Bytes (Attributes)
--------------------------------        ----        ----        ------- ----- ------------
CSEG                                000000A5    00001BC5 =        7109. bytes (REL,CON,CODE)

      Value  Global                              Global Defined In Module
      -----  --------------------------------   ------------------------
     0C:   00000226  A$fb_counter$915                   fb_counter
     0C:   00000227  A$fb_counter$916                   fb_counter
     0C:   00000229  A$fb_counter$917                   fb_counter
     0C:   0000022A  A$fb_counter$918                   fb_counter
     0C:   0000022B  A$fb_counter$919                   fb_counter
     0C:   0000022D  A$fb_counter$920                   fb_counter
     0C:   0000022E  A$fb_counter$921                   fb_counter
     0C:   00000230  A$fb_counter$922                   fb_counter
     0C:   00000232  A$fb_counter$923                   fb_counter
     0C:   00000234  A$fb_counter$924                   fb_counter
     0C:   00000236  A$fb_counter$928                   fb_counter
     0C:   00000236  C$fb_counter.c$141$4$9             fb_counter
     0C:   00000238  A$fb_counter$929                   fb_counter
     0C:   00000239  A$fb_counter$930                   fb_counter
     0C:   0000023A  A$fb_counter$931                   fb_counter
     0C:   0000023C  A$fb_counter$932                   fb_counter
     0C:   0000023F  A$fb_counter$937                   fb_counter
     0C:   0000023F  C$fb_counter.c$143$1$1             fb_counter
     0C:   00000241  A$fb_counter$938                   fb_counter
     0C:   00000243  A$fb_counter$939                   fb_counter
     0C:   00000246  A$fb_counter$941                   fb_counter
     0C:   00000248  A$fb_counter$942                   fb_counter
     0C:   0000024A  A$fb_counter$943                   fb_counter
     0C:   0000024C  A$fb_counter$944                   fb_counter
     0C:   0000024F  A$fb_counter$948                   fb_counter
     0C:   0000024F  C$fb_counter.c$144$4$12            fb_counter
     0C:   00000251  A$fb_counter$951                   fb_counter
     0C:   00000251  C$fb_counter.c$145$4$12            fb_counter
     0C:   00000254  A$fb_counter$952                   fb_counter
     0C:   00000256  A$fb_counter$953                   fb_counter
     0C:   00000258  A$fb_counter$954                   fb_counter
     0C:   0000025A  A$fb_counter$955                   fb_counter
     0C:   0000025D  A$fb_counter$956                   fb_counter
     0C:   0000025F  A$fb_counter$957                   fb_counter
     0C:   00000261  A$fb_counter$958                   fb_counter
     0C:   00000263  A$fb_counter$959                   fb_counter
     0C:   00000264  A$fb_counter$960                   fb_counter
     0C:   00000266  A$fb_counter$961                   fb_counter
     0C:   00000268  A$fb_counter$962                   fb_counter
     0C:   0000026A  A$fb_counter$963                   fb_counter
     0C:   0000026B  A$fb_counter$964                   fb_counter
     0C:   0000026C  A$fb_counter$965                   fb_counter
     0C:   0000026D  A$fb_counter$966                   fb_counter
     0C:   0000026E  A$fb_counter$969                   fb_counter
     0C:   0000026E  C$fb_counter.c$146$5$13            fb_counter
     0C:   00000270  A$fb_counter$970                   fb_counter
     0C:   00000272  A$fb_counter$971                   fb_counter
     0C:   00000273  A$fb_counter$972                   fb_counter
     0C:   00000274  A$fb_counter$973                   fb_counter
     0C:   00000276  A$fb_counter$974                   fb_counter
     0C:   00000277  A$fb_counter$975                   fb_counter
ASxxxx Linker V02.00 + NoICE + sdld,  page 29.
Hexadecimal  [32-Bits]

Area                                    Addr        Size        Decimal Bytes (Attributes)
--------------------------------        ----        ----        ------- ----- ------------
CSEG                                000000A5    00001BC5 =        7109. bytes (REL,CON,CODE)

      Value  Global                              Global Defined In Module
      -----  --------------------------------   ------------------------
     0C:   00000278  A$fb_counter$976                   fb_counter
     0C:   0000027A  A$fb_counter$977                   fb_counter
     0C:   0000027B  A$fb_counter$978                   fb_counter
     0C:   0000027D  A$fb_counter$979                   fb_counter
     0C:   0000027F  A$fb_counter$982                   fb_counter
     0C:   0000027F  C$fb_counter.c$147$5$13            fb_counter
     0C:   00000281  A$fb_counter$983                   fb_counter
     0C:   00000282  A$fb_counter$984                   fb_counter
     0C:   00000283  A$fb_counter$985                   fb_counter
     0C:   00000284  A$fb_counter$986                   fb_counter
     0C:   00000285  A$fb_counter$987                   fb_counter
     0C:   00000286  A$fb_counter$988                   fb_counter
     0C:   00000288  A$fb_counter$989                   fb_counter
     0C:   00000289  A$fb_counter$990                   fb_counter
     0C:   0000028A  A$fb_counter$991                   fb_counter
     0C:   0000028C  A$fb_counter$992                   fb_counter
     0C:   0000028D  A$fb_counter$993                   fb_counter
     0C:   0000028E  A$fb_counter$994                   fb_counter
     0C:   00000290  A$fb_counter$995                   fb_counter
     0C:   00000291  A$fb_counter$996                   fb_counter
     0C:   00000292  A$fb_counter$997                   fb_counter
     0C:   00000294  A$fb_counter$998                   fb_counter
     0C:   00000295  A$fb_counter$999                   fb_counter
     0C:   00000297  A$fb_counter$1000                  fb_counter
     0C:   00000299  A$fb_counter$1001                  fb_counter
     0C:   0000029B  A$fb_counter$1002                  fb_counter
     0C:   0000029D  A$fb_counter$1003                  fb_counter
     0C:   0000029F  A$fb_counter$1007                  fb_counter
     0C:   0000029F  C$fb_counter.c$150$5$14            fb_counter
     0C:   000002A1  A$fb_counter$1008                  fb_counter
     0C:   000002A3  A$fb_counter$1009                  fb_counter
     0C:   000002A4  A$fb_counter$1010                  fb_counter
     0C:   000002A6  A$fb_counter$1011                  fb_counter
     0C:   000002A7  A$fb_counter$1012                  fb_counter
     0C:   000002A8  A$fb_counter$1013                  fb_counter
     0C:   000002AA  A$fb_counter$1014                  fb_counter
     0C:   000002AB  A$fb_counter$1015                  fb_counter
     0C:   000002AD  A$fb_counter$1016                  fb_counter
     0C:   000002AF  A$fb_counter$1019                  fb_counter
     0C:   000002AF  C$fb_counter.c$151$5$14            fb_counter
     0C:   000002B1  A$fb_counter$1020                  fb_counter
     0C:   000002B2  A$fb_counter$1021                  fb_counter
     0C:   000002B3  A$fb_counter$1022                  fb_counter
     0C:   000002B4  A$fb_counter$1023                  fb_counter
     0C:   000002B5  A$fb_counter$1024                  fb_counter
     0C:   000002B6  A$fb_counter$1025                  fb_counter
     0C:   000002B8  A$fb_counter$1026                  fb_counter
     0C:   000002B9  A$fb_counter$1027                  fb_counter
     0C:   000002BA  A$fb_counter$1028                  fb_counter
     0C:   000002BC  A$fb_counter$1029                  fb_counter
     0C:   000002BD  A$fb_counter$1030                  fb_counter
ASxxxx Linker V02.00 + NoICE + sdld,  page 30.
Hexadecimal  [32-Bits]

Area                                    Addr        Size        Decimal Bytes (Attributes)
--------------------------------        ----        ----        ------- ----- ------------
CSEG                                000000A5    00001BC5 =        7109. bytes (REL,CON,CODE)

      Value  Global                              Global Defined In Module
      -----  --------------------------------   ------------------------
     0C:   000002BE  A$fb_counter$1031                  fb_counter
     0C:   000002C0  A$fb_counter$1032                  fb_counter
     0C:   000002C1  A$fb_counter$1033                  fb_counter
     0C:   000002C2  A$fb_counter$1034                  fb_counter
     0C:   000002C4  A$fb_counter$1035                  fb_counter
     0C:   000002C5  A$fb_counter$1036                  fb_counter
     0C:   000002C7  A$fb_counter$1037                  fb_counter
     0C:   000002C9  A$fb_counter$1038                  fb_counter
     0C:   000002CB  A$fb_counter$1039                  fb_counter
     0C:   000002CD  A$fb_counter$1043                  fb_counter
     0C:   000002CD  C$fb_counter.c$153$4$12            fb_counter
     0C:   000002CF  A$fb_counter$1044                  fb_counter
     0C:   000002D0  A$fb_counter$1045                  fb_counter
     0C:   000002D1  A$fb_counter$1046                  fb_counter
     0C:   000002D3  A$fb_counter$1047                  fb_counter
     0C:   000002D6  A$fb_counter$1051                  fb_counter
     0C:   000002D6  C$fb_counter.c$158$3$5             fb_counter
     0C:   000002D8  A$fb_counter$1052                  fb_counter
     0C:   000002DA  A$fb_counter$1053                  fb_counter
     0C:   000002DC  A$fb_counter$1056                  fb_counter
     0C:   000002DC  C$fb_counter.c$159$4$15            fb_counter
     0C:   000002DE  A$fb_counter$1057                  fb_counter
     0C:   000002E0  A$fb_counter$1058                  fb_counter
     0C:   000002E3  A$fb_counter$1059                  fb_counter
     0C:   000002E5  A$fb_counter$1060                  fb_counter
     0C:   000002E7  A$fb_counter$1064                  fb_counter
     0C:   000002E7  C$fb_counter.c$164$1$1             fb_counter
     0C:   000002E9  A$fb_counter$1066                  fb_counter
     0C:   000002EC  A$fb_counter$1068                  fb_counter
     0C:   000002EE  A$fb_counter$1071                  fb_counter
     0C:   000002EE  C$fb_counter.c$165$4$16            fb_counter
     0C:   000002EF  A$fb_counter$1072                  fb_counter
     0C:   000002F1  A$fb_counter$1073                  fb_counter
     0C:   000002F2  A$fb_counter$1074                  fb_counter
     0C:   000002F3  A$fb_counter$1075                  fb_counter
     0C:   000002F4  A$fb_counter$1076                  fb_counter
     0C:   000002F7  A$fb_counter$1079                  fb_counter
     0C:   000002F7  C$fb_counter.c$166$5$17            fb_counter
     0C:   000002FA  A$fb_counter$1082                  fb_counter
     0C:   000002FA  C$fb_counter.c$167$6$18            fb_counter
     0C:   000002FD  A$fb_counter$1083                  fb_counter
     0C:   000002FE  A$fb_counter$1084                  fb_counter
     0C:   000002FF  A$fb_counter$1085                  fb_counter
     0C:   00000300  A$fb_counter$1086                  fb_counter
     0C:   00000302  A$fb_counter$1087                  fb_counter
     0C:   00000304  A$fb_counter$1088                  fb_counter
     0C:   00000306  A$fb_counter$1089                  fb_counter
     0C:   00000308  A$fb_counter$1090                  fb_counter
     0C:   0000030B  A$fb_counter$1091                  fb_counter
     0C:   0000030D  A$fb_counter$1092                  fb_counter
     0C:   00000310  A$fb_counter$1093                  fb_counter
ASxxxx Linker V02.00 + NoICE + sdld,  page 31.
Hexadecimal  [32-Bits]

Area                                    Addr        Size        Decimal Bytes (Attributes)
--------------------------------        ----        ----        ------- ----- ------------
CSEG                                000000A5    00001BC5 =        7109. bytes (REL,CON,CODE)

      Value  Global                              Global Defined In Module
      -----  --------------------------------   ------------------------
     0C:   00000312  A$fb_counter$1094                  fb_counter
     0C:   00000314  A$fb_counter$1095                  fb_counter
     0C:   00000316  A$fb_counter$1098                  fb_counter
     0C:   00000316  C$fb_counter.c$168$6$18            fb_counter
     0C:   00000317  A$fb_counter$1099                  fb_counter
     0C:   00000319  A$fb_counter$1100                  fb_counter
     0C:   0000031A  A$fb_counter$1101                  fb_counter
     0C:   0000031B  A$fb_counter$1102                  fb_counter
     0C:   0000031C  A$fb_counter$1103                  fb_counter
     0C:   0000031F  A$fb_counter$1106                  fb_counter
     0C:   0000031F  C$fb_counter.c$169$7$19            fb_counter
     0C:   00000320  A$fb_counter$1107                  fb_counter
     0C:   00000321  A$fb_counter$1108                  fb_counter
     0C:   00000323  A$fb_counter$1109                  fb_counter
     0C:   00000324  A$fb_counter$1110                  fb_counter
     0C:   00000326  A$fb_counter$1111                  fb_counter
     0C:   00000327  A$fb_counter$1112                  fb_counter
     0C:   00000329  A$fb_counter$1113                  fb_counter
     0C:   0000032A  A$fb_counter$1114                  fb_counter
     0C:   0000032C  A$fb_counter$1115                  fb_counter
     0C:   0000032E  A$fb_counter$1119                  fb_counter
     0C:   0000032E  C$fb_counter.c$172$7$20            fb_counter
     0C:   0000032F  A$fb_counter$1120                  fb_counter
     0C:   00000330  A$fb_counter$1121                  fb_counter
     0C:   00000331  A$fb_counter$1122                  fb_counter
     0C:   00000333  A$fb_counter$1123                  fb_counter
     0C:   00000334  A$fb_counter$1124                  fb_counter
     0C:   00000336  A$fb_counter$1125                  fb_counter
     0C:   00000337  A$fb_counter$1126                  fb_counter
     0C:   00000339  A$fb_counter$1130                  fb_counter
     0C:   00000339  C$fb_counter.c$174$6$18            fb_counter
     0C:   0000033B  A$fb_counter$1131                  fb_counter
     0C:   0000033C  A$fb_counter$1132                  fb_counter
     0C:   0000033D  A$fb_counter$1136                  fb_counter
     0C:   0000033D  C$fb_counter.c$164$3$5             fb_counter
     0C:   0000033E  A$fb_counter$1137                  fb_counter
     0C:   0000033F  A$fb_counter$1138                  fb_counter
     0C:   00000341  A$fb_counter$1142                  fb_counter
     0C:   00000341  C$fb_counter.c$182$2$4             fb_counter
     0C:   00000343  A$fb_counter$1148                  fb_counter
     0C:   00000343  C$fb_counter.c$184$2$4             fb_counter
     0C:   00000343  C$fb_counter.c$185$3$21            fb_counter
     0C:   00000346  A$fb_counter$1149                  fb_counter
     0C:   00000348  A$fb_counter$1153                  fb_counter
     0C:   00000348  C$fb_counter.c$186$3$21            fb_counter
     0C:   0000034A  A$fb_counter$1156                  fb_counter
     0C:   0000034A  C$fb_counter.c$187$3$21            fb_counter
     0C:   0000034C  A$fb_counter$1157                  fb_counter
     0C:   0000034E  A$fb_counter$1158                  fb_counter
     0C:   00000351  A$fb_counter$1159                  fb_counter
     0C:   00000353  A$fb_counter$1160                  fb_counter
ASxxxx Linker V02.00 + NoICE + sdld,  page 32.
Hexadecimal  [32-Bits]

Area                                    Addr        Size        Decimal Bytes (Attributes)
--------------------------------        ----        ----        ------- ----- ------------
CSEG                                000000A5    00001BC5 =        7109. bytes (REL,CON,CODE)

      Value  Global                              Global Defined In Module
      -----  --------------------------------   ------------------------
     0C:   00000355  A$fb_counter$1161                  fb_counter
     0C:   00000357  A$fb_counter$1165                  fb_counter
     0C:   00000357  C$fb_counter.c$190$3$4             fb_counter
     0C:   00000359  A$fb_counter$1167                  fb_counter
     0C:   0000035B  A$fb_counter$1168                  fb_counter
     0C:   0000035C  A$fb_counter$1169                  fb_counter
     0C:   0000035E  A$fb_counter$1170                  fb_counter
     0C:   0000035F  A$fb_counter$1171                  fb_counter
     0C:   00000361  A$fb_counter$1177                  fb_counter
     0C:   00000361  C$fb_counter.c$196$2$4             fb_counter
     0C:   00000361  C$fb_counter.c$197$3$23            fb_counter
     0C:   00000364  A$fb_counter$1178                  fb_counter
     0C:   00000366  A$fb_counter$1182                  fb_counter
     0C:   00000366  C$fb_counter.c$198$3$23            fb_counter
     0C:   00000368  A$fb_counter$1185                  fb_counter
     0C:   00000368  C$fb_counter.c$199$3$23            fb_counter
     0C:   0000036B  A$fb_counter$1191                  fb_counter
     0C:   0000036B  C$fb_counter.c$200$4$24            fb_counter
     0C:   0000036B  C$fb_counter.c$201$4$24            fb_counter
     0C:   0000036E  A$fb_counter$1192                  fb_counter
     0C:   00000370  A$fb_counter$1196                  fb_counter
     0C:   00000370  C$fb_counter.c$202$4$24            fb_counter
     0C:   00000373  A$fb_counter$1200                  fb_counter
     0C:   00000373  C$fb_counter.c$204$3$23            fb_counter
     0C:   00000376  A$fb_counter$1203                  fb_counter
     0C:   00000376  C$fb_counter.c$205$4$25            fb_counter
     0C:   00000378  A$fb_counter$1206                  fb_counter
     0C:   00000378  C$fb_counter.c$206$4$25            fb_counter
     0C:   0000037A  A$fb_counter$1207                  fb_counter
     0C:   0000037B  A$fb_counter$1208                  fb_counter
     0C:   0000037C  A$fb_counter$1212                  fb_counter
     0C:   0000037C  C$fb_counter.c$208$3$23            fb_counter
     0C:   0000037F  A$fb_counter$1215                  fb_counter
     0C:   0000037F  C$fb_counter.c$209$4$26            fb_counter
     0C:   00000381  A$fb_counter$1218                  fb_counter
     0C:   00000381  C$fb_counter.c$210$4$26            fb_counter
     0C:   00000383  A$fb_counter$1219                  fb_counter
     0C:   00000384  A$fb_counter$1220                  fb_counter
     0C:   00000385  A$fb_counter$1224                  fb_counter
     0C:   00000385  C$fb_counter.c$212$3$23            fb_counter
     0C:   00000388  A$fb_counter$1227                  fb_counter
     0C:   00000388  C$fb_counter.c$213$4$27            fb_counter
     0C:   0000038A  A$fb_counter$1230                  fb_counter
     0C:   0000038A  C$fb_counter.c$214$4$27            fb_counter
     0C:   0000038D  A$fb_counter$1233                  fb_counter
     0C:   0000038D  C$fb_counter.c$216$4$27            fb_counter
     0C:   00000390  A$fb_counter$1236                  fb_counter
     0C:   00000390  C$fb_counter.c$217$4$27            fb_counter
     0C:   00000393  A$fb_counter$1239                  fb_counter
     0C:   00000393  C$fb_counter.c$219$4$27            fb_counter
     0C:   00000395  A$fb_counter$1240                  fb_counter
ASxxxx Linker V02.00 + NoICE + sdld,  page 33.
Hexadecimal  [32-Bits]

Area                                    Addr        Size        Decimal Bytes (Attributes)
--------------------------------        ----        ----        ------- ----- ------------
CSEG                                000000A5    00001BC5 =        7109. bytes (REL,CON,CODE)

      Value  Global                              Global Defined In Module
      -----  --------------------------------   ------------------------
     0C:   00000396  A$fb_counter$1241                  fb_counter
     0C:   00000398  A$fb_counter$1244                  fb_counter
     0C:   00000398  C$fb_counter.c$220$4$27            fb_counter
     0C:   0000039B  A$fb_counter$1247                  fb_counter
     0C:   0000039B  C$fb_counter.c$221$4$27            fb_counter
     0C:   0000039D  A$fb_counter$1251                  fb_counter
     0C:   0000039D  C$fb_counter.c$223$3$23            fb_counter
     0C:   000003A0  A$fb_counter$1252                  fb_counter
     0C:   000003A3  A$fb_counter$1256                  fb_counter
     0C:   000003A3  C$fb_counter.c$225$3$23            fb_counter
     0C:   000003A6  A$fb_counter$1262                  fb_counter
     0C:   000003A6  C$fb_counter.c$226$4$28            fb_counter
     0C:   000003A6  C$fb_counter.c$227$4$28            fb_counter
     0C:   000003A9  A$fb_counter$1263                  fb_counter
     0C:   000003AB  A$fb_counter$1267                  fb_counter
     0C:   000003AB  C$fb_counter.c$228$4$28            fb_counter
     0C:   000003AE  A$fb_counter$1271                  fb_counter
     0C:   000003AE  C$fb_counter.c$230$3$23            fb_counter
     0C:   000003B1  A$fb_counter$1277                  fb_counter
     0C:   000003B1  C$fb_counter.c$231$4$29            fb_counter
     0C:   000003B1  C$fb_counter.c$232$4$29            fb_counter
     0C:   000003B4  A$fb_counter$1278                  fb_counter
     0C:   000003B6  A$fb_counter$1282                  fb_counter
     0C:   000003B6  C$fb_counter.c$233$4$29            fb_counter
     0C:   000003B9  A$fb_counter$1286                  fb_counter
     0C:   000003B9  C$fb_counter.c$238$2$4             fb_counter
     0C:   000003BB  A$fb_counter$1289                  fb_counter
     0C:   000003BB  C$fb_counter.c$239$2$4             fb_counter
     0C:   000003BE  A$fb_counter$1292                  fb_counter
     0C:   000003BE  C$fb_counter.c$240$3$30            fb_counter
     0C:   000003C1  A$fb_counter$1294                  fb_counter
     0C:   000003C3  A$fb_counter$1295                  fb_counter
     0C:   000003C4  A$fb_counter$1296                  fb_counter
     0C:   000003C6  A$fb_counter$1300                  fb_counter
     0C:   000003C6  C$fb_counter.c$242$4$31            fb_counter
     0C:   000003C9  A$fb_counter$1301                  fb_counter
     0C:   000003CC  A$fb_counter$1305                  fb_counter
     0C:   000003CC  C$fb_counter.c$243$4$31            fb_counter
     0C:   000003CE  A$fb_counter$1306                  fb_counter
     0C:   000003D0  A$fb_counter$1310                  fb_counter
     0C:   000003D0  C$fb_counter.c$247$3$32            fb_counter
     0C:   000003D1  A$fb_counter$1311                  fb_counter
     0C:   000003D3  A$fb_counter$1312                  fb_counter
     0C:   000003D4  A$fb_counter$1313                  fb_counter
     0C:   000003D6  A$fb_counter$1317                  fb_counter
     0C:   000003D6  C$fb_counter.c$248$3$32            fb_counter
     0C:   000003D8  A$fb_counter$1321                  fb_counter
     0C:   000003D8  C$fb_counter.c$250$2$4             fb_counter
     0C:   000003DA  A$fb_counter$1322                  fb_counter
     0C:   000003DC  A$fb_counter$1323                  fb_counter
     0C:   000003DD  A$fb_counter$1324                  fb_counter
ASxxxx Linker V02.00 + NoICE + sdld,  page 34.
Hexadecimal  [32-Bits]

Area                                    Addr        Size        Decimal Bytes (Attributes)
--------------------------------        ----        ----        ------- ----- ------------
CSEG                                000000A5    00001BC5 =        7109. bytes (REL,CON,CODE)

      Value  Global                              Global Defined In Module
      -----  --------------------------------   ------------------------
     0C:   000003E0  A$fb_counter$1326                  fb_counter
     0C:   000003E1  A$fb_counter$1327                  fb_counter
     0C:   000003E2  A$fb_counter$1328                  fb_counter
     0C:   000003E3  A$fb_counter$1329                  fb_counter
     0C:   000003E5  A$fb_counter$1330                  fb_counter
     0C:   000003E7  A$fb_counter$1333                  fb_counter
     0C:   000003E7  C$fb_counter.c$252$1$1             fb_counter
     0C:   000003EA  A$fb_counter$1334                  fb_counter
     0C:   000003EC  A$fb_counter$1335                  fb_counter
     0C:   000003EE  A$fb_counter$1338                  fb_counter
     0C:   000003EE  C$fb_counter.c$253$1$1             fb_counter
     0C:   000003EE  XG$main$0$0                        fb_counter
     0C:   000003EF  A$fb_app_counter$655               fb_app_counter
     0C:   000003EF  C$fb_app_counter.c$61$0$0          fb_app_counter
     0C:   000003EF  G$keypad_isr$0$0                   fb_app_counter
     0C:   000003EF  _keypad_isr                        fb_app_counter
     0C:   000003F1  A$fb_app_counter$656               fb_app_counter
     0C:   000003F3  A$fb_app_counter$657               fb_app_counter
     0C:   000003F5  A$fb_app_counter$658               fb_app_counter
     0C:   000003F8  A$fb_app_counter$661               fb_app_counter
     0C:   000003F8  C$fb_app_counter.c$65$1$1          fb_app_counter
     0C:   000003FB  A$fb_app_counter$666               fb_app_counter
     0C:   000003FB  C$fb_app_counter.c$66$1$1          fb_app_counter
     0C:   000003FB  C$fb_app_counter.c$67$1$1          fb_app_counter
     0C:   000003FD  A$fb_app_counter$667               fb_app_counter
     0C:   000003FE  A$fb_app_counter$668               fb_app_counter
     0C:   00000401  A$fb_app_counter$669               fb_app_counter
     0C:   00000404  A$fb_app_counter$672               fb_app_counter
     0C:   00000404  C$fb_app_counter.c$68$2$2          fb_app_counter
     0C:   00000406  A$fb_app_counter$675               fb_app_counter
     0C:   00000406  C$fb_app_counter.c$69$2$2          fb_app_counter
     0C:   00000408  A$fb_app_counter$679               fb_app_counter
     0C:   00000408  C$fb_app_counter.c$71$1$1          fb_app_counter
     0C:   00000409  A$fb_app_counter$680               fb_app_counter
     0C:   0000040C  A$fb_app_counter$681               fb_app_counter
     0C:   0000040E  A$fb_app_counter$685               fb_app_counter
     0C:   0000040E  C$fb_app_counter.c$73$1$1          fb_app_counter
     0C:   0000040F  A$fb_app_counter$686               fb_app_counter
     0C:   00000412  A$fb_app_counter$687               fb_app_counter
     0C:   00000415  A$fb_app_counter$690               fb_app_counter
     0C:   00000415  C$fb_app_counter.c$74$2$3          fb_app_counter
     0C:   00000417  A$fb_app_counter$693               fb_app_counter
     0C:   00000417  C$fb_app_counter.c$75$2$3          fb_app_counter
     0C:   00000419  A$fb_app_counter$697               fb_app_counter
     0C:   00000419  C$fb_app_counter.c$77$1$1          fb_app_counter
     0C:   0000041A  A$fb_app_counter$698               fb_app_counter
     0C:   0000041D  A$fb_app_counter$699               fb_app_counter
     0C:   0000041F  A$fb_app_counter$703               fb_app_counter
     0C:   0000041F  C$fb_app_counter.c$78$1$1          fb_app_counter
     0C:   00000421  A$fb_app_counter$704               fb_app_counter
     0C:   00000423  A$fb_app_counter$705               fb_app_counter
ASxxxx Linker V02.00 + NoICE + sdld,  page 35.
Hexadecimal  [32-Bits]

Area                                    Addr        Size        Decimal Bytes (Attributes)
--------------------------------        ----        ----        ------- ----- ------------
CSEG                                000000A5    00001BC5 =        7109. bytes (REL,CON,CODE)

      Value  Global                              Global Defined In Module
      -----  --------------------------------   ------------------------
     0C:   00000425  A$fb_app_counter$706               fb_app_counter
     0C:   00000427  A$fb_app_counter$709               fb_app_counter
     0C:   00000427  C$fb_app_counter.c$79$1$1          fb_app_counter
     0C:   00000427  XG$keypad_isr$0$0                  fb_app_counter
     0C:   00000428  A$fb_app_counter$734               fb_app_counter
     0C:   00000428  C$fb_app_counter.c$82$1$1          fb_app_counter
     0C:   00000428  G$pin_changed$0$0                  fb_app_counter
     0C:   00000428  _pin_changed                       fb_app_counter
     0C:   0000042A  A$fb_app_counter$737               fb_app_counter
     0C:   0000042A  C$fb_app_counter.c$90$1$1          fb_app_counter
     0C:   0000042D  A$fb_app_counter$740               fb_app_counter
     0C:   0000042D  C$fb_app_counter.c$91$1$1          fb_app_counter
     0C:   00000430  A$fb_app_counter$743               fb_app_counter
     0C:   00000432  A$fb_app_counter$745               fb_app_counter
     0C:   00000435  A$fb_app_counter$747               fb_app_counter
     0C:   00000437  A$fb_app_counter$750               fb_app_counter
     0C:   00000437  C$fb_app_counter.c$94$1$1          fb_app_counter
     0C:   00000439  A$fb_app_counter$752               fb_app_counter
     0C:   0000043A  A$fb_app_counter$753               fb_app_counter
     0C:   0000043C  A$fb_app_counter$754               fb_app_counter
     0C:   0000043E  A$fb_app_counter$755               fb_app_counter
     0C:   00000440  A$fb_app_counter$757               fb_app_counter
     0C:   00000442  A$fb_app_counter$759               fb_app_counter
     0C:   00000443  A$fb_app_counter$760               fb_app_counter
     0C:   00000445  A$fb_app_counter$761               fb_app_counter
     0C:   00000446  A$fb_app_counter$762               fb_app_counter
     0C:   00000448  A$fb_app_counter$766               fb_app_counter
     0C:   00000448  C$fb_app_counter.c$93$1$1          fb_app_counter
     0C:   00000449  A$fb_app_counter$767               fb_app_counter
     0C:   0000044B  A$fb_app_counter$771               fb_app_counter
     0C:   0000044B  C$fb_app_counter.c$97$1$1          fb_app_counter
     0C:   0000044D  A$fb_app_counter$772               fb_app_counter
     0C:   0000044F  A$fb_app_counter$773               fb_app_counter
     0C:   00000450  A$fb_app_counter$774               fb_app_counter
     0C:   00000451  A$fb_app_counter$775               fb_app_counter
     0C:   00000452  A$fb_app_counter$776               fb_app_counter
     0C:   00000455  A$fb_app_counter$777               fb_app_counter
     0C:   00000456  A$fb_app_counter$778               fb_app_counter
     0C:   00000457  A$fb_app_counter$779               fb_app_counter
     0C:   00000459  A$fb_app_counter$782               fb_app_counter
     0C:   00000459  C$fb_app_counter.c$102$1$1         fb_app_counter
     0C:   0000045A  A$fb_app_counter$783               fb_app_counter
     0C:   0000045C  A$fb_app_counter$786               fb_app_counter
     0C:   0000045C  C$fb_app_counter.c$104$2$3         fb_app_counter
     0C:   0000045E  A$fb_app_counter$787               fb_app_counter
     0C:   00000460  A$fb_app_counter$788               fb_app_counter
     0C:   00000462  A$fb_app_counter$789               fb_app_counter
     0C:   00000464  A$fb_app_counter$791               fb_app_counter
     0C:   00000465  A$fb_app_counter$792               fb_app_counter
     0C:   00000466  A$fb_app_counter$794               fb_app_counter
     0C:   00000469  A$fb_app_counter$795               fb_app_counter
ASxxxx Linker V02.00 + NoICE + sdld,  page 36.
Hexadecimal  [32-Bits]

Area                                    Addr        Size        Decimal Bytes (Attributes)
--------------------------------        ----        ----        ------- ----- ------------
CSEG                                000000A5    00001BC5 =        7109. bytes (REL,CON,CODE)

      Value  Global                              Global Defined In Module
      -----  --------------------------------   ------------------------
     0C:   0000046B  A$fb_app_counter$796               fb_app_counter
     0C:   0000046C  A$fb_app_counter$797               fb_app_counter
     0C:   0000046F  A$fb_app_counter$799               fb_app_counter
     0C:   00000470  A$fb_app_counter$800               fb_app_counter
     0C:   00000471  A$fb_app_counter$801               fb_app_counter
     0C:   00000472  A$fb_app_counter$802               fb_app_counter
     0C:   00000474  A$fb_app_counter$803               fb_app_counter
     0C:   00000476  A$fb_app_counter$804               fb_app_counter
     0C:   00000478  A$fb_app_counter$805               fb_app_counter
     0C:   0000047A  A$fb_app_counter$806               fb_app_counter
     0C:   0000047C  A$fb_app_counter$808               fb_app_counter
     0C:   0000047D  A$fb_app_counter$809               fb_app_counter
     0C:   0000047E  A$fb_app_counter$811               fb_app_counter
     0C:   00000481  A$fb_app_counter$812               fb_app_counter
     0C:   00000483  A$fb_app_counter$813               fb_app_counter
     0C:   00000484  A$fb_app_counter$814               fb_app_counter
     0C:   00000487  A$fb_app_counter$815               fb_app_counter
     0C:   00000489  A$fb_app_counter$818               fb_app_counter
     0C:   0000048B  A$fb_app_counter$819               fb_app_counter
     0C:   0000048D  A$fb_app_counter$821               fb_app_counter
     0C:   0000048F  A$fb_app_counter$823               fb_app_counter
     0C:   00000491  A$fb_app_counter$824               fb_app_counter
     0C:   00000493  A$fb_app_counter$827               fb_app_counter
     0C:   00000493  C$fb_app_counter.c$105$2$3         fb_app_counter
     0C:   00000495  A$fb_app_counter$828               fb_app_counter
     0C:   00000496  A$fb_app_counter$831               fb_app_counter
     0C:   00000496  C$fb_app_counter.c$106$2$3         fb_app_counter
     0C:   00000497  A$fb_app_counter$832               fb_app_counter
     0C:   00000498  A$fb_app_counter$833               fb_app_counter
     0C:   0000049B  A$fb_app_counter$834               fb_app_counter
     0C:   0000049C  A$fb_app_counter$835               fb_app_counter
     0C:   0000049D  A$fb_app_counter$838               fb_app_counter
     0C:   0000049D  C$fb_app_counter.c$107$2$3         fb_app_counter
     0C:   000004A0  A$fb_app_counter$839               fb_app_counter
     0C:   000004A2  A$fb_app_counter$841               fb_app_counter
     0C:   000004A5  A$fb_app_counter$845               fb_app_counter
     0C:   000004A5  C$fb_app_counter.c$108$3$4         fb_app_counter
     0C:   000004A7  A$fb_app_counter$846               fb_app_counter
     0C:   000004A8  A$fb_app_counter$847               fb_app_counter
     0C:   000004A9  A$fb_app_counter$848               fb_app_counter
     0C:   000004AA  A$fb_app_counter$849               fb_app_counter
     0C:   000004AC  A$fb_app_counter$850               fb_app_counter
     0C:   000004AE  A$fb_app_counter$851               fb_app_counter
     0C:   000004B0  A$fb_app_counter$852               fb_app_counter
     0C:   000004B1  A$fb_app_counter$853               fb_app_counter
     0C:   000004B2  A$fb_app_counter$854               fb_app_counter
     0C:   000004B4  A$fb_app_counter$855               fb_app_counter
     0C:   000004B6  A$fb_app_counter$856               fb_app_counter
     0C:   000004B8  A$fb_app_counter$857               fb_app_counter
     0C:   000004BA  A$fb_app_counter$858               fb_app_counter
     0C:   000004BC  A$fb_app_counter$859               fb_app_counter
ASxxxx Linker V02.00 + NoICE + sdld,  page 37.
Hexadecimal  [32-Bits]

Area                                    Addr        Size        Decimal Bytes (Attributes)
--------------------------------        ----        ----        ------- ----- ------------
CSEG                                000000A5    00001BC5 =        7109. bytes (REL,CON,CODE)

      Value  Global                              Global Defined In Module
      -----  --------------------------------   ------------------------
     0C:   000004BE  A$fb_app_counter$860               fb_app_counter
     0C:   000004C1  A$fb_app_counter$861               fb_app_counter
     0C:   000004C3  A$fb_app_counter$862               fb_app_counter
     0C:   000004C5  A$fb_app_counter$863               fb_app_counter
     0C:   000004C7  A$fb_app_counter$864               fb_app_counter
     0C:   000004C9  A$fb_app_counter$867               fb_app_counter
     0C:   000004C9  C$fb_app_counter.c$109$3$4         fb_app_counter
     0C:   000004CB  A$fb_app_counter$868               fb_app_counter
     0C:   000004CE  A$fb_app_counter$872               fb_app_counter
     0C:   000004CE  C$fb_app_counter.c$114$1$1         fb_app_counter
     0C:   000004CE  XG$pin_changed$0$0                 fb_app_counter
     0C:   000004CF  A$fb_app_counter$886               fb_app_counter
     0C:   000004CF  C$fb_app_counter.c$121$1$1         fb_app_counter
     0C:   000004CF  G$eis5conversion$0$0               fb_app_counter
     0C:   000004CF  _eis5conversion                    fb_app_counter
     0C:   000004D1  A$fb_app_counter$887               fb_app_counter
     0C:   000004D3  A$fb_app_counter$888               fb_app_counter
     0C:   000004D5  A$fb_app_counter$889               fb_app_counter
     0C:   000004D6  A$fb_app_counter$892               fb_app_counter
     0C:   000004D6  C$fb_app_counter.c$124$1$1         fb_app_counter
     0C:   000004D8  A$fb_app_counter$894               fb_app_counter
     0C:   000004D9  A$fb_app_counter$895               fb_app_counter
     0C:   000004DB  A$fb_app_counter$896               fb_app_counter
     0C:   000004DD  A$fb_app_counter$897               fb_app_counter
     0C:   000004DE  A$fb_app_counter$898               fb_app_counter
     0C:   000004E0  A$fb_app_counter$899               fb_app_counter
     0C:   000004E1  A$fb_app_counter$900               fb_app_counter
     0C:   000004E3  A$fb_app_counter$904               fb_app_counter
     0C:   000004E3  C$fb_app_counter.c$125$2$2         fb_app_counter
     0C:   000004E4  A$fb_app_counter$905               fb_app_counter
     0C:   000004E5  A$fb_app_counter$906               fb_app_counter
     0C:   000004E6  A$fb_app_counter$907               fb_app_counter
     0C:   000004E7  A$fb_app_counter$908               fb_app_counter
     0C:   000004E8  A$fb_app_counter$909               fb_app_counter
     0C:   000004E9  A$fb_app_counter$910               fb_app_counter
     0C:   000004EA  A$fb_app_counter$911               fb_app_counter
     0C:   000004EB  A$fb_app_counter$912               fb_app_counter
     0C:   000004EC  A$fb_app_counter$913               fb_app_counter
     0C:   000004ED  A$fb_app_counter$914               fb_app_counter
     0C:   000004EE  A$fb_app_counter$915               fb_app_counter
     0C:   000004EF  A$fb_app_counter$916               fb_app_counter
     0C:   000004F0  A$fb_app_counter$919               fb_app_counter
     0C:   000004F0  C$fb_app_counter.c$126$2$2         fb_app_counter
     0C:   000004F1  A$fb_app_counter$920               fb_app_counter
     0C:   000004F3  A$fb_app_counter$924               fb_app_counter
     0C:   000004F3  C$fb_app_counter.c$129$1$1         fb_app_counter
     0C:   000004F4  A$fb_app_counter$925               fb_app_counter
     0C:   000004F5  A$fb_app_counter$926               fb_app_counter
     0C:   000004F6  A$fb_app_counter$927               fb_app_counter
     0C:   000004F8  A$fb_app_counter$928               fb_app_counter
     0C:   000004F9  A$fb_app_counter$929               fb_app_counter
ASxxxx Linker V02.00 + NoICE + sdld,  page 38.
Hexadecimal  [32-Bits]

Area                                    Addr        Size        Decimal Bytes (Attributes)
--------------------------------        ----        ----        ------- ----- ------------
CSEG                                000000A5    00001BC5 =        7109. bytes (REL,CON,CODE)

      Value  Global                              Global Defined In Module
      -----  --------------------------------   ------------------------
     0C:   000004FA  A$fb_app_counter$930               fb_app_counter
     0C:   000004FB  A$fb_app_counter$931               fb_app_counter
     0C:   000004FD  A$fb_app_counter$932               fb_app_counter
     0C:   000004FE  A$fb_app_counter$933               fb_app_counter
     0C:   000004FF  A$fb_app_counter$934               fb_app_counter
     0C:   00000501  A$fb_app_counter$937               fb_app_counter
     0C:   00000501  C$fb_app_counter.c$130$1$1         fb_app_counter
     0C:   00000501  XG$eis5conversion$0$0              fb_app_counter
     0C:   00000502  A$fb_app_counter$954               fb_app_counter
     0C:   00000502  C$fb_app_counter.c$138$1$1         fb_app_counter
     0C:   00000502  C$fb_app_counter.c$145$1$1         fb_app_counter
     0C:   00000502  G$delay_timer$0$0                  fb_app_counter
     0C:   00000502  _delay_timer                       fb_app_counter
     0C:   00000505  A$fb_app_counter$957               fb_app_counter
     0C:   00000505  C$fb_app_counter.c$147$1$1         fb_app_counter
     0C:   00000508  A$fb_app_counter$960               fb_app_counter
     0C:   00000508  C$fb_app_counter.c$149$1$1         fb_app_counter
     0C:   0000050A  A$fb_app_counter$963               fb_app_counter
     0C:   0000050A  C$fb_app_counter.c$151$1$1         fb_app_counter
     0C:   0000050C  A$fb_app_counter$964               fb_app_counter
     0C:   0000050F  A$fb_app_counter$965               fb_app_counter
     0C:   00000511  A$fb_app_counter$967               fb_app_counter
     0C:   00000513  A$fb_app_counter$968               fb_app_counter
     0C:   00000516  A$fb_app_counter$972               fb_app_counter
     0C:   00000516  C$fb_app_counter.c$152$2$2         fb_app_counter
     0C:   00000519  A$fb_app_counter$976               fb_app_counter
     0C:   00000519  C$fb_app_counter.c$154$1$1         fb_app_counter
     0C:   0000051B  A$fb_app_counter$977               fb_app_counter
     0C:   0000051D  A$fb_app_counter$978               fb_app_counter
     0C:   0000051F  A$fb_app_counter$981               fb_app_counter
     0C:   0000051F  C$fb_app_counter.c$155$2$3         fb_app_counter
     0C:   00000522  A$fb_app_counter$984               fb_app_counter
     0C:   00000522  C$fb_app_counter.c$156$2$3         fb_app_counter
     0C:   00000525  A$fb_app_counter$987               fb_app_counter
     0C:   00000525  C$fb_app_counter.c$157$2$3         fb_app_counter
     0C:   00000527  A$fb_app_counter$991               fb_app_counter
     0C:   00000527  C$fb_app_counter.c$160$1$1         fb_app_counter
     0C:   00000529  A$fb_app_counter$992               fb_app_counter
     0C:   0000052B  A$fb_app_counter$993               fb_app_counter
     0C:   0000052D  A$fb_app_counter$996               fb_app_counter
     0C:   0000052D  C$fb_app_counter.c$161$2$4         fb_app_counter
     0C:   00000530  A$fb_app_counter$999               fb_app_counter
     0C:   00000530  C$fb_app_counter.c$162$2$4         fb_app_counter
     0C:   00000533  A$fb_app_counter$1002              fb_app_counter
     0C:   00000533  C$fb_app_counter.c$163$2$4         fb_app_counter
     0C:   00000535  A$fb_app_counter$1006              fb_app_counter
     0C:   00000535  C$fb_app_counter.c$166$1$1         fb_app_counter
     0C:   00000537  A$fb_app_counter$1007              fb_app_counter
     0C:   00000539  A$fb_app_counter$1008              fb_app_counter
     0C:   0000053B  A$fb_app_counter$1011              fb_app_counter
     0C:   0000053B  C$fb_app_counter.c$167$2$5         fb_app_counter
ASxxxx Linker V02.00 + NoICE + sdld,  page 39.
Hexadecimal  [32-Bits]

Area                                    Addr        Size        Decimal Bytes (Attributes)
--------------------------------        ----        ----        ------- ----- ------------
CSEG                                000000A5    00001BC5 =        7109. bytes (REL,CON,CODE)

      Value  Global                              Global Defined In Module
      -----  --------------------------------   ------------------------
     0C:   0000053E  A$fb_app_counter$1014              fb_app_counter
     0C:   0000053E  C$fb_app_counter.c$168$2$5         fb_app_counter
     0C:   00000541  A$fb_app_counter$1017              fb_app_counter
     0C:   00000541  C$fb_app_counter.c$169$2$5         fb_app_counter
     0C:   00000543  A$fb_app_counter$1021              fb_app_counter
     0C:   00000543  C$fb_app_counter.c$171$1$1         fb_app_counter
     0C:   00000545  A$fb_app_counter$1022              fb_app_counter
     0C:   00000547  A$fb_app_counter$1023              fb_app_counter
     0C:   00000549  A$fb_app_counter$1026              fb_app_counter
     0C:   00000549  C$fb_app_counter.c$172$2$6         fb_app_counter
     0C:   0000054C  A$fb_app_counter$1029              fb_app_counter
     0C:   0000054C  C$fb_app_counter.c$173$2$6         fb_app_counter
     0C:   0000054F  A$fb_app_counter$1033              fb_app_counter
     0C:   0000054F  C$fb_app_counter.c$175$1$1         fb_app_counter
     0C:   00000551  A$fb_app_counter$1034              fb_app_counter
     0C:   00000554  A$fb_app_counter$1035              fb_app_counter
     0C:   00000556  A$fb_app_counter$1036              fb_app_counter
     0C:   00000559  A$fb_app_counter$1037              fb_app_counter
     0C:   0000055C  A$fb_app_counter$1038              fb_app_counter
     0C:   0000055F  A$fb_app_counter$1042              fb_app_counter
     0C:   00000561  A$fb_app_counter$1044              fb_app_counter
     0C:   00000564  A$fb_app_counter$1046              fb_app_counter
     0C:   00000566  A$fb_app_counter$1049              fb_app_counter
     0C:   00000566  C$fb_app_counter.c$178$2$7         fb_app_counter
     0C:   00000568  A$fb_app_counter$1050              fb_app_counter
     0C:   0000056B  A$fb_app_counter$1053              fb_app_counter
     0C:   0000056B  C$fb_app_counter.c$179$1$1         fb_app_counter
     0C:   0000056D  A$fb_app_counter$1055              fb_app_counter
     0C:   00000570  A$fb_app_counter$1057              fb_app_counter
     0C:   00000572  A$fb_app_counter$1060              fb_app_counter
     0C:   00000572  C$fb_app_counter.c$180$4$9         fb_app_counter
     0C:   00000573  A$fb_app_counter$1061              fb_app_counter
     0C:   00000575  A$fb_app_counter$1062              fb_app_counter
     0C:   00000576  A$fb_app_counter$1063              fb_app_counter
     0C:   00000578  A$fb_app_counter$1064              fb_app_counter
     0C:   0000057B  A$fb_app_counter$1065              fb_app_counter
     0C:   0000057C  A$fb_app_counter$1066              fb_app_counter
     0C:   0000057F  A$fb_app_counter$1069              fb_app_counter
     0C:   0000057F  C$fb_app_counter.c$181$5$10        fb_app_counter
     0C:   00000580  A$fb_app_counter$1070              fb_app_counter
     0C:   00000582  A$fb_app_counter$1071              fb_app_counter
     0C:   00000583  A$fb_app_counter$1072              fb_app_counter
     0C:   00000584  A$fb_app_counter$1073              fb_app_counter
     0C:   00000585  A$fb_app_counter$1074              fb_app_counter
     0C:   00000587  A$fb_app_counter$1075              fb_app_counter
     0C:   00000589  A$fb_app_counter$1078              fb_app_counter
     0C:   00000589  C$fb_app_counter.c$182$6$11        fb_app_counter
     0C:   0000058A  A$fb_app_counter$1079              fb_app_counter
     0C:   0000058B  A$fb_app_counter$1080              fb_app_counter
     0C:   0000058C  A$fb_app_counter$1084              fb_app_counter
     0C:   0000058C  C$fb_app_counter.c$179$3$8         fb_app_counter
ASxxxx Linker V02.00 + NoICE + sdld,  page 40.
Hexadecimal  [32-Bits]

Area                                    Addr        Size        Decimal Bytes (Attributes)
--------------------------------        ----        ----        ------- ----- ------------
CSEG                                000000A5    00001BC5 =        7109. bytes (REL,CON,CODE)

      Value  Global                              Global Defined In Module
      -----  --------------------------------   ------------------------
     0C:   0000058D  A$fb_app_counter$1085              fb_app_counter
     0C:   0000058F  A$fb_app_counter$1089              fb_app_counter
     0C:   0000058F  C$fb_app_counter.c$187$2$7         fb_app_counter
     0C:   00000591  A$fb_app_counter$1090              fb_app_counter
     0C:   00000592  A$fb_app_counter$1091              fb_app_counter
     0C:   00000593  A$fb_app_counter$1092              fb_app_counter
     0C:   00000595  A$fb_app_counter$1095              fb_app_counter
     0C:   00000595  C$fb_app_counter.c$177$1$1         fb_app_counter
     0C:   00000596  A$fb_app_counter$1096              fb_app_counter
     0C:   00000598  A$fb_app_counter$1100              fb_app_counter
     0C:   00000598  C$fb_app_counter.c$192$3$13        fb_app_counter
     0C:   0000059A  A$fb_app_counter$1102              fb_app_counter
     0C:   0000059D  A$fb_app_counter$1104              fb_app_counter
     0C:   0000059F  A$fb_app_counter$1105              fb_app_counter
     0C:   000005A2  A$fb_app_counter$1109              fb_app_counter
     0C:   000005A2  C$fb_app_counter.c$193$2$12        fb_app_counter
     0C:   000005A3  A$fb_app_counter$1110              fb_app_counter
     0C:   000005A5  A$fb_app_counter$1111              fb_app_counter
     0C:   000005A6  A$fb_app_counter$1112              fb_app_counter
     0C:   000005A8  A$fb_app_counter$1113              fb_app_counter
     0C:   000005AB  A$fb_app_counter$1114              fb_app_counter
     0C:   000005AD  A$fb_app_counter$1116              fb_app_counter
     0C:   000005B0  A$fb_app_counter$1120              fb_app_counter
     0C:   000005B0  C$fb_app_counter.c$194$3$13        fb_app_counter
     0C:   000005B1  A$fb_app_counter$1121              fb_app_counter
     0C:   000005B2  A$fb_app_counter$1122              fb_app_counter
     0C:   000005B3  A$fb_app_counter$1123              fb_app_counter
     0C:   000005B4  A$fb_app_counter$1124              fb_app_counter
     0C:   000005B7  A$fb_app_counter$1125              fb_app_counter
     0C:   000005B8  A$fb_app_counter$1126              fb_app_counter
     0C:   000005B9  A$fb_app_counter$1127              fb_app_counter
     0C:   000005BA  A$fb_app_counter$1128              fb_app_counter
     0C:   000005BB  A$fb_app_counter$1129              fb_app_counter
     0C:   000005BC  A$fb_app_counter$1130              fb_app_counter
     0C:   000005BE  A$fb_app_counter$1131              fb_app_counter
     0C:   000005C0  A$fb_app_counter$1132              fb_app_counter
     0C:   000005C1  A$fb_app_counter$1133              fb_app_counter
     0C:   000005C3  A$fb_app_counter$1134              fb_app_counter
     0C:   000005C4  A$fb_app_counter$1135              fb_app_counter
     0C:   000005C5  A$fb_app_counter$1136              fb_app_counter
     0C:   000005C6  A$fb_app_counter$1137              fb_app_counter
     0C:   000005C7  A$fb_app_counter$1140              fb_app_counter
     0C:   000005C7  C$fb_app_counter.c$195$3$13        fb_app_counter
     0C:   000005C8  A$fb_app_counter$1141              fb_app_counter
     0C:   000005CA  A$fb_app_counter$1142              fb_app_counter
     0C:   000005CB  A$fb_app_counter$1143              fb_app_counter
     0C:   000005CC  A$fb_app_counter$1144              fb_app_counter
     0C:   000005CD  A$fb_app_counter$1145              fb_app_counter
     0C:   000005D0  A$fb_app_counter$1146              fb_app_counter
     0C:   000005D1  A$fb_app_counter$1147              fb_app_counter
     0C:   000005D2  A$fb_app_counter$1148              fb_app_counter
ASxxxx Linker V02.00 + NoICE + sdld,  page 41.
Hexadecimal  [32-Bits]

Area                                    Addr        Size        Decimal Bytes (Attributes)
--------------------------------        ----        ----        ------- ----- ------------
CSEG                                000000A5    00001BC5 =        7109. bytes (REL,CON,CODE)

      Value  Global                              Global Defined In Module
      -----  --------------------------------   ------------------------
     0C:   000005D3  A$fb_app_counter$1151              fb_app_counter
     0C:   000005D3  C$fb_app_counter.c$196$3$13        fb_app_counter
     0C:   000005D4  A$fb_app_counter$1152              fb_app_counter
     0C:   000005D7  A$fb_app_counter$1153              fb_app_counter
     0C:   000005D9  A$fb_app_counter$1154              fb_app_counter
     0C:   000005DB  A$fb_app_counter$1155              fb_app_counter
     0C:   000005DC  A$fb_app_counter$1156              fb_app_counter
     0C:   000005DD  A$fb_app_counter$1160              fb_app_counter
     0C:   000005DD  C$fb_app_counter.c$197$3$13        fb_app_counter
     0C:   000005DF  A$fb_app_counter$1161              fb_app_counter
     0C:   000005E0  A$fb_app_counter$1162              fb_app_counter
     0C:   000005E1  A$fb_app_counter$1163              fb_app_counter
     0C:   000005E2  A$fb_app_counter$1164              fb_app_counter
     0C:   000005E5  A$fb_app_counter$1165              fb_app_counter
     0C:   000005E6  A$fb_app_counter$1166              fb_app_counter
     0C:   000005E8  A$fb_app_counter$1167              fb_app_counter
     0C:   000005EA  A$fb_app_counter$1168              fb_app_counter
     0C:   000005EC  A$fb_app_counter$1169              fb_app_counter
     0C:   000005EE  A$fb_app_counter$1170              fb_app_counter
     0C:   000005F1  A$fb_app_counter$1171              fb_app_counter
     0C:   000005F3  A$fb_app_counter$1172              fb_app_counter
     0C:   000005F5  A$fb_app_counter$1173              fb_app_counter
     0C:   000005F7  A$fb_app_counter$1174              fb_app_counter
     0C:   000005F8  A$fb_app_counter$1175              fb_app_counter
     0C:   000005FA  A$fb_app_counter$1176              fb_app_counter
     0C:   000005FC  A$fb_app_counter$1177              fb_app_counter
     0C:   000005FD  A$fb_app_counter$1178              fb_app_counter
     0C:   000005FE  A$fb_app_counter$1179              fb_app_counter
     0C:   000005FF  A$fb_app_counter$1180              fb_app_counter
     0C:   00000600  A$fb_app_counter$1181              fb_app_counter
     0C:   00000602  A$fb_app_counter$1184              fb_app_counter
     0C:   00000602  C$fb_app_counter.c$198$4$14        fb_app_counter
     0C:   00000603  A$fb_app_counter$1185              fb_app_counter
     0C:   00000604  A$fb_app_counter$1186              fb_app_counter
     0C:   00000607  A$fb_app_counter$1187              fb_app_counter
     0C:   00000608  A$fb_app_counter$1188              fb_app_counter
     0C:   00000609  A$fb_app_counter$1189              fb_app_counter
     0C:   0000060A  A$fb_app_counter$1190              fb_app_counter
     0C:   0000060B  A$fb_app_counter$1191              fb_app_counter
     0C:   0000060D  A$fb_app_counter$1192              fb_app_counter
     0C:   0000060F  A$fb_app_counter$1193              fb_app_counter
     0C:   00000612  A$fb_app_counter$1194              fb_app_counter
     0C:   00000614  A$fb_app_counter$1197              fb_app_counter
     0C:   00000614  C$fb_app_counter.c$199$4$14        fb_app_counter
     0C:   00000615  A$fb_app_counter$1198              fb_app_counter
     0C:   00000617  A$fb_app_counter$1199              fb_app_counter
     0C:   00000618  A$fb_app_counter$1200              fb_app_counter
     0C:   00000619  A$fb_app_counter$1201              fb_app_counter
     0C:   0000061A  A$fb_app_counter$1202              fb_app_counter
     0C:   0000061D  A$fb_app_counter$1203              fb_app_counter
     0C:   00000620  A$fb_app_counter$1204              fb_app_counter
ASxxxx Linker V02.00 + NoICE + sdld,  page 42.
Hexadecimal  [32-Bits]

Area                                    Addr        Size        Decimal Bytes (Attributes)
--------------------------------        ----        ----        ------- ----- ------------
CSEG                                000000A5    00001BC5 =        7109. bytes (REL,CON,CODE)

      Value  Global                              Global Defined In Module
      -----  --------------------------------   ------------------------
     0C:   00000622  A$fb_app_counter$1205              fb_app_counter
     0C:   00000624  A$fb_app_counter$1209              fb_app_counter
     0C:   00000624  C$fb_app_counter.c$202$4$15        fb_app_counter
     0C:   00000625  A$fb_app_counter$1210              fb_app_counter
     0C:   00000626  A$fb_app_counter$1211              fb_app_counter
     0C:   00000629  A$fb_app_counter$1212              fb_app_counter
     0C:   0000062A  A$fb_app_counter$1213              fb_app_counter
     0C:   0000062B  A$fb_app_counter$1214              fb_app_counter
     0C:   0000062C  A$fb_app_counter$1215              fb_app_counter
     0C:   0000062D  A$fb_app_counter$1216              fb_app_counter
     0C:   0000062E  A$fb_app_counter$1217              fb_app_counter
     0C:   0000062F  A$fb_app_counter$1218              fb_app_counter
     0C:   00000631  A$fb_app_counter$1219              fb_app_counter
     0C:   00000633  A$fb_app_counter$1220              fb_app_counter
     0C:   00000636  A$fb_app_counter$1221              fb_app_counter
     0C:   00000638  A$fb_app_counter$1224              fb_app_counter
     0C:   00000638  C$fb_app_counter.c$203$4$15        fb_app_counter
     0C:   00000639  A$fb_app_counter$1225              fb_app_counter
     0C:   0000063B  A$fb_app_counter$1226              fb_app_counter
     0C:   0000063C  A$fb_app_counter$1227              fb_app_counter
     0C:   0000063D  A$fb_app_counter$1228              fb_app_counter
     0C:   0000063E  A$fb_app_counter$1229              fb_app_counter
     0C:   00000641  A$fb_app_counter$1230              fb_app_counter
     0C:   00000643  A$fb_app_counter$1231              fb_app_counter
     0C:   00000644  A$fb_app_counter$1232              fb_app_counter
     0C:   00000645  A$fb_app_counter$1236              fb_app_counter
     0C:   00000645  C$fb_app_counter.c$192$1$1         fb_app_counter
     0C:   00000646  A$fb_app_counter$1237              fb_app_counter
     0C:   00000649  A$fb_app_counter$1241              fb_app_counter
     0C:   00000649  C$fb_app_counter.c$207$1$1         fb_app_counter
     0C:   00000649  XG$delay_timer$0$0                 fb_app_counter
     0C:   0000064A  A$fb_app_counter$1265              fb_app_counter
     0C:   0000064A  C$fb_app_counter.c$213$1$1         fb_app_counter
     0C:   0000064A  G$write_value_req$0$0              fb_app_counter
     0C:   0000064A  _write_value_req                   fb_app_counter
     0C:   0000064C  A$fb_app_counter$1266              fb_app_counter
     0C:   0000064E  A$fb_app_counter$1267              fb_app_counter
     0C:   00000650  A$fb_app_counter$1268              fb_app_counter
     0C:   00000652  A$fb_app_counter$1269              fb_app_counter
     0C:   00000654  A$fb_app_counter$1272              fb_app_counter
     0C:   00000654  C$fb_app_counter.c$215$1$1         fb_app_counter
     0C:   00000656  A$fb_app_counter$1273              fb_app_counter
     0C:   00000658  A$fb_app_counter$1274              fb_app_counter
     0C:   00000659  A$fb_app_counter$1275              fb_app_counter
     0C:   0000065B  A$fb_app_counter$1278              fb_app_counter
     0C:   0000065B  C$fb_app_counter.c$218$1$1         fb_app_counter
     0C:   0000065E  A$fb_app_counter$1279              fb_app_counter
     0C:   0000065F  A$fb_app_counter$1280              fb_app_counter
     0C:   00000660  A$fb_app_counter$1281              fb_app_counter
     0C:   00000661  A$fb_app_counter$1282              fb_app_counter
     0C:   00000664  A$fb_app_counter$1283              fb_app_counter
ASxxxx Linker V02.00 + NoICE + sdld,  page 43.
Hexadecimal  [32-Bits]

Area                                    Addr        Size        Decimal Bytes (Attributes)
--------------------------------        ----        ----        ------- ----- ------------
CSEG                                000000A5    00001BC5 =        7109. bytes (REL,CON,CODE)

      Value  Global                              Global Defined In Module
      -----  --------------------------------   ------------------------
     0C:   00000666  A$fb_app_counter$1285              fb_app_counter
     0C:   00000669  A$fb_app_counter$1287              fb_app_counter
     0C:   0000066C  A$fb_app_counter$1288              fb_app_counter
     0C:   0000066F  A$fb_app_counter$1290              fb_app_counter
     0C:   00000671  A$fb_app_counter$1291              fb_app_counter
     0C:   00000674  A$fb_app_counter$1292              fb_app_counter
     0C:   00000677  A$fb_app_counter$1296              fb_app_counter
     0C:   00000677  C$fb_app_counter.c$219$2$2         fb_app_counter
     0C:   0000067A  A$fb_app_counter$1297              fb_app_counter
     0C:   0000067C  A$fb_app_counter$1298              fb_app_counter
     0C:   0000067F  A$fb_app_counter$1299              fb_app_counter
     0C:   00000681  A$fb_app_counter$1300              fb_app_counter
     0C:   00000683  A$fb_app_counter$1301              fb_app_counter
     0C:   00000685  A$fb_app_counter$1302              fb_app_counter
     0C:   00000686  A$fb_app_counter$1303              fb_app_counter
     0C:   00000687  A$fb_app_counter$1304              fb_app_counter
     0C:   00000689  A$fb_app_counter$1307              fb_app_counter
     0C:   00000689  C$fb_app_counter.c$220$2$2         fb_app_counter
     0C:   0000068B  A$fb_app_counter$1308              fb_app_counter
     0C:   0000068C  A$fb_app_counter$1309              fb_app_counter
     0C:   0000068D  A$fb_app_counter$1310              fb_app_counter
     0C:   00000690  A$fb_app_counter$1311              fb_app_counter
     0C:   00000693  A$fb_app_counter$1315              fb_app_counter
     0C:   00000693  C$fb_app_counter.c$222$3$3         fb_app_counter
     0C:   00000696  A$fb_app_counter$1316              fb_app_counter
     0C:   00000697  A$fb_app_counter$1317              fb_app_counter
     0C:   00000698  A$fb_app_counter$1320              fb_app_counter
     0C:   00000698  C$fb_app_counter.c$223$3$3         fb_app_counter
     0C:   00000699  A$fb_app_counter$1321              fb_app_counter
     0C:   0000069B  A$fb_app_counter$1322              fb_app_counter
     0C:   0000069E  A$fb_app_counter$1323              fb_app_counter
     0C:   0000069F  A$fb_app_counter$1324              fb_app_counter
     0C:   000006A0  A$fb_app_counter$1325              fb_app_counter
     0C:   000006A1  A$fb_app_counter$1326              fb_app_counter
     0C:   000006A3  A$fb_app_counter$1327              fb_app_counter
     0C:   000006A5  A$fb_app_counter$1328              fb_app_counter
     0C:   000006A6  A$fb_app_counter$1329              fb_app_counter
     0C:   000006A8  A$fb_app_counter$1332              fb_app_counter
     0C:   000006A8  C$fb_app_counter.c$225$5$5         fb_app_counter
     0C:   000006AA  A$fb_app_counter$1333              fb_app_counter
     0C:   000006AB  A$fb_app_counter$1334              fb_app_counter
     0C:   000006AC  A$fb_app_counter$1335              fb_app_counter
     0C:   000006AE  A$fb_app_counter$1336              fb_app_counter
     0C:   000006B0  A$fb_app_counter$1337              fb_app_counter
     0C:   000006B1  A$fb_app_counter$1338              fb_app_counter
     0C:   000006B2  A$fb_app_counter$1339              fb_app_counter
     0C:   000006B3  A$fb_app_counter$1340              fb_app_counter
     0C:   000006B4  A$fb_app_counter$1341              fb_app_counter
     0C:   000006B6  A$fb_app_counter$1342              fb_app_counter
     0C:   000006B8  A$fb_app_counter$1343              fb_app_counter
     0C:   000006B9  A$fb_app_counter$1344              fb_app_counter
ASxxxx Linker V02.00 + NoICE + sdld,  page 44.
Hexadecimal  [32-Bits]

Area                                    Addr        Size        Decimal Bytes (Attributes)
--------------------------------        ----        ----        ------- ----- ------------
CSEG                                000000A5    00001BC5 =        7109. bytes (REL,CON,CODE)

      Value  Global                              Global Defined In Module
      -----  --------------------------------   ------------------------
     0C:   000006BB  A$fb_app_counter$1346              fb_app_counter
     0C:   000006BD  A$fb_app_counter$1347              fb_app_counter
     0C:   000006BF  A$fb_app_counter$1348              fb_app_counter
     0C:   000006C0  A$fb_app_counter$1349              fb_app_counter
     0C:   000006C2  A$fb_app_counter$1350              fb_app_counter
     0C:   000006C4  A$fb_app_counter$1351              fb_app_counter
     0C:   000006C5  A$fb_app_counter$1352              fb_app_counter
     0C:   000006C6  A$fb_app_counter$1353              fb_app_counter
     0C:   000006C7  A$fb_app_counter$1354              fb_app_counter
     0C:   000006C8  A$fb_app_counter$1355              fb_app_counter
     0C:   000006CA  A$fb_app_counter$1356              fb_app_counter
     0C:   000006CD  A$fb_app_counter$1360              fb_app_counter
     0C:   000006CD  C$fb_app_counter.c$226$1$1         fb_app_counter
     0C:   000006CF  A$fb_app_counter$1361              fb_app_counter
     0C:   000006D1  A$fb_app_counter$1362              fb_app_counter
     0C:   000006D3  A$fb_app_counter$1363              fb_app_counter
     0C:   000006D4  A$fb_app_counter$1364              fb_app_counter
     0C:   000006D5  A$fb_app_counter$1365              fb_app_counter
     0C:   000006D7  A$fb_app_counter$1366              fb_app_counter
     0C:   000006D8  A$fb_app_counter$1367              fb_app_counter
     0C:   000006DA  A$fb_app_counter$1368              fb_app_counter
     0C:   000006DC  A$fb_app_counter$1369              fb_app_counter
     0C:   000006DD  A$fb_app_counter$1370              fb_app_counter
     0C:   000006DE  A$fb_app_counter$1371              fb_app_counter
     0C:   000006DF  A$fb_app_counter$1372              fb_app_counter
     0C:   000006E2  A$fb_app_counter$1373              fb_app_counter
     0C:   000006E3  A$fb_app_counter$1374              fb_app_counter
     0C:   000006E4  A$fb_app_counter$1377              fb_app_counter
     0C:   000006E4  C$fb_app_counter.c$227$4$4         fb_app_counter
     0C:   000006E6  A$fb_app_counter$1378              fb_app_counter
     0C:   000006E7  A$fb_app_counter$1379              fb_app_counter
     0C:   000006E8  A$fb_app_counter$1380              fb_app_counter
     0C:   000006E9  A$fb_app_counter$1381              fb_app_counter
     0C:   000006EC  A$fb_app_counter$1382              fb_app_counter
     0C:   000006EE  A$fb_app_counter$1384              fb_app_counter
     0C:   000006F0  A$fb_app_counter$1385              fb_app_counter
     0C:   000006F3  A$fb_app_counter$1387              fb_app_counter
     0C:   000006F5  A$fb_app_counter$1390              fb_app_counter
     0C:   000006F5  C$fb_app_counter.c$228$1$1         fb_app_counter
     0C:   000006F6  A$fb_app_counter$1391              fb_app_counter
     0C:   000006F7  A$fb_app_counter$1392              fb_app_counter
     0C:   000006FA  A$fb_app_counter$1393              fb_app_counter
     0C:   000006FB  A$fb_app_counter$1394              fb_app_counter
     0C:   000006FC  A$fb_app_counter$1395              fb_app_counter
     0C:   000006FE  A$fb_app_counter$1396              fb_app_counter
     0C:   000006FF  A$fb_app_counter$1397              fb_app_counter
     0C:   00000701  A$fb_app_counter$1400              fb_app_counter
     0C:   00000701  C$fb_app_counter.c$229$5$5         fb_app_counter
     0C:   00000703  A$fb_app_counter$1401              fb_app_counter
     0C:   00000704  A$fb_app_counter$1402              fb_app_counter
     0C:   00000706  A$fb_app_counter$1403              fb_app_counter
ASxxxx Linker V02.00 + NoICE + sdld,  page 45.
Hexadecimal  [32-Bits]

Area                                    Addr        Size        Decimal Bytes (Attributes)
--------------------------------        ----        ----        ------- ----- ------------
CSEG                                000000A5    00001BC5 =        7109. bytes (REL,CON,CODE)

      Value  Global                              Global Defined In Module
      -----  --------------------------------   ------------------------
     0C:   00000708  A$fb_app_counter$1404              fb_app_counter
     0C:   0000070B  A$fb_app_counter$1405              fb_app_counter
     0C:   0000070D  A$fb_app_counter$1406              fb_app_counter
     0C:   0000070F  A$fb_app_counter$1407              fb_app_counter
     0C:   00000711  A$fb_app_counter$1410              fb_app_counter
     0C:   00000711  C$fb_app_counter.c$230$5$5         fb_app_counter
     0C:   00000714  A$fb_app_counter$1411              fb_app_counter
     0C:   00000715  A$fb_app_counter$1412              fb_app_counter
     0C:   00000716  A$fb_app_counter$1413              fb_app_counter
     0C:   00000717  A$fb_app_counter$1414              fb_app_counter
     0C:   00000719  A$fb_app_counter$1415              fb_app_counter
     0C:   0000071A  A$fb_app_counter$1416              fb_app_counter
     0C:   0000071B  A$fb_app_counter$1417              fb_app_counter
     0C:   0000071E  A$fb_app_counter$1418              fb_app_counter
     0C:   0000071F  A$fb_app_counter$1419              fb_app_counter
     0C:   00000720  A$fb_app_counter$1420              fb_app_counter
     0C:   00000722  A$fb_app_counter$1421              fb_app_counter
     0C:   00000725  A$fb_app_counter$1422              fb_app_counter
     0C:   00000726  A$fb_app_counter$1423              fb_app_counter
     0C:   00000727  A$fb_app_counter$1426              fb_app_counter
     0C:   00000727  C$fb_app_counter.c$232$5$5         fb_app_counter
     0C:   00000729  A$fb_app_counter$1427              fb_app_counter
     0C:   0000072A  A$fb_app_counter$1428              fb_app_counter
     0C:   0000072B  A$fb_app_counter$1429              fb_app_counter
     0C:   0000072E  A$fb_app_counter$1430              fb_app_counter
     0C:   00000730  A$fb_app_counter$1432              fb_app_counter
     0C:   00000733  A$fb_app_counter$1436              fb_app_counter
     0C:   00000733  C$fb_app_counter.c$233$6$6         fb_app_counter
     0C:   00000735  A$fb_app_counter$1437              fb_app_counter
     0C:   00000736  A$fb_app_counter$1438              fb_app_counter
     0C:   00000739  A$fb_app_counter$1440              fb_app_counter
     0C:   0000073B  A$fb_app_counter$1441              fb_app_counter
     0C:   0000073E  A$fb_app_counter$1445              fb_app_counter
     0C:   0000073E  C$fb_app_counter.c$234$7$7         fb_app_counter
     0C:   0000073F  A$fb_app_counter$1446              fb_app_counter
     0C:   00000741  A$fb_app_counter$1447              fb_app_counter
     0C:   00000743  A$fb_app_counter$1450              fb_app_counter
     0C:   00000743  C$fb_app_counter.c$235$1$1         fb_app_counter
     0C:   00000745  A$fb_app_counter$1451              fb_app_counter
     0C:   00000747  A$fb_app_counter$1452              fb_app_counter
     0C:   00000749  A$fb_app_counter$1453              fb_app_counter
     0C:   0000074A  A$fb_app_counter$1454              fb_app_counter
     0C:   0000074C  A$fb_app_counter$1455              fb_app_counter
     0C:   0000074E  A$fb_app_counter$1456              fb_app_counter
     0C:   0000074F  A$fb_app_counter$1459              fb_app_counter
     0C:   0000074F  C$fb_app_counter.c$236$8$8         fb_app_counter
     0C:   00000751  A$fb_app_counter$1460              fb_app_counter
     0C:   00000753  A$fb_app_counter$1461              fb_app_counter
     0C:   00000754  A$fb_app_counter$1462              fb_app_counter
     0C:   00000756  A$fb_app_counter$1463              fb_app_counter
     0C:   00000758  A$fb_app_counter$1464              fb_app_counter
ASxxxx Linker V02.00 + NoICE + sdld,  page 46.
Hexadecimal  [32-Bits]

Area                                    Addr        Size        Decimal Bytes (Attributes)
--------------------------------        ----        ----        ------- ----- ------------
CSEG                                000000A5    00001BC5 =        7109. bytes (REL,CON,CODE)

      Value  Global                              Global Defined In Module
      -----  --------------------------------   ------------------------
     0C:   0000075A  A$fb_app_counter$1465              fb_app_counter
     0C:   0000075C  A$fb_app_counter$1466              fb_app_counter
     0C:   0000075E  A$fb_app_counter$1467              fb_app_counter
     0C:   00000760  A$fb_app_counter$1468              fb_app_counter
     0C:   00000762  A$fb_app_counter$1469              fb_app_counter
     0C:   00000764  A$fb_app_counter$1470              fb_app_counter
     0C:   00000766  A$fb_app_counter$1471              fb_app_counter
     0C:   00000768  A$fb_app_counter$1472              fb_app_counter
     0C:   0000076A  A$fb_app_counter$1473              fb_app_counter
     0C:   0000076B  A$fb_app_counter$1474              fb_app_counter
     0C:   0000076D  A$fb_app_counter$1475              fb_app_counter
     0C:   00000770  A$fb_app_counter$1476              fb_app_counter
     0C:   00000772  A$fb_app_counter$1477              fb_app_counter
     0C:   00000774  A$fb_app_counter$1478              fb_app_counter
     0C:   00000776  A$fb_app_counter$1479              fb_app_counter
     0C:   00000778  A$fb_app_counter$1480              fb_app_counter
     0C:   0000077A  A$fb_app_counter$1483              fb_app_counter
     0C:   0000077C  A$fb_app_counter$1489              fb_app_counter
     0C:   0000077C  C$fb_app_counter.c$236$7$7         fb_app_counter
     0C:   0000077C  C$fb_app_counter.c$238$7$7         fb_app_counter
     0C:   0000077E  A$fb_app_counter$1490              fb_app_counter
     0C:   0000077F  A$fb_app_counter$1491              fb_app_counter
     0C:   00000782  A$fb_app_counter$1492              fb_app_counter
     0C:   00000784  A$fb_app_counter$1493              fb_app_counter
     0C:   00000787  A$fb_app_counter$1497              fb_app_counter
     0C:   00000787  C$fb_app_counter.c$239$7$7         fb_app_counter
     0C:   00000789  A$fb_app_counter$1498              fb_app_counter
     0C:   0000078A  A$fb_app_counter$1499              fb_app_counter
     0C:   0000078D  A$fb_app_counter$1500              fb_app_counter
     0C:   0000078F  A$fb_app_counter$1501              fb_app_counter
     0C:   00000792  A$fb_app_counter$1505              fb_app_counter
     0C:   00000792  C$fb_app_counter.c$240$7$7         fb_app_counter
     0C:   00000794  A$fb_app_counter$1506              fb_app_counter
     0C:   00000795  A$fb_app_counter$1507              fb_app_counter
     0C:   00000798  A$fb_app_counter$1508              fb_app_counter
     0C:   0000079A  A$fb_app_counter$1509              fb_app_counter
     0C:   0000079D  A$fb_app_counter$1513              fb_app_counter
     0C:   0000079D  C$fb_app_counter.c$241$7$7         fb_app_counter
     0C:   0000079F  A$fb_app_counter$1514              fb_app_counter
     0C:   000007A0  A$fb_app_counter$1515              fb_app_counter
     0C:   000007A3  A$fb_app_counter$1516              fb_app_counter
     0C:   000007A5  A$fb_app_counter$1518              fb_app_counter
     0C:   000007A8  A$fb_app_counter$1520              fb_app_counter
     0C:   000007AA  A$fb_app_counter$1521              fb_app_counter
     0C:   000007AD  A$fb_app_counter$1522              fb_app_counter
     0C:   000007B0  A$fb_app_counter$1527              fb_app_counter
     0C:   000007B3  A$fb_app_counter$1528              fb_app_counter
     0C:   000007B5  A$fb_app_counter$1529              fb_app_counter
     0C:   000007B7  A$fb_app_counter$1530              fb_app_counter
     0C:   000007B9  A$fb_app_counter$1531              fb_app_counter
     0C:   000007BB  A$fb_app_counter$1532              fb_app_counter
ASxxxx Linker V02.00 + NoICE + sdld,  page 47.
Hexadecimal  [32-Bits]

Area                                    Addr        Size        Decimal Bytes (Attributes)
--------------------------------        ----        ----        ------- ----- ------------
CSEG                                000000A5    00001BC5 =        7109. bytes (REL,CON,CODE)

      Value  Global                              Global Defined In Module
      -----  --------------------------------   ------------------------
     0C:   000007BD  A$fb_app_counter$1533              fb_app_counter
     0C:   000007BE  A$fb_app_counter$1534              fb_app_counter
     0C:   000007BF  A$fb_app_counter$1535              fb_app_counter
     0C:   000007C0  A$fb_app_counter$1536              fb_app_counter
     0C:   000007C1  A$fb_app_counter$1537              fb_app_counter
     0C:   000007C2  A$fb_app_counter$1538              fb_app_counter
     0C:   000007C3  A$fb_app_counter$1539              fb_app_counter
     0C:   000007C4  A$fb_app_counter$1540              fb_app_counter
     0C:   000007C6  A$fb_app_counter$1541              fb_app_counter
     0C:   000007C7  A$fb_app_counter$1542              fb_app_counter
     0C:   000007C8  A$fb_app_counter$1543              fb_app_counter
     0C:   000007CA  A$fb_app_counter$1544              fb_app_counter
     0C:   000007CC  A$fb_app_counter$1545              fb_app_counter
     0C:   000007CE  A$fb_app_counter$1546              fb_app_counter
     0C:   000007D0  A$fb_app_counter$1547              fb_app_counter
     0C:   000007D2  A$fb_app_counter$1548              fb_app_counter
     0C:   000007D4  A$fb_app_counter$1549              fb_app_counter
     0C:   000007D6  A$fb_app_counter$1550              fb_app_counter
     0C:   000007D7  A$fb_app_counter$1551              fb_app_counter
     0C:   000007D9  A$fb_app_counter$1552              fb_app_counter
     0C:   000007DC  A$fb_app_counter$1553              fb_app_counter
     0C:   000007DE  A$fb_app_counter$1554              fb_app_counter
     0C:   000007E0  A$fb_app_counter$1555              fb_app_counter
     0C:   000007E2  A$fb_app_counter$1556              fb_app_counter
     0C:   000007E4  A$fb_app_counter$1557              fb_app_counter
     0C:   000007E6  A$fb_app_counter$1560              fb_app_counter
     0C:   000007E8  A$fb_app_counter$1566              fb_app_counter
     0C:   000007E8  C$fb_app_counter.c$243$8$9         fb_app_counter
     0C:   000007E8  C$fb_app_counter.c$245$8$9         fb_app_counter
     0C:   000007EB  A$fb_app_counter$1567              fb_app_counter
     0C:   000007ED  A$fb_app_counter$1568              fb_app_counter
     0C:   000007EF  A$fb_app_counter$1569              fb_app_counter
     0C:   000007F1  A$fb_app_counter$1570              fb_app_counter
     0C:   000007F3  A$fb_app_counter$1571              fb_app_counter
     0C:   000007F5  A$fb_app_counter$1572              fb_app_counter
     0C:   000007F6  A$fb_app_counter$1573              fb_app_counter
     0C:   000007F8  A$fb_app_counter$1574              fb_app_counter
     0C:   000007F9  A$fb_app_counter$1575              fb_app_counter
     0C:   000007FB  A$fb_app_counter$1576              fb_app_counter
     0C:   000007FD  A$fb_app_counter$1577              fb_app_counter
     0C:   000007FF  A$fb_app_counter$1578              fb_app_counter
     0C:   00000801  A$fb_app_counter$1579              fb_app_counter
     0C:   00000803  A$fb_app_counter$1580              fb_app_counter
     0C:   00000804  A$fb_app_counter$1581              fb_app_counter
     0C:   00000806  A$fb_app_counter$1582              fb_app_counter
     0C:   00000807  A$fb_app_counter$1583              fb_app_counter
     0C:   00000809  A$fb_app_counter$1584              fb_app_counter
     0C:   0000080A  A$fb_app_counter$1585              fb_app_counter
     0C:   0000080B  A$fb_app_counter$1586              fb_app_counter
     0C:   0000080D  A$fb_app_counter$1587              fb_app_counter
     0C:   0000080F  A$fb_app_counter$1588              fb_app_counter
ASxxxx Linker V02.00 + NoICE + sdld,  page 48.
Hexadecimal  [32-Bits]

Area                                    Addr        Size        Decimal Bytes (Attributes)
--------------------------------        ----        ----        ------- ----- ------------
CSEG                                000000A5    00001BC5 =        7109. bytes (REL,CON,CODE)

      Value  Global                              Global Defined In Module
      -----  --------------------------------   ------------------------
     0C:   00000811  A$fb_app_counter$1589              fb_app_counter
     0C:   00000812  A$fb_app_counter$1590              fb_app_counter
     0C:   00000813  A$fb_app_counter$1591              fb_app_counter
     0C:   00000814  A$fb_app_counter$1592              fb_app_counter
     0C:   00000815  A$fb_app_counter$1593              fb_app_counter
     0C:   00000817  A$fb_app_counter$1594              fb_app_counter
     0C:   00000818  A$fb_app_counter$1595              fb_app_counter
     0C:   0000081A  A$fb_app_counter$1596              fb_app_counter
     0C:   0000081B  A$fb_app_counter$1597              fb_app_counter
     0C:   0000081D  A$fb_app_counter$1598              fb_app_counter
     0C:   0000081E  A$fb_app_counter$1599              fb_app_counter
     0C:   00000820  A$fb_app_counter$1600              fb_app_counter
     0C:   00000822  A$fb_app_counter$1601              fb_app_counter
     0C:   00000824  A$fb_app_counter$1602              fb_app_counter
     0C:   00000825  A$fb_app_counter$1603              fb_app_counter
     0C:   00000826  A$fb_app_counter$1604              fb_app_counter
     0C:   00000827  A$fb_app_counter$1605              fb_app_counter
     0C:   00000829  A$fb_app_counter$1606              fb_app_counter
     0C:   0000082B  A$fb_app_counter$1607              fb_app_counter
     0C:   0000082C  A$fb_app_counter$1608              fb_app_counter
     0C:   0000082D  A$fb_app_counter$1609              fb_app_counter
     0C:   0000082F  A$fb_app_counter$1610              fb_app_counter
     0C:   00000830  A$fb_app_counter$1611              fb_app_counter
     0C:   00000831  A$fb_app_counter$1612              fb_app_counter
     0C:   00000833  A$fb_app_counter$1613              fb_app_counter
     0C:   00000834  A$fb_app_counter$1614              fb_app_counter
     0C:   00000835  A$fb_app_counter$1615              fb_app_counter
     0C:   00000837  A$fb_app_counter$1616              fb_app_counter
     0C:   00000838  A$fb_app_counter$1617              fb_app_counter
     0C:   00000839  A$fb_app_counter$1618              fb_app_counter
     0C:   0000083B  A$fb_app_counter$1619              fb_app_counter
     0C:   0000083D  A$fb_app_counter$1620              fb_app_counter
     0C:   0000083F  A$fb_app_counter$1621              fb_app_counter
     0C:   00000841  A$fb_app_counter$1622              fb_app_counter
     0C:   00000843  A$fb_app_counter$1623              fb_app_counter
     0C:   00000845  A$fb_app_counter$1624              fb_app_counter
     0C:   00000847  A$fb_app_counter$1625              fb_app_counter
     0C:   00000848  A$fb_app_counter$1626              fb_app_counter
     0C:   0000084A  A$fb_app_counter$1627              fb_app_counter
     0C:   0000084D  A$fb_app_counter$1628              fb_app_counter
     0C:   0000084F  A$fb_app_counter$1629              fb_app_counter
     0C:   00000851  A$fb_app_counter$1630              fb_app_counter
     0C:   00000853  A$fb_app_counter$1631              fb_app_counter
     0C:   00000855  A$fb_app_counter$1634              fb_app_counter
     0C:   00000855  C$fb_app_counter.c$225$1$1         fb_app_counter
     0C:   00000857  A$fb_app_counter$1640              fb_app_counter
     0C:   00000857  C$fb_app_counter.c$245$7$7         fb_app_counter
     0C:   00000857  C$fb_app_counter.c$247$7$7         fb_app_counter
     0C:   00000859  A$fb_app_counter$1641              fb_app_counter
     0C:   0000085B  A$fb_app_counter$1642              fb_app_counter
     0C:   0000085C  A$fb_app_counter$1643              fb_app_counter
ASxxxx Linker V02.00 + NoICE + sdld,  page 49.
Hexadecimal  [32-Bits]

Area                                    Addr        Size        Decimal Bytes (Attributes)
--------------------------------        ----        ----        ------- ----- ------------
CSEG                                000000A5    00001BC5 =        7109. bytes (REL,CON,CODE)

      Value  Global                              Global Defined In Module
      -----  --------------------------------   ------------------------
     0C:   0000085D  A$fb_app_counter$1644              fb_app_counter
     0C:   0000085F  A$fb_app_counter$1645              fb_app_counter
     0C:   00000862  A$fb_app_counter$1649              fb_app_counter
     0C:   00000862  C$fb_app_counter.c$248$8$10        fb_app_counter
     0C:   00000864  A$fb_app_counter$1650              fb_app_counter
     0C:   00000865  A$fb_app_counter$1651              fb_app_counter
     0C:   00000868  A$fb_app_counter$1652              fb_app_counter
     0C:   0000086B  A$fb_app_counter$1653              fb_app_counter
     0C:   0000086D  A$fb_app_counter$1654              fb_app_counter
     0C:   00000870  A$fb_app_counter$1655              fb_app_counter
     0C:   00000872  A$fb_app_counter$1659              fb_app_counter
     0C:   00000872  C$fb_app_counter.c$249$8$10        fb_app_counter
     0C:   00000874  A$fb_app_counter$1660              fb_app_counter
     0C:   00000875  A$fb_app_counter$1661              fb_app_counter
     0C:   00000878  A$fb_app_counter$1662              fb_app_counter
     0C:   0000087B  A$fb_app_counter$1663              fb_app_counter
     0C:   0000087D  A$fb_app_counter$1664              fb_app_counter
     0C:   00000880  A$fb_app_counter$1665              fb_app_counter
     0C:   00000882  A$fb_app_counter$1669              fb_app_counter
     0C:   00000882  C$fb_app_counter.c$250$8$10        fb_app_counter
     0C:   00000884  A$fb_app_counter$1670              fb_app_counter
     0C:   00000885  A$fb_app_counter$1671              fb_app_counter
     0C:   00000888  A$fb_app_counter$1672              fb_app_counter
     0C:   0000088B  A$fb_app_counter$1673              fb_app_counter
     0C:   0000088D  A$fb_app_counter$1674              fb_app_counter
     0C:   00000890  A$fb_app_counter$1675              fb_app_counter
     0C:   00000892  A$fb_app_counter$1679              fb_app_counter
     0C:   00000892  C$fb_app_counter.c$251$8$10        fb_app_counter
     0C:   00000894  A$fb_app_counter$1680              fb_app_counter
     0C:   00000895  A$fb_app_counter$1681              fb_app_counter
     0C:   00000898  A$fb_app_counter$1682              fb_app_counter
     0C:   0000089B  A$fb_app_counter$1683              fb_app_counter
     0C:   0000089D  A$fb_app_counter$1684              fb_app_counter
     0C:   000008A0  A$fb_app_counter$1685              fb_app_counter
     0C:   000008A2  A$fb_app_counter$1689              fb_app_counter
     0C:   000008A2  C$fb_app_counter.c$252$8$10        fb_app_counter
     0C:   000008A4  A$fb_app_counter$1690              fb_app_counter
     0C:   000008A5  A$fb_app_counter$1691              fb_app_counter
     0C:   000008A8  A$fb_app_counter$1692              fb_app_counter
     0C:   000008AA  A$fb_app_counter$1693              fb_app_counter
     0C:   000008AB  A$fb_app_counter$1694              fb_app_counter
     0C:   000008AD  A$fb_app_counter$1695              fb_app_counter
     0C:   000008AF  A$fb_app_counter$1696              fb_app_counter
     0C:   000008B1  A$fb_app_counter$1697              fb_app_counter
     0C:   000008B3  A$fb_app_counter$1698              fb_app_counter
     0C:   000008B6  A$fb_app_counter$1699              fb_app_counter
     0C:   000008B9  A$fb_app_counter$1700              fb_app_counter
     0C:   000008BB  A$fb_app_counter$1701              fb_app_counter
     0C:   000008BD  A$fb_app_counter$1702              fb_app_counter
     0C:   000008BF  A$fb_app_counter$1703              fb_app_counter
     0C:   000008C1  A$fb_app_counter$1707              fb_app_counter
ASxxxx Linker V02.00 + NoICE + sdld,  page 50.
Hexadecimal  [32-Bits]

Area                                    Addr        Size        Decimal Bytes (Attributes)
--------------------------------        ----        ----        ------- ----- ------------
CSEG                                000000A5    00001BC5 =        7109. bytes (REL,CON,CODE)

      Value  Global                              Global Defined In Module
      -----  --------------------------------   ------------------------
     0C:   000008C1  C$fb_app_counter.c$253$8$10        fb_app_counter
     0C:   000008C3  A$fb_app_counter$1708              fb_app_counter
     0C:   000008C4  A$fb_app_counter$1709              fb_app_counter
     0C:   000008C7  A$fb_app_counter$1710              fb_app_counter
     0C:   000008C9  A$fb_app_counter$1711              fb_app_counter
     0C:   000008CA  A$fb_app_counter$1712              fb_app_counter
     0C:   000008CC  A$fb_app_counter$1713              fb_app_counter
     0C:   000008CE  A$fb_app_counter$1714              fb_app_counter
     0C:   000008D0  A$fb_app_counter$1715              fb_app_counter
     0C:   000008D2  A$fb_app_counter$1716              fb_app_counter
     0C:   000008D5  A$fb_app_counter$1717              fb_app_counter
     0C:   000008D8  A$fb_app_counter$1718              fb_app_counter
     0C:   000008DA  A$fb_app_counter$1719              fb_app_counter
     0C:   000008DC  A$fb_app_counter$1720              fb_app_counter
     0C:   000008DE  A$fb_app_counter$1721              fb_app_counter
     0C:   000008E0  A$fb_app_counter$1725              fb_app_counter
     0C:   000008E0  C$fb_app_counter.c$254$8$10        fb_app_counter
     0C:   000008E2  A$fb_app_counter$1726              fb_app_counter
     0C:   000008E3  A$fb_app_counter$1727              fb_app_counter
     0C:   000008E6  A$fb_app_counter$1728              fb_app_counter
     0C:   000008E8  A$fb_app_counter$1729              fb_app_counter
     0C:   000008E9  A$fb_app_counter$1730              fb_app_counter
     0C:   000008EB  A$fb_app_counter$1731              fb_app_counter
     0C:   000008ED  A$fb_app_counter$1732              fb_app_counter
     0C:   000008EF  A$fb_app_counter$1733              fb_app_counter
     0C:   000008F1  A$fb_app_counter$1734              fb_app_counter
     0C:   000008F4  A$fb_app_counter$1735              fb_app_counter
     0C:   000008F7  A$fb_app_counter$1736              fb_app_counter
     0C:   000008F9  A$fb_app_counter$1737              fb_app_counter
     0C:   000008FB  A$fb_app_counter$1738              fb_app_counter
     0C:   000008FD  A$fb_app_counter$1739              fb_app_counter
     0C:   000008FF  A$fb_app_counter$1743              fb_app_counter
     0C:   000008FF  C$fb_app_counter.c$255$8$10        fb_app_counter
     0C:   00000901  A$fb_app_counter$1744              fb_app_counter
     0C:   00000902  A$fb_app_counter$1745              fb_app_counter
     0C:   00000905  A$fb_app_counter$1746              fb_app_counter
     0C:   00000907  A$fb_app_counter$1747              fb_app_counter
     0C:   00000908  A$fb_app_counter$1748              fb_app_counter
     0C:   0000090A  A$fb_app_counter$1749              fb_app_counter
     0C:   0000090C  A$fb_app_counter$1750              fb_app_counter
     0C:   0000090E  A$fb_app_counter$1751              fb_app_counter
     0C:   00000910  A$fb_app_counter$1752              fb_app_counter
     0C:   00000913  A$fb_app_counter$1753              fb_app_counter
     0C:   00000916  A$fb_app_counter$1754              fb_app_counter
     0C:   00000918  A$fb_app_counter$1755              fb_app_counter
     0C:   0000091A  A$fb_app_counter$1756              fb_app_counter
     0C:   0000091C  A$fb_app_counter$1757              fb_app_counter
     0C:   0000091E  A$fb_app_counter$1761              fb_app_counter
     0C:   0000091E  C$fb_app_counter.c$225$3$3         fb_app_counter
     0C:   00000920  A$fb_app_counter$1762              fb_app_counter
     0C:   00000922  A$fb_app_counter$1763              fb_app_counter
ASxxxx Linker V02.00 + NoICE + sdld,  page 51.
Hexadecimal  [32-Bits]

Area                                    Addr        Size        Decimal Bytes (Attributes)
--------------------------------        ----        ----        ------- ----- ------------
CSEG                                000000A5    00001BC5 =        7109. bytes (REL,CON,CODE)

      Value  Global                              Global Defined In Module
      -----  --------------------------------   ------------------------
     0C:   00000923  A$fb_app_counter$1764              fb_app_counter
     0C:   00000924  A$fb_app_counter$1765              fb_app_counter
     0C:   00000927  A$fb_app_counter$1767              fb_app_counter
     0C:   0000092A  A$fb_app_counter$1768              fb_app_counter
     0C:   0000092C  A$fb_app_counter$1771              fb_app_counter
     0C:   0000092C  C$fb_app_counter.c$263$1$1         fb_app_counter
     0C:   0000092C  XG$write_value_req$0$0             fb_app_counter
     0C:   0000092D  A$fb_app_counter$1793              fb_app_counter
     0C:   0000092D  C$fb_app_counter.c$265$1$1         fb_app_counter
     0C:   0000092D  G$checklevel$0$0                   fb_app_counter
     0C:   0000092D  _checklevel                        fb_app_counter
     0C:   0000092F  A$fb_app_counter$1794              fb_app_counter
     0C:   00000931  A$fb_app_counter$1795              fb_app_counter
     0C:   00000933  A$fb_app_counter$1796              fb_app_counter
     0C:   00000935  A$fb_app_counter$1797              fb_app_counter
     0C:   00000937  A$fb_app_counter$1798              fb_app_counter
     0C:   00000939  A$fb_app_counter$1801              fb_app_counter
     0C:   00000939  C$fb_app_counter.c$273$3$4         fb_app_counter
     0C:   0000093B  A$fb_app_counter$1802              fb_app_counter
     0C:   0000093C  A$fb_app_counter$1803              fb_app_counter
     0C:   0000093D  A$fb_app_counter$1804              fb_app_counter
     0C:   00000940  A$fb_app_counter$1805              fb_app_counter
     0C:   00000942  A$fb_app_counter$1807              fb_app_counter
     0C:   00000943  A$fb_app_counter$1808              fb_app_counter
     0C:   00000945  A$fb_app_counter$1809              fb_app_counter
     0C:   00000947  A$fb_app_counter$1810              fb_app_counter
     0C:   0000094A  A$fb_app_counter$1814              fb_app_counter
     0C:   0000094A  C$fb_app_counter.c$274$2$2         fb_app_counter
     0C:   0000094C  A$fb_app_counter$1817              fb_app_counter
     0C:   0000094C  C$fb_app_counter.c$275$2$2         fb_app_counter
     0C:   0000094D  A$fb_app_counter$1818              fb_app_counter
     0C:   00000950  A$fb_app_counter$1821              fb_app_counter
     0C:   00000950  C$fb_app_counter.c$276$3$3         fb_app_counter
     0C:   00000952  A$fb_app_counter$1822              fb_app_counter
     0C:   00000953  A$fb_app_counter$1823              fb_app_counter
     0C:   00000954  A$fb_app_counter$1824              fb_app_counter
     0C:   00000956  A$fb_app_counter$1827              fb_app_counter
     0C:   00000956  C$fb_app_counter.c$277$3$3         fb_app_counter
     0C:   00000958  A$fb_app_counter$1830              fb_app_counter
     0C:   00000958  C$fb_app_counter.c$278$3$3         fb_app_counter
     0C:   0000095A  A$fb_app_counter$1833              fb_app_counter
     0C:   0000095A  C$fb_app_counter.c$279$3$3         fb_app_counter
     0C:   0000095C  A$fb_app_counter$1834              fb_app_counter
     0C:   0000095E  A$fb_app_counter$1835              fb_app_counter
     0C:   0000095F  A$fb_app_counter$1836              fb_app_counter
     0C:   00000961  A$fb_app_counter$1839              fb_app_counter
     0C:   00000961  C$fb_app_counter.c$280$3$3         fb_app_counter
     0C:   00000962  A$fb_app_counter$1840              fb_app_counter
     0C:   00000964  A$fb_app_counter$1841              fb_app_counter
     0C:   00000966  A$fb_app_counter$1842              fb_app_counter
     0C:   00000968  A$fb_app_counter$1846              fb_app_counter
ASxxxx Linker V02.00 + NoICE + sdld,  page 52.
Hexadecimal  [32-Bits]

Area                                    Addr        Size        Decimal Bytes (Attributes)
--------------------------------        ----        ----        ------- ----- ------------
CSEG                                000000A5    00001BC5 =        7109. bytes (REL,CON,CODE)

      Value  Global                              Global Defined In Module
      -----  --------------------------------   ------------------------
     0C:   00000968  C$fb_app_counter.c$283$3$4         fb_app_counter
     0C:   0000096A  A$fb_app_counter$1847              fb_app_counter
     0C:   0000096B  A$fb_app_counter$1848              fb_app_counter
     0C:   0000096C  A$fb_app_counter$1849              fb_app_counter
     0C:   0000096E  A$fb_app_counter$1852              fb_app_counter
     0C:   0000096E  C$fb_app_counter.c$284$3$4         fb_app_counter
     0C:   00000970  A$fb_app_counter$1855              fb_app_counter
     0C:   00000970  C$fb_app_counter.c$285$3$4         fb_app_counter
     0C:   00000972  A$fb_app_counter$1858              fb_app_counter
     0C:   00000972  C$fb_app_counter.c$286$3$4         fb_app_counter
     0C:   00000974  A$fb_app_counter$1859              fb_app_counter
     0C:   00000976  A$fb_app_counter$1860              fb_app_counter
     0C:   00000977  A$fb_app_counter$1861              fb_app_counter
     0C:   00000979  A$fb_app_counter$1864              fb_app_counter
     0C:   00000979  C$fb_app_counter.c$287$3$4         fb_app_counter
     0C:   0000097A  A$fb_app_counter$1865              fb_app_counter
     0C:   0000097C  A$fb_app_counter$1866              fb_app_counter
     0C:   0000097E  A$fb_app_counter$1870              fb_app_counter
     0C:   0000097E  C$fb_app_counter.c$289$2$2         fb_app_counter
     0C:   0000097F  A$fb_app_counter$1871              fb_app_counter
     0C:   00000982  A$fb_app_counter$1874              fb_app_counter
     0C:   00000982  C$fb_app_counter.c$290$3$5         fb_app_counter
     0C:   00000984  A$fb_app_counter$1875              fb_app_counter
     0C:   00000985  A$fb_app_counter$1876              fb_app_counter
     0C:   00000986  A$fb_app_counter$1877              fb_app_counter
     0C:   00000987  A$fb_app_counter$1880              fb_app_counter
     0C:   00000987  C$fb_app_counter.c$291$3$5         fb_app_counter
     0C:   00000988  A$fb_app_counter$1883              fb_app_counter
     0C:   00000988  C$fb_app_counter.c$292$3$5         fb_app_counter
     0C:   00000989  A$fb_app_counter$1884              fb_app_counter
     0C:   0000098B  A$fb_app_counter$1885              fb_app_counter
     0C:   0000098C  A$fb_app_counter$1888              fb_app_counter
     0C:   0000098C  C$fb_app_counter.c$293$3$5         fb_app_counter
     0C:   0000098E  A$fb_app_counter$1889              fb_app_counter
     0C:   00000990  A$fb_app_counter$1890              fb_app_counter
     0C:   00000991  A$fb_app_counter$1891              fb_app_counter
     0C:   00000992  A$fb_app_counter$1892              fb_app_counter
     0C:   00000993  A$fb_app_counter$1895              fb_app_counter
     0C:   00000993  C$fb_app_counter.c$294$3$5         fb_app_counter
     0C:   00000994  A$fb_app_counter$1896              fb_app_counter
     0C:   00000996  A$fb_app_counter$1897              fb_app_counter
     0C:   00000998  A$fb_app_counter$1898              fb_app_counter
     0C:   0000099A  A$fb_app_counter$1902              fb_app_counter
     0C:   0000099A  C$fb_app_counter.c$297$3$6         fb_app_counter
     0C:   0000099B  A$fb_app_counter$1903              fb_app_counter
     0C:   0000099D  A$fb_app_counter$1904              fb_app_counter
     0C:   0000099F  A$fb_app_counter$1908              fb_app_counter
     0C:   0000099F  C$fb_app_counter.c$300$1$1         fb_app_counter
     0C:   000009A1  A$fb_app_counter$1909              fb_app_counter
     0C:   000009A3  A$fb_app_counter$1910              fb_app_counter
     0C:   000009A6  A$fb_app_counter$1911              fb_app_counter
ASxxxx Linker V02.00 + NoICE + sdld,  page 53.
Hexadecimal  [32-Bits]

Area                                    Addr        Size        Decimal Bytes (Attributes)
--------------------------------        ----        ----        ------- ----- ------------
CSEG                                000000A5    00001BC5 =        7109. bytes (REL,CON,CODE)

      Value  Global                              Global Defined In Module
      -----  --------------------------------   ------------------------
     0C:   000009A7  A$fb_app_counter$1912              fb_app_counter
     0C:   000009A8  A$fb_app_counter$1913              fb_app_counter
     0C:   000009A9  A$fb_app_counter$1914              fb_app_counter
     0C:   000009AB  A$fb_app_counter$1915              fb_app_counter
     0C:   000009AC  A$fb_app_counter$1916              fb_app_counter
     0C:   000009AE  A$fb_app_counter$1919              fb_app_counter
     0C:   000009AE  C$fb_app_counter.c$301$2$2         fb_app_counter
     0C:   000009AF  A$fb_app_counter$1920              fb_app_counter
     0C:   000009B1  A$fb_app_counter$1921              fb_app_counter
     0C:   000009B4  A$fb_app_counter$1924              fb_app_counter
     0C:   000009B4  C$fb_app_counter.c$302$3$7         fb_app_counter
     0C:   000009B6  A$fb_app_counter$1925              fb_app_counter
     0C:   000009B7  A$fb_app_counter$1926              fb_app_counter
     0C:   000009B8  A$fb_app_counter$1927              fb_app_counter
     0C:   000009B9  A$fb_app_counter$1928              fb_app_counter
     0C:   000009BB  A$fb_app_counter$1929              fb_app_counter
     0C:   000009BC  A$fb_app_counter$1932              fb_app_counter
     0C:   000009BC  C$fb_app_counter.c$303$3$7         fb_app_counter
     0C:   000009BD  A$fb_app_counter$1933              fb_app_counter
     0C:   000009BE  A$fb_app_counter$1936              fb_app_counter
     0C:   000009BE  C$fb_app_counter.c$304$3$7         fb_app_counter
     0C:   000009C0  A$fb_app_counter$1937              fb_app_counter
     0C:   000009C2  A$fb_app_counter$1938              fb_app_counter
     0C:   000009C3  A$fb_app_counter$1939              fb_app_counter
     0C:   000009C4  A$fb_app_counter$1943              fb_app_counter
     0C:   000009C4  C$fb_app_counter.c$307$1$1         fb_app_counter
     0C:   000009C6  A$fb_app_counter$1944              fb_app_counter
     0C:   000009C8  A$fb_app_counter$1945              fb_app_counter
     0C:   000009CB  A$fb_app_counter$1946              fb_app_counter
     0C:   000009CC  A$fb_app_counter$1947              fb_app_counter
     0C:   000009CD  A$fb_app_counter$1948              fb_app_counter
     0C:   000009CE  A$fb_app_counter$1949              fb_app_counter
     0C:   000009D0  A$fb_app_counter$1950              fb_app_counter
     0C:   000009D1  A$fb_app_counter$1951              fb_app_counter
     0C:   000009D2  A$fb_app_counter$1952              fb_app_counter
     0C:   000009D5  A$fb_app_counter$1953              fb_app_counter
     0C:   000009D6  A$fb_app_counter$1954              fb_app_counter
     0C:   000009D8  A$fb_app_counter$1955              fb_app_counter
     0C:   000009D9  A$fb_app_counter$1956              fb_app_counter
     0C:   000009DA  A$fb_app_counter$1957              fb_app_counter
     0C:   000009DB  A$fb_app_counter$1958              fb_app_counter
     0C:   000009DC  A$fb_app_counter$1959              fb_app_counter
     0C:   000009DD  A$fb_app_counter$1960              fb_app_counter
     0C:   000009DF  A$fb_app_counter$1961              fb_app_counter
     0C:   000009E1  A$fb_app_counter$1962              fb_app_counter
     0C:   000009E2  A$fb_app_counter$1963              fb_app_counter
     0C:   000009E4  A$fb_app_counter$1964              fb_app_counter
     0C:   000009E5  A$fb_app_counter$1965              fb_app_counter
     0C:   000009E7  A$fb_app_counter$1968              fb_app_counter
     0C:   000009E7  C$fb_app_counter.c$308$2$2         fb_app_counter
     0C:   000009E9  A$fb_app_counter$1969              fb_app_counter
ASxxxx Linker V02.00 + NoICE + sdld,  page 54.
Hexadecimal  [32-Bits]

Area                                    Addr        Size        Decimal Bytes (Attributes)
--------------------------------        ----        ----        ------- ----- ------------
CSEG                                000000A5    00001BC5 =        7109. bytes (REL,CON,CODE)

      Value  Global                              Global Defined In Module
      -----  --------------------------------   ------------------------
     0C:   000009EA  A$fb_app_counter$1970              fb_app_counter
     0C:   000009EB  A$fb_app_counter$1971              fb_app_counter
     0C:   000009ED  A$fb_app_counter$1972              fb_app_counter
     0C:   000009EF  A$fb_app_counter$1973              fb_app_counter
     0C:   000009F1  A$fb_app_counter$1974              fb_app_counter
     0C:   000009F3  A$fb_app_counter$1975              fb_app_counter
     0C:   000009F6  A$fb_app_counter$1976              fb_app_counter
     0C:   000009F8  A$fb_app_counter$1977              fb_app_counter
     0C:   000009FA  A$fb_app_counter$1978              fb_app_counter
     0C:   000009FC  A$fb_app_counter$1979              fb_app_counter
     0C:   000009FE  A$fb_app_counter$1980              fb_app_counter
     0C:   00000A00  A$fb_app_counter$1981              fb_app_counter
     0C:   00000A02  A$fb_app_counter$1982              fb_app_counter
     0C:   00000A04  A$fb_app_counter$1983              fb_app_counter
     0C:   00000A06  A$fb_app_counter$1984              fb_app_counter
     0C:   00000A07  A$fb_app_counter$1985              fb_app_counter
     0C:   00000A08  A$fb_app_counter$1986              fb_app_counter
     0C:   00000A09  A$fb_app_counter$1987              fb_app_counter
     0C:   00000A0A  A$fb_app_counter$1988              fb_app_counter
     0C:   00000A0B  A$fb_app_counter$1989              fb_app_counter
     0C:   00000A0C  A$fb_app_counter$1990              fb_app_counter
     0C:   00000A0D  A$fb_app_counter$1991              fb_app_counter
     0C:   00000A0F  A$fb_app_counter$1992              fb_app_counter
     0C:   00000A11  A$fb_app_counter$1995              fb_app_counter
     0C:   00000A11  C$fb_app_counter.c$309$3$8         fb_app_counter
     0C:   00000A13  A$fb_app_counter$1996              fb_app_counter
     0C:   00000A14  A$fb_app_counter$1997              fb_app_counter
     0C:   00000A15  A$fb_app_counter$1998              fb_app_counter
     0C:   00000A17  A$fb_app_counter$1999              fb_app_counter
     0C:   00000A19  A$fb_app_counter$2000              fb_app_counter
     0C:   00000A1B  A$fb_app_counter$2001              fb_app_counter
     0C:   00000A1C  A$fb_app_counter$2002              fb_app_counter
     0C:   00000A1E  A$fb_app_counter$2003              fb_app_counter
     0C:   00000A1F  A$fb_app_counter$2004              fb_app_counter
     0C:   00000A20  A$fb_app_counter$2005              fb_app_counter
     0C:   00000A22  A$fb_app_counter$2006              fb_app_counter
     0C:   00000A24  A$fb_app_counter$2007              fb_app_counter
     0C:   00000A26  A$fb_app_counter$2008              fb_app_counter
     0C:   00000A28  A$fb_app_counter$2009              fb_app_counter
     0C:   00000A2A  A$fb_app_counter$2010              fb_app_counter
     0C:   00000A2C  A$fb_app_counter$2011              fb_app_counter
     0C:   00000A2E  A$fb_app_counter$2012              fb_app_counter
     0C:   00000A2F  A$fb_app_counter$2013              fb_app_counter
     0C:   00000A31  A$fb_app_counter$2014              fb_app_counter
     0C:   00000A34  A$fb_app_counter$2015              fb_app_counter
     0C:   00000A36  A$fb_app_counter$2016              fb_app_counter
     0C:   00000A38  A$fb_app_counter$2017              fb_app_counter
     0C:   00000A3A  A$fb_app_counter$2018              fb_app_counter
     0C:   00000A3C  A$fb_app_counter$2019              fb_app_counter
     0C:   00000A3E  A$fb_app_counter$2023              fb_app_counter
     0C:   00000A3E  C$fb_app_counter.c$311$2$2         fb_app_counter
ASxxxx Linker V02.00 + NoICE + sdld,  page 55.
Hexadecimal  [32-Bits]

Area                                    Addr        Size        Decimal Bytes (Attributes)
--------------------------------        ----        ----        ------- ----- ------------
CSEG                                000000A5    00001BC5 =        7109. bytes (REL,CON,CODE)

      Value  Global                              Global Defined In Module
      -----  --------------------------------   ------------------------
     0C:   00000A41  A$fb_app_counter$2024              fb_app_counter
     0C:   00000A44  A$fb_app_counter$2027              fb_app_counter
     0C:   00000A44  C$fb_app_counter.c$312$1$1         fb_app_counter
     0C:   00000A46  A$fb_app_counter$2028              fb_app_counter
     0C:   00000A48  A$fb_app_counter$2029              fb_app_counter
     0C:   00000A49  A$fb_app_counter$2030              fb_app_counter
     0C:   00000A4A  A$fb_app_counter$2031              fb_app_counter
     0C:   00000A4C  A$fb_app_counter$2032              fb_app_counter
     0C:   00000A4E  A$fb_app_counter$2033              fb_app_counter
     0C:   00000A50  A$fb_app_counter$2034              fb_app_counter
     0C:   00000A52  A$fb_app_counter$2035              fb_app_counter
     0C:   00000A55  A$fb_app_counter$2036              fb_app_counter
     0C:   00000A57  A$fb_app_counter$2037              fb_app_counter
     0C:   00000A59  A$fb_app_counter$2038              fb_app_counter
     0C:   00000A5B  A$fb_app_counter$2039              fb_app_counter
     0C:   00000A5D  A$fb_app_counter$2040              fb_app_counter
     0C:   00000A5F  A$fb_app_counter$2041              fb_app_counter
     0C:   00000A61  A$fb_app_counter$2042              fb_app_counter
     0C:   00000A63  A$fb_app_counter$2043              fb_app_counter
     0C:   00000A65  A$fb_app_counter$2044              fb_app_counter
     0C:   00000A66  A$fb_app_counter$2045              fb_app_counter
     0C:   00000A67  A$fb_app_counter$2046              fb_app_counter
     0C:   00000A68  A$fb_app_counter$2047              fb_app_counter
     0C:   00000A69  A$fb_app_counter$2048              fb_app_counter
     0C:   00000A6A  A$fb_app_counter$2049              fb_app_counter
     0C:   00000A6B  A$fb_app_counter$2050              fb_app_counter
     0C:   00000A6C  A$fb_app_counter$2051              fb_app_counter
     0C:   00000A6E  A$fb_app_counter$2052              fb_app_counter
     0C:   00000A70  A$fb_app_counter$2055              fb_app_counter
     0C:   00000A70  C$fb_app_counter.c$313$4$10        fb_app_counter
     0C:   00000A72  A$fb_app_counter$2056              fb_app_counter
     0C:   00000A73  A$fb_app_counter$2057              fb_app_counter
     0C:   00000A74  A$fb_app_counter$2058              fb_app_counter
     0C:   00000A75  A$fb_app_counter$2059              fb_app_counter
     0C:   00000A76  A$fb_app_counter$2060              fb_app_counter
     0C:   00000A78  A$fb_app_counter$2061              fb_app_counter
     0C:   00000A79  A$fb_app_counter$2062              fb_app_counter
     0C:   00000A7B  A$fb_app_counter$2063              fb_app_counter
     0C:   00000A7D  A$fb_app_counter$2064              fb_app_counter
     0C:   00000A7F  A$fb_app_counter$2065              fb_app_counter
     0C:   00000A80  A$fb_app_counter$2066              fb_app_counter
     0C:   00000A81  A$fb_app_counter$2067              fb_app_counter
     0C:   00000A82  A$fb_app_counter$2068              fb_app_counter
     0C:   00000A83  A$fb_app_counter$2069              fb_app_counter
     0C:   00000A85  A$fb_app_counter$2070              fb_app_counter
     0C:   00000A86  A$fb_app_counter$2071              fb_app_counter
     0C:   00000A88  A$fb_app_counter$2072              fb_app_counter
     0C:   00000A8A  A$fb_app_counter$2073              fb_app_counter
     0C:   00000A8C  A$fb_app_counter$2074              fb_app_counter
     0C:   00000A8E  A$fb_app_counter$2075              fb_app_counter
     0C:   00000A90  A$fb_app_counter$2076              fb_app_counter
ASxxxx Linker V02.00 + NoICE + sdld,  page 56.
Hexadecimal  [32-Bits]

Area                                    Addr        Size        Decimal Bytes (Attributes)
--------------------------------        ----        ----        ------- ----- ------------
CSEG                                000000A5    00001BC5 =        7109. bytes (REL,CON,CODE)

      Value  Global                              Global Defined In Module
      -----  --------------------------------   ------------------------
     0C:   00000A92  A$fb_app_counter$2077              fb_app_counter
     0C:   00000A94  A$fb_app_counter$2078              fb_app_counter
     0C:   00000A95  A$fb_app_counter$2079              fb_app_counter
     0C:   00000A97  A$fb_app_counter$2080              fb_app_counter
     0C:   00000A9A  A$fb_app_counter$2081              fb_app_counter
     0C:   00000A9C  A$fb_app_counter$2082              fb_app_counter
     0C:   00000A9E  A$fb_app_counter$2083              fb_app_counter
     0C:   00000AA0  A$fb_app_counter$2084              fb_app_counter
     0C:   00000AA2  A$fb_app_counter$2085              fb_app_counter
     0C:   00000AA4  A$fb_app_counter$2089              fb_app_counter
     0C:   00000AA4  C$fb_app_counter.c$273$1$1         fb_app_counter
     0C:   00000AA5  A$fb_app_counter$2090              fb_app_counter
     0C:   00000AA8  A$fb_app_counter$2092              fb_app_counter
     0C:   00000AAB  A$fb_app_counter$2093              fb_app_counter
     0C:   00000AAD  A$fb_app_counter$2096              fb_app_counter
     0C:   00000AAD  C$fb_app_counter.c$328$1$1         fb_app_counter
     0C:   00000AAD  XG$checklevel$0$0                  fb_app_counter
     0C:   00000AAE  A$fb_app_counter$2112              fb_app_counter
     0C:   00000AAE  C$fb_app_counter.c$339$1$1         fb_app_counter
     0C:   00000AAE  C$fb_app_counter.c$343$1$1         fb_app_counter
     0C:   00000AAE  G$read_value_req$0$0               fb_app_counter
     0C:   00000AAE  _read_value_req                    fb_app_counter
     0C:   00000AB1  A$fb_app_counter$2113              fb_app_counter
     0C:   00000AB3  A$fb_app_counter$2114              fb_app_counter
     0C:   00000AB6  A$fb_app_counter$2115              fb_app_counter
     0C:   00000AB8  A$fb_app_counter$2116              fb_app_counter
     0C:   00000ABA  A$fb_app_counter$2119              fb_app_counter
     0C:   00000ABA  C$fb_app_counter.c$344$1$1         fb_app_counter
     0C:   00000ABD  A$fb_app_counter$2120              fb_app_counter
     0C:   00000ABF  A$fb_app_counter$2124              fb_app_counter
     0C:   00000ABF  C$fb_app_counter.c$350$2$2         fb_app_counter
     0C:   00000AC1  A$fb_app_counter$2125              fb_app_counter
     0C:   00000AC3  A$fb_app_counter$2126              fb_app_counter
     0C:   00000AC6  A$fb_app_counter$2127              fb_app_counter
     0C:   00000AC8  A$fb_app_counter$2128              fb_app_counter
     0C:   00000ACA  A$fb_app_counter$2131              fb_app_counter
     0C:   00000ACA  C$fb_app_counter.c$352$2$2         fb_app_counter
     0C:   00000ACD  A$fb_app_counter$2132              fb_app_counter
     0C:   00000AD0  A$fb_app_counter$2133              fb_app_counter
     0C:   00000AD2  A$fb_app_counter$2134              fb_app_counter
     0C:   00000AD3  A$fb_app_counter$2135              fb_app_counter
     0C:   00000AD5  A$fb_app_counter$2136              fb_app_counter
     0C:   00000AD8  A$fb_app_counter$2140              fb_app_counter
     0C:   00000AD8  C$fb_app_counter.c$354$1$1         fb_app_counter
     0C:   00000AD8  XG$read_value_req$0$0              fb_app_counter
     0C:   00000AD9  A$fb_app_counter$2154              fb_app_counter
     0C:   00000AD9  C$fb_app_counter.c$357$1$1         fb_app_counter
     0C:   00000AD9  G$sendbychange$0$0                 fb_app_counter
     0C:   00000AD9  _sendbychange                      fb_app_counter
     0C:   00000ADB  A$fb_app_counter$2155              fb_app_counter
     0C:   00000ADE  A$fb_app_counter$2156              fb_app_counter
ASxxxx Linker V02.00 + NoICE + sdld,  page 57.
Hexadecimal  [32-Bits]

Area                                    Addr        Size        Decimal Bytes (Attributes)
--------------------------------        ----        ----        ------- ----- ------------
CSEG                                000000A5    00001BC5 =        7109. bytes (REL,CON,CODE)

      Value  Global                              Global Defined In Module
      -----  --------------------------------   ------------------------
     0C:   00000AE0  A$fb_app_counter$2159              fb_app_counter
     0C:   00000AE0  C$fb_app_counter.c$358$1$1         fb_app_counter
     0C:   00000AE2  A$fb_app_counter$2160              fb_app_counter
     0C:   00000AE4  A$fb_app_counter$2161              fb_app_counter
     0C:   00000AE5  A$fb_app_counter$2162              fb_app_counter
     0C:   00000AE6  A$fb_app_counter$2163              fb_app_counter
     0C:   00000AE8  A$fb_app_counter$2166              fb_app_counter
     0C:   00000AE8  C$fb_app_counter.c$359$2$2         fb_app_counter
     0C:   00000AEA  A$fb_app_counter$2167              fb_app_counter
     0C:   00000AEC  A$fb_app_counter$2168              fb_app_counter
     0C:   00000AEF  A$fb_app_counter$2169              fb_app_counter
     0C:   00000AF1  A$fb_app_counter$2170              fb_app_counter
     0C:   00000AF3  A$fb_app_counter$2171              fb_app_counter
     0C:   00000AF5  A$fb_app_counter$2172              fb_app_counter
     0C:   00000AF6  A$fb_app_counter$2173              fb_app_counter
     0C:   00000AF8  A$fb_app_counter$2174              fb_app_counter
     0C:   00000AF9  A$fb_app_counter$2175              fb_app_counter
     0C:   00000AFA  A$fb_app_counter$2176              fb_app_counter
     0C:   00000AFB  A$fb_app_counter$2177              fb_app_counter
     0C:   00000AFC  A$fb_app_counter$2178              fb_app_counter
     0C:   00000AFE  A$fb_app_counter$2179              fb_app_counter
     0C:   00000B00  A$fb_app_counter$2180              fb_app_counter
     0C:   00000B02  A$fb_app_counter$2181              fb_app_counter
     0C:   00000B03  A$fb_app_counter$2182              fb_app_counter
     0C:   00000B05  A$fb_app_counter$2183              fb_app_counter
     0C:   00000B07  A$fb_app_counter$2184              fb_app_counter
     0C:   00000B0A  A$fb_app_counter$2185              fb_app_counter
     0C:   00000B0C  A$fb_app_counter$2186              fb_app_counter
     0C:   00000B0E  A$fb_app_counter$2187              fb_app_counter
     0C:   00000B10  A$fb_app_counter$2191              fb_app_counter
     0C:   00000B10  C$fb_app_counter.c$361$1$1         fb_app_counter
     0C:   00000B12  A$fb_app_counter$2192              fb_app_counter
     0C:   00000B14  A$fb_app_counter$2193              fb_app_counter
     0C:   00000B17  A$fb_app_counter$2194              fb_app_counter
     0C:   00000B19  A$fb_app_counter$2195              fb_app_counter
     0C:   00000B1B  A$fb_app_counter$2196              fb_app_counter
     0C:   00000B1D  A$fb_app_counter$2197              fb_app_counter
     0C:   00000B1E  A$fb_app_counter$2198              fb_app_counter
     0C:   00000B20  A$fb_app_counter$2199              fb_app_counter
     0C:   00000B21  A$fb_app_counter$2200              fb_app_counter
     0C:   00000B22  A$fb_app_counter$2201              fb_app_counter
     0C:   00000B23  A$fb_app_counter$2202              fb_app_counter
     0C:   00000B24  A$fb_app_counter$2203              fb_app_counter
     0C:   00000B26  A$fb_app_counter$2204              fb_app_counter
     0C:   00000B27  A$fb_app_counter$2205              fb_app_counter
     0C:   00000B29  A$fb_app_counter$2206              fb_app_counter
     0C:   00000B2B  A$fb_app_counter$2207              fb_app_counter
     0C:   00000B2D  A$fb_app_counter$2208              fb_app_counter
     0C:   00000B30  A$fb_app_counter$2209              fb_app_counter
     0C:   00000B32  A$fb_app_counter$2210              fb_app_counter
     0C:   00000B34  A$fb_app_counter$2212              fb_app_counter
ASxxxx Linker V02.00 + NoICE + sdld,  page 58.
Hexadecimal  [32-Bits]

Area                                    Addr        Size        Decimal Bytes (Attributes)
--------------------------------        ----        ----        ------- ----- ------------
CSEG                                000000A5    00001BC5 =        7109. bytes (REL,CON,CODE)

      Value  Global                              Global Defined In Module
      -----  --------------------------------   ------------------------
     0C:   00000B36  A$fb_app_counter$2215              fb_app_counter
     0C:   00000B36  C$fb_app_counter.c$362$1$1         fb_app_counter
     0C:   00000B36  XG$sendbychange$0$0                fb_app_counter
     0C:   00000B37  A$fb_app_counter$2229              fb_app_counter
     0C:   00000B37  C$fb_app_counter.c$364$1$1         fb_app_counter
     0C:   00000B37  G$write_send$0$0                   fb_app_counter
     0C:   00000B37  _write_send                        fb_app_counter
     0C:   00000B39  A$fb_app_counter$2230              fb_app_counter
     0C:   00000B3C  A$fb_app_counter$2231              fb_app_counter
     0C:   00000B3E  A$fb_app_counter$2234              fb_app_counter
     0C:   00000B3E  C$fb_app_counter.c$366$1$1         fb_app_counter
     0C:   00000B40  A$fb_app_counter$2235              fb_app_counter
     0C:   00000B42  A$fb_app_counter$2236              fb_app_counter
     0C:   00000B43  A$fb_app_counter$2237              fb_app_counter
     0C:   00000B45  A$fb_app_counter$2238              fb_app_counter
     0C:   00000B46  A$fb_app_counter$2239              fb_app_counter
     0C:   00000B48  A$fb_app_counter$2240              fb_app_counter
     0C:   00000B4A  A$fb_app_counter$2241              fb_app_counter
     0C:   00000B4C  A$fb_app_counter$2242              fb_app_counter
     0C:   00000B4E  A$fb_app_counter$2243              fb_app_counter
     0C:   00000B50  A$fb_app_counter$2244              fb_app_counter
     0C:   00000B52  A$fb_app_counter$2245              fb_app_counter
     0C:   00000B54  A$fb_app_counter$2246              fb_app_counter
     0C:   00000B56  A$fb_app_counter$2247              fb_app_counter
     0C:   00000B58  A$fb_app_counter$2248              fb_app_counter
     0C:   00000B5B  A$fb_app_counter$2249              fb_app_counter
     0C:   00000B5D  A$fb_app_counter$2250              fb_app_counter
     0C:   00000B5F  A$fb_app_counter$2251              fb_app_counter
     0C:   00000B61  A$fb_app_counter$2252              fb_app_counter
     0C:   00000B63  A$fb_app_counter$2255              fb_app_counter
     0C:   00000B63  C$fb_app_counter.c$367$1$1         fb_app_counter
     0C:   00000B65  A$fb_app_counter$2256              fb_app_counter
     0C:   00000B68  A$fb_app_counter$2257              fb_app_counter
     0C:   00000B6A  A$fb_app_counter$2260              fb_app_counter
     0C:   00000B6A  C$fb_app_counter.c$368$1$1         fb_app_counter
     0C:   00000B6A  XG$write_send$0$0                  fb_app_counter
     0C:   00000B6B  A$fb_app_counter$2275              fb_app_counter
     0C:   00000B6B  C$fb_app_counter.c$371$1$1         fb_app_counter
     0C:   00000B6B  C$fb_app_counter.c$377$1$1         fb_app_counter
     0C:   00000B6B  G$bus_return$0$0                   fb_app_counter
     0C:   00000B6B  XG$bus_return$0$0                  fb_app_counter
     0C:   00000B6B  _bus_return                        fb_app_counter
     0C:   00000B6C  A$fb_app_counter$2298              fb_app_counter
     0C:   00000B6C  C$fb_app_counter.c$380$1$1         fb_app_counter
     0C:   00000B6C  G$read_obj_value$0$0               fb_app_counter
     0C:   00000B6C  _read_obj_value                    fb_app_counter
     0C:   00000B6E  A$fb_app_counter$2299              fb_app_counter
     0C:   00000B70  A$fb_app_counter$2300              fb_app_counter
     0C:   00000B72  A$fb_app_counter$2301              fb_app_counter
     0C:   00000B74  A$fb_app_counter$2302              fb_app_counter
     0C:   00000B76  A$fb_app_counter$2303              fb_app_counter
ASxxxx Linker V02.00 + NoICE + sdld,  page 59.
Hexadecimal  [32-Bits]

Area                                    Addr        Size        Decimal Bytes (Attributes)
--------------------------------        ----        ----        ------- ----- ------------
CSEG                                000000A5    00001BC5 =        7109. bytes (REL,CON,CODE)

      Value  Global                              Global Defined In Module
      -----  --------------------------------   ------------------------
     0C:   00000B78  A$fb_app_counter$2306              fb_app_counter
     0C:   00000B78  C$fb_app_counter.c$382$1$1         fb_app_counter
     0C:   00000B7A  A$fb_app_counter$2307              fb_app_counter
     0C:   00000B7B  A$fb_app_counter$2308              fb_app_counter
     0C:   00000B7C  A$fb_app_counter$2309              fb_app_counter
     0C:   00000B7D  A$fb_app_counter$2310              fb_app_counter
     0C:   00000B7E  A$fb_app_counter$2311              fb_app_counter
     0C:   00000B7F  A$fb_app_counter$2312              fb_app_counter
     0C:   00000B80  A$fb_app_counter$2313              fb_app_counter
     0C:   00000B81  A$fb_app_counter$2314              fb_app_counter
     0C:   00000B82  A$fb_app_counter$2315              fb_app_counter
     0C:   00000B83  A$fb_app_counter$2318              fb_app_counter
     0C:   00000B83  C$fb_app_counter.c$383$1$1         fb_app_counter
     0C:   00000B85  A$fb_app_counter$2319              fb_app_counter
     0C:   00000B87  A$fb_app_counter$2320              fb_app_counter
     0C:   00000B89  A$fb_app_counter$2321              fb_app_counter
     0C:   00000B8A  A$fb_app_counter$2322              fb_app_counter
     0C:   00000B8C  A$fb_app_counter$2325              fb_app_counter
     0C:   00000B8C  C$fb_app_counter.c$384$1$1         fb_app_counter
     0C:   00000B8E  A$fb_app_counter$2328              fb_app_counter
     0C:   00000B8E  C$fb_app_counter.c$386$1$1         fb_app_counter
     0C:   00000B91  A$fb_app_counter$2329              fb_app_counter
     0C:   00000B92  A$fb_app_counter$2330              fb_app_counter
     0C:   00000B93  A$fb_app_counter$2331              fb_app_counter
     0C:   00000B94  A$fb_app_counter$2332              fb_app_counter
     0C:   00000B95  A$fb_app_counter$2333              fb_app_counter
     0C:   00000B98  A$fb_app_counter$2334              fb_app_counter
     0C:   00000B99  A$fb_app_counter$2335              fb_app_counter
     0C:   00000B9A  A$fb_app_counter$2336              fb_app_counter
     0C:   00000B9C  A$fb_app_counter$2337              fb_app_counter
     0C:   00000B9F  A$fb_app_counter$2338              fb_app_counter
     0C:   00000BA0  A$fb_app_counter$2341              fb_app_counter
     0C:   00000BA0  C$fb_app_counter.c$387$1$1         fb_app_counter
     0C:   00000BA3  A$fb_app_counter$2343              fb_app_counter
     0C:   00000BA5  A$fb_app_counter$2344              fb_app_counter
     0C:   00000BA6  A$fb_app_counter$2345              fb_app_counter
     0C:   00000BA8  A$fb_app_counter$2346              fb_app_counter
     0C:   00000BAA  A$fb_app_counter$2349              fb_app_counter
     0C:   00000BAA  C$fb_app_counter.c$388$2$2         fb_app_counter
     0C:   00000BAC  A$fb_app_counter$2350              fb_app_counter
     0C:   00000BAE  A$fb_app_counter$2351              fb_app_counter
     0C:   00000BAF  A$fb_app_counter$2352              fb_app_counter
     0C:   00000BB1  A$fb_app_counter$2353              fb_app_counter
     0C:   00000BB2  A$fb_app_counter$2354              fb_app_counter
     0C:   00000BB3  A$fb_app_counter$2355              fb_app_counter
     0C:   00000BB5  A$fb_app_counter$2356              fb_app_counter
     0C:   00000BB7  A$fb_app_counter$2357              fb_app_counter
     0C:   00000BB9  A$fb_app_counter$2358              fb_app_counter
     0C:   00000BBB  A$fb_app_counter$2359              fb_app_counter
     0C:   00000BBD  A$fb_app_counter$2360              fb_app_counter
     0C:   00000BBF  A$fb_app_counter$2362              fb_app_counter
ASxxxx Linker V02.00 + NoICE + sdld,  page 60.
Hexadecimal  [32-Bits]

Area                                    Addr        Size        Decimal Bytes (Attributes)
--------------------------------        ----        ----        ------- ----- ------------
CSEG                                000000A5    00001BC5 =        7109. bytes (REL,CON,CODE)

      Value  Global                              Global Defined In Module
      -----  --------------------------------   ------------------------
     0C:   00000BC0  A$fb_app_counter$2363              fb_app_counter
     0C:   00000BC1  A$fb_app_counter$2364              fb_app_counter
     0C:   00000BC2  A$fb_app_counter$2365              fb_app_counter
     0C:   00000BC3  A$fb_app_counter$2366              fb_app_counter
     0C:   00000BC4  A$fb_app_counter$2367              fb_app_counter
     0C:   00000BC5  A$fb_app_counter$2368              fb_app_counter
     0C:   00000BC6  A$fb_app_counter$2370              fb_app_counter
     0C:   00000BC9  A$fb_app_counter$2371              fb_app_counter
     0C:   00000BCC  A$fb_app_counter$2372              fb_app_counter
     0C:   00000BCE  A$fb_app_counter$2373              fb_app_counter
     0C:   00000BD0  A$fb_app_counter$2374              fb_app_counter
     0C:   00000BD1  A$fb_app_counter$2375              fb_app_counter
     0C:   00000BD3  A$fb_app_counter$2376              fb_app_counter
     0C:   00000BD4  A$fb_app_counter$2377              fb_app_counter
     0C:   00000BD6  A$fb_app_counter$2378              fb_app_counter
     0C:   00000BD7  A$fb_app_counter$2379              fb_app_counter
     0C:   00000BD9  A$fb_app_counter$2380              fb_app_counter
     0C:   00000BDA  A$fb_app_counter$2381              fb_app_counter
     0C:   00000BDC  A$fb_app_counter$2384              fb_app_counter
     0C:   00000BDC  C$fb_app_counter.c$389$2$2         fb_app_counter
     0C:   00000BDE  A$fb_app_counter$2388              fb_app_counter
     0C:   00000BDE  C$fb_app_counter.c$391$1$1         fb_app_counter
     0C:   00000BE1  A$fb_app_counter$2390              fb_app_counter
     0C:   00000BE3  A$fb_app_counter$2391              fb_app_counter
     0C:   00000BE4  A$fb_app_counter$2392              fb_app_counter
     0C:   00000BE6  A$fb_app_counter$2393              fb_app_counter
     0C:   00000BE8  A$fb_app_counter$2396              fb_app_counter
     0C:   00000BE8  C$fb_app_counter.c$392$2$3         fb_app_counter
     0C:   00000BEA  A$fb_app_counter$2397              fb_app_counter
     0C:   00000BEC  A$fb_app_counter$2398              fb_app_counter
     0C:   00000BED  A$fb_app_counter$2399              fb_app_counter
     0C:   00000BEF  A$fb_app_counter$2400              fb_app_counter
     0C:   00000BF0  A$fb_app_counter$2401              fb_app_counter
     0C:   00000BF1  A$fb_app_counter$2402              fb_app_counter
     0C:   00000BF3  A$fb_app_counter$2403              fb_app_counter
     0C:   00000BF5  A$fb_app_counter$2404              fb_app_counter
     0C:   00000BF7  A$fb_app_counter$2405              fb_app_counter
     0C:   00000BF9  A$fb_app_counter$2406              fb_app_counter
     0C:   00000BFB  A$fb_app_counter$2407              fb_app_counter
     0C:   00000BFD  A$fb_app_counter$2409              fb_app_counter
     0C:   00000BFE  A$fb_app_counter$2410              fb_app_counter
     0C:   00000BFF  A$fb_app_counter$2411              fb_app_counter
     0C:   00000C00  A$fb_app_counter$2412              fb_app_counter
     0C:   00000C01  A$fb_app_counter$2413              fb_app_counter
     0C:   00000C02  A$fb_app_counter$2414              fb_app_counter
     0C:   00000C03  A$fb_app_counter$2415              fb_app_counter
     0C:   00000C04  A$fb_app_counter$2417              fb_app_counter
     0C:   00000C07  A$fb_app_counter$2418              fb_app_counter
     0C:   00000C0A  A$fb_app_counter$2419              fb_app_counter
     0C:   00000C0C  A$fb_app_counter$2420              fb_app_counter
     0C:   00000C0E  A$fb_app_counter$2421              fb_app_counter
ASxxxx Linker V02.00 + NoICE + sdld,  page 61.
Hexadecimal  [32-Bits]

Area                                    Addr        Size        Decimal Bytes (Attributes)
--------------------------------        ----        ----        ------- ----- ------------
CSEG                                000000A5    00001BC5 =        7109. bytes (REL,CON,CODE)

      Value  Global                              Global Defined In Module
      -----  --------------------------------   ------------------------
     0C:   00000C0F  A$fb_app_counter$2422              fb_app_counter
     0C:   00000C11  A$fb_app_counter$2423              fb_app_counter
     0C:   00000C12  A$fb_app_counter$2424              fb_app_counter
     0C:   00000C14  A$fb_app_counter$2425              fb_app_counter
     0C:   00000C15  A$fb_app_counter$2426              fb_app_counter
     0C:   00000C17  A$fb_app_counter$2427              fb_app_counter
     0C:   00000C18  A$fb_app_counter$2428              fb_app_counter
     0C:   00000C1A  A$fb_app_counter$2431              fb_app_counter
     0C:   00000C1A  C$fb_app_counter.c$393$2$3         fb_app_counter
     0C:   00000C1C  A$fb_app_counter$2435              fb_app_counter
     0C:   00000C1C  C$fb_app_counter.c$395$1$1         fb_app_counter
     0C:   00000C1D  A$fb_app_counter$2436              fb_app_counter
     0C:   00000C1F  A$fb_app_counter$2437              fb_app_counter
     0C:   00000C22  A$fb_app_counter$2441              fb_app_counter
     0C:   00000C22  C$fb_app_counter.c$396$2$4         fb_app_counter
     0C:   00000C23  A$fb_app_counter$2442              fb_app_counter
     0C:   00000C25  A$fb_app_counter$2443              fb_app_counter
     0C:   00000C27  A$fb_app_counter$2446              fb_app_counter
     0C:   00000C27  C$fb_app_counter.c$397$3$5         fb_app_counter
     0C:   00000C29  A$fb_app_counter$2449              fb_app_counter
     0C:   00000C29  C$fb_app_counter.c$398$3$5         fb_app_counter
     0C:   00000C2C  A$fb_app_counter$2450              fb_app_counter
     0C:   00000C2D  A$fb_app_counter$2451              fb_app_counter
     0C:   00000C2E  A$fb_app_counter$2452              fb_app_counter
     0C:   00000C2F  A$fb_app_counter$2453              fb_app_counter
     0C:   00000C31  A$fb_app_counter$2454              fb_app_counter
     0C:   00000C33  A$fb_app_counter$2455              fb_app_counter
     0C:   00000C34  A$fb_app_counter$2456              fb_app_counter
     0C:   00000C36  A$fb_app_counter$2457              fb_app_counter
     0C:   00000C37  A$fb_app_counter$2458              fb_app_counter
     0C:   00000C38  A$fb_app_counter$2461              fb_app_counter
     0C:   00000C38  C$fb_app_counter.c$399$3$5         fb_app_counter
     0C:   00000C3A  A$fb_app_counter$2465              fb_app_counter
     0C:   00000C3A  C$fb_app_counter.c$401$2$4         fb_app_counter
     0C:   00000C3D  A$fb_app_counter$2467              fb_app_counter
     0C:   00000C3F  A$fb_app_counter$2468              fb_app_counter
     0C:   00000C40  A$fb_app_counter$2469              fb_app_counter
     0C:   00000C42  A$fb_app_counter$2470              fb_app_counter
     0C:   00000C44  A$fb_app_counter$2473              fb_app_counter
     0C:   00000C44  C$fb_app_counter.c$402$3$6         fb_app_counter
     0C:   00000C45  A$fb_app_counter$2474              fb_app_counter
     0C:   00000C47  A$fb_app_counter$2475              fb_app_counter
     0C:   00000C48  A$fb_app_counter$2478              fb_app_counter
     0C:   00000C48  C$fb_app_counter.c$403$3$6         fb_app_counter
     0C:   00000C4B  A$fb_app_counter$2479              fb_app_counter
     0C:   00000C4C  A$fb_app_counter$2480              fb_app_counter
     0C:   00000C4D  A$fb_app_counter$2481              fb_app_counter
     0C:   00000C4E  A$fb_app_counter$2482              fb_app_counter
     0C:   00000C50  A$fb_app_counter$2483              fb_app_counter
     0C:   00000C52  A$fb_app_counter$2484              fb_app_counter
     0C:   00000C53  A$fb_app_counter$2485              fb_app_counter
ASxxxx Linker V02.00 + NoICE + sdld,  page 62.
Hexadecimal  [32-Bits]

Area                                    Addr        Size        Decimal Bytes (Attributes)
--------------------------------        ----        ----        ------- ----- ------------
CSEG                                000000A5    00001BC5 =        7109. bytes (REL,CON,CODE)

      Value  Global                              Global Defined In Module
      -----  --------------------------------   ------------------------
     0C:   00000C54  A$fb_app_counter$2486              fb_app_counter
     0C:   00000C55  A$fb_app_counter$2487              fb_app_counter
     0C:   00000C57  A$fb_app_counter$2488              fb_app_counter
     0C:   00000C58  A$fb_app_counter$2491              fb_app_counter
     0C:   00000C58  C$fb_app_counter.c$404$3$6         fb_app_counter
     0C:   00000C5A  A$fb_app_counter$2495              fb_app_counter
     0C:   00000C5A  C$fb_app_counter.c$406$2$4         fb_app_counter
     0C:   00000C5D  A$fb_app_counter$2497              fb_app_counter
     0C:   00000C5F  A$fb_app_counter$2498              fb_app_counter
     0C:   00000C60  A$fb_app_counter$2499              fb_app_counter
     0C:   00000C62  A$fb_app_counter$2500              fb_app_counter
     0C:   00000C64  A$fb_app_counter$2503              fb_app_counter
     0C:   00000C64  C$fb_app_counter.c$407$3$7         fb_app_counter
     0C:   00000C65  A$fb_app_counter$2504              fb_app_counter
     0C:   00000C67  A$fb_app_counter$2505              fb_app_counter
     0C:   00000C68  A$fb_app_counter$2508              fb_app_counter
     0C:   00000C68  C$fb_app_counter.c$408$3$7         fb_app_counter
     0C:   00000C6B  A$fb_app_counter$2509              fb_app_counter
     0C:   00000C6C  A$fb_app_counter$2510              fb_app_counter
     0C:   00000C6D  A$fb_app_counter$2511              fb_app_counter
     0C:   00000C6E  A$fb_app_counter$2512              fb_app_counter
     0C:   00000C70  A$fb_app_counter$2513              fb_app_counter
     0C:   00000C72  A$fb_app_counter$2514              fb_app_counter
     0C:   00000C73  A$fb_app_counter$2515              fb_app_counter
     0C:   00000C75  A$fb_app_counter$2516              fb_app_counter
     0C:   00000C76  A$fb_app_counter$2517              fb_app_counter
     0C:   00000C77  A$fb_app_counter$2520              fb_app_counter
     0C:   00000C77  C$fb_app_counter.c$409$3$7         fb_app_counter
     0C:   00000C79  A$fb_app_counter$2524              fb_app_counter
     0C:   00000C79  C$fb_app_counter.c$411$2$4         fb_app_counter
     0C:   00000C7C  A$fb_app_counter$2526              fb_app_counter
     0C:   00000C7E  A$fb_app_counter$2527              fb_app_counter
     0C:   00000C7F  A$fb_app_counter$2528              fb_app_counter
     0C:   00000C81  A$fb_app_counter$2529              fb_app_counter
     0C:   00000C83  A$fb_app_counter$2532              fb_app_counter
     0C:   00000C83  C$fb_app_counter.c$412$3$8         fb_app_counter
     0C:   00000C84  A$fb_app_counter$2533              fb_app_counter
     0C:   00000C86  A$fb_app_counter$2534              fb_app_counter
     0C:   00000C87  A$fb_app_counter$2537              fb_app_counter
     0C:   00000C87  C$fb_app_counter.c$413$3$8         fb_app_counter
     0C:   00000C8A  A$fb_app_counter$2538              fb_app_counter
     0C:   00000C8B  A$fb_app_counter$2539              fb_app_counter
     0C:   00000C8C  A$fb_app_counter$2540              fb_app_counter
     0C:   00000C8D  A$fb_app_counter$2541              fb_app_counter
     0C:   00000C8F  A$fb_app_counter$2542              fb_app_counter
     0C:   00000C91  A$fb_app_counter$2543              fb_app_counter
     0C:   00000C92  A$fb_app_counter$2544              fb_app_counter
     0C:   00000C93  A$fb_app_counter$2545              fb_app_counter
     0C:   00000C94  A$fb_app_counter$2546              fb_app_counter
     0C:   00000C96  A$fb_app_counter$2547              fb_app_counter
     0C:   00000C97  A$fb_app_counter$2550              fb_app_counter
ASxxxx Linker V02.00 + NoICE + sdld,  page 63.
Hexadecimal  [32-Bits]

Area                                    Addr        Size        Decimal Bytes (Attributes)
--------------------------------        ----        ----        ------- ----- ------------
CSEG                                000000A5    00001BC5 =        7109. bytes (REL,CON,CODE)

      Value  Global                              Global Defined In Module
      -----  --------------------------------   ------------------------
     0C:   00000C97  C$fb_app_counter.c$414$3$8         fb_app_counter
     0C:   00000C99  A$fb_app_counter$2554              fb_app_counter
     0C:   00000C99  C$fb_app_counter.c$416$2$4         fb_app_counter
     0C:   00000C9A  A$fb_app_counter$2555              fb_app_counter
     0C:   00000C9C  A$fb_app_counter$2556              fb_app_counter
     0C:   00000C9E  A$fb_app_counter$2557              fb_app_counter
     0C:   00000CA1  A$fb_app_counter$2561              fb_app_counter
     0C:   00000CA1  C$fb_app_counter.c$417$3$9         fb_app_counter
     0C:   00000CA3  A$fb_app_counter$2562              fb_app_counter
     0C:   00000CA6  A$fb_app_counter$2563              fb_app_counter
     0C:   00000CA7  A$fb_app_counter$2564              fb_app_counter
     0C:   00000CA8  A$fb_app_counter$2565              fb_app_counter
     0C:   00000CA9  A$fb_app_counter$2566              fb_app_counter
     0C:   00000CAB  A$fb_app_counter$2567              fb_app_counter
     0C:   00000CAC  A$fb_app_counter$2568              fb_app_counter
     0C:   00000CAD  A$fb_app_counter$2569              fb_app_counter
     0C:   00000CB0  A$fb_app_counter$2570              fb_app_counter
     0C:   00000CB1  A$fb_app_counter$2571              fb_app_counter
     0C:   00000CB2  A$fb_app_counter$2572              fb_app_counter
     0C:   00000CB4  A$fb_app_counter$2573              fb_app_counter
     0C:   00000CB5  A$fb_app_counter$2574              fb_app_counter
     0C:   00000CB6  A$fb_app_counter$2575              fb_app_counter
     0C:   00000CB7  A$fb_app_counter$2576              fb_app_counter
     0C:   00000CB8  A$fb_app_counter$2579              fb_app_counter
     0C:   00000CB8  C$fb_app_counter.c$418$3$9         fb_app_counter
     0C:   00000CB9  A$fb_app_counter$2580              fb_app_counter
     0C:   00000CBA  A$fb_app_counter$2581              fb_app_counter
     0C:   00000CBC  A$fb_app_counter$2582              fb_app_counter
     0C:   00000CBF  A$fb_app_counter$2586              fb_app_counter
     0C:   00000CBF  C$fb_app_counter.c$419$1$1         fb_app_counter
     0C:   00000CC1  A$fb_app_counter$2587              fb_app_counter
     0C:   00000CC3  A$fb_app_counter$2588              fb_app_counter
     0C:   00000CC4  A$fb_app_counter$2589              fb_app_counter
     0C:   00000CC5  A$fb_app_counter$2590              fb_app_counter
     0C:   00000CC6  A$fb_app_counter$2591              fb_app_counter
     0C:   00000CC8  A$fb_app_counter$2592              fb_app_counter
     0C:   00000CC9  A$fb_app_counter$2593              fb_app_counter
     0C:   00000CCB  A$fb_app_counter$2594              fb_app_counter
     0C:   00000CCC  A$fb_app_counter$2595              fb_app_counter
     0C:   00000CCE  A$fb_app_counter$2596              fb_app_counter
     0C:   00000CD0  A$fb_app_counter$2597              fb_app_counter
     0C:   00000CD1  A$fb_app_counter$2598              fb_app_counter
     0C:   00000CD3  A$fb_app_counter$2599              fb_app_counter
     0C:   00000CD4  A$fb_app_counter$2600              fb_app_counter
     0C:   00000CD6  A$fb_app_counter$2601              fb_app_counter
     0C:   00000CD7  A$fb_app_counter$2602              fb_app_counter
     0C:   00000CD9  A$fb_app_counter$2603              fb_app_counter
     0C:   00000CDA  A$fb_app_counter$2604              fb_app_counter
     0C:   00000CDC  A$fb_app_counter$2607              fb_app_counter
     0C:   00000CDE  A$fb_app_counter$2608              fb_app_counter
     0C:   00000CE0  A$fb_app_counter$2609              fb_app_counter
ASxxxx Linker V02.00 + NoICE + sdld,  page 64.
Hexadecimal  [32-Bits]

Area                                    Addr        Size        Decimal Bytes (Attributes)
--------------------------------        ----        ----        ------- ----- ------------
CSEG                                000000A5    00001BC5 =        7109. bytes (REL,CON,CODE)

      Value  Global                              Global Defined In Module
      -----  --------------------------------   ------------------------
     0C:   00000CE1  A$fb_app_counter$2610              fb_app_counter
     0C:   00000CE4  A$fb_app_counter$2611              fb_app_counter
     0C:   00000CE6  A$fb_app_counter$2613              fb_app_counter
     0C:   00000CE8  A$fb_app_counter$2614              fb_app_counter
     0C:   00000CEA  A$fb_app_counter$2615              fb_app_counter
     0C:   00000CEC  A$fb_app_counter$2617              fb_app_counter
     0C:   00000CED  A$fb_app_counter$2618              fb_app_counter
     0C:   00000CEF  A$fb_app_counter$2619              fb_app_counter
     0C:   00000CF0  A$fb_app_counter$2620              fb_app_counter
     0C:   00000CF2  A$fb_app_counter$2621              fb_app_counter
     0C:   00000CF3  A$fb_app_counter$2622              fb_app_counter
     0C:   00000CF5  A$fb_app_counter$2623              fb_app_counter
     0C:   00000CF6  A$fb_app_counter$2624              fb_app_counter
     0C:   00000CF8  A$fb_app_counter$2625              fb_app_counter
     0C:   00000CF9  A$fb_app_counter$2626              fb_app_counter
     0C:   00000CFA  A$fb_app_counter$2627              fb_app_counter
     0C:   00000CFB  A$fb_app_counter$2628              fb_app_counter
     0C:   00000CFD  A$fb_app_counter$2629              fb_app_counter
     0C:   00000CFF  A$fb_app_counter$2630              fb_app_counter
     0C:   00000D01  A$fb_app_counter$2631              fb_app_counter
     0C:   00000D03  A$fb_app_counter$2632              fb_app_counter
     0C:   00000D05  A$fb_app_counter$2633              fb_app_counter
     0C:   00000D06  A$fb_app_counter$2634              fb_app_counter
     0C:   00000D08  A$fb_app_counter$2635              fb_app_counter
     0C:   00000D09  A$fb_app_counter$2636              fb_app_counter
     0C:   00000D0B  A$fb_app_counter$2637              fb_app_counter
     0C:   00000D0C  A$fb_app_counter$2638              fb_app_counter
     0C:   00000D0E  A$fb_app_counter$2639              fb_app_counter
     0C:   00000D10  A$fb_app_counter$2640              fb_app_counter
     0C:   00000D11  A$fb_app_counter$2641              fb_app_counter
     0C:   00000D12  A$fb_app_counter$2642              fb_app_counter
     0C:   00000D13  A$fb_app_counter$2643              fb_app_counter
     0C:   00000D14  A$fb_app_counter$2644              fb_app_counter
     0C:   00000D15  A$fb_app_counter$2645              fb_app_counter
     0C:   00000D17  A$fb_app_counter$2646              fb_app_counter
     0C:   00000D18  A$fb_app_counter$2647              fb_app_counter
     0C:   00000D1A  A$fb_app_counter$2648              fb_app_counter
     0C:   00000D1B  A$fb_app_counter$2649              fb_app_counter
     0C:   00000D1D  A$fb_app_counter$2650              fb_app_counter
     0C:   00000D1E  A$fb_app_counter$2651              fb_app_counter
     0C:   00000D20  A$fb_app_counter$2652              fb_app_counter
     0C:   00000D21  A$fb_app_counter$2653              fb_app_counter
     0C:   00000D23  A$fb_app_counter$2656              fb_app_counter
     0C:   00000D25  A$fb_app_counter$2657              fb_app_counter
     0C:   00000D27  A$fb_app_counter$2663              fb_app_counter
     0C:   00000D27  C$fb_app_counter.c$420$4$10        fb_app_counter
     0C:   00000D27  C$fb_app_counter.c$422$4$10        fb_app_counter
     0C:   00000D29  A$fb_app_counter$2664              fb_app_counter
     0C:   00000D2B  A$fb_app_counter$2665              fb_app_counter
     0C:   00000D2C  A$fb_app_counter$2666              fb_app_counter
     0C:   00000D2F  A$fb_app_counter$2669              fb_app_counter
ASxxxx Linker V02.00 + NoICE + sdld,  page 65.
Hexadecimal  [32-Bits]

Area                                    Addr        Size        Decimal Bytes (Attributes)
--------------------------------        ----        ----        ------- ----- ------------
CSEG                                000000A5    00001BC5 =        7109. bytes (REL,CON,CODE)

      Value  Global                              Global Defined In Module
      -----  --------------------------------   ------------------------
     0C:   00000D2F  C$fb_app_counter.c$423$1$1         fb_app_counter
     0C:   00000D30  A$fb_app_counter$2670              fb_app_counter
     0C:   00000D32  A$fb_app_counter$2671              fb_app_counter
     0C:   00000D33  A$fb_app_counter$2672              fb_app_counter
     0C:   00000D35  A$fb_app_counter$2673              fb_app_counter
     0C:   00000D36  A$fb_app_counter$2674              fb_app_counter
     0C:   00000D38  A$fb_app_counter$2675              fb_app_counter
     0C:   00000D39  A$fb_app_counter$2676              fb_app_counter
     0C:   00000D3A  A$fb_app_counter$2677              fb_app_counter
     0C:   00000D3B  A$fb_app_counter$2678              fb_app_counter
     0C:   00000D3C  A$fb_app_counter$2679              fb_app_counter
     0C:   00000D3D  A$fb_app_counter$2680              fb_app_counter
     0C:   00000D3F  A$fb_app_counter$2683              fb_app_counter
     0C:   00000D3F  C$fb_app_counter.c$424$1$1         fb_app_counter
     0C:   00000D41  A$fb_app_counter$2684              fb_app_counter
     0C:   00000D43  A$fb_app_counter$2685              fb_app_counter
     0C:   00000D44  A$fb_app_counter$2686              fb_app_counter
     0C:   00000D46  A$fb_app_counter$2687              fb_app_counter
     0C:   00000D47  A$fb_app_counter$2688              fb_app_counter
     0C:   00000D49  A$fb_app_counter$2689              fb_app_counter
     0C:   00000D4A  A$fb_app_counter$2690              fb_app_counter
     0C:   00000D4C  A$fb_app_counter$2691              fb_app_counter
     0C:   00000D4E  A$fb_app_counter$2692              fb_app_counter
     0C:   00000D50  A$fb_app_counter$2693              fb_app_counter
     0C:   00000D52  A$fb_app_counter$2694              fb_app_counter
     0C:   00000D53  A$fb_app_counter$2695              fb_app_counter
     0C:   00000D54  A$fb_app_counter$2696              fb_app_counter
     0C:   00000D55  A$fb_app_counter$2697              fb_app_counter
     0C:   00000D56  A$fb_app_counter$2698              fb_app_counter
     0C:   00000D58  A$fb_app_counter$2699              fb_app_counter
     0C:   00000D59  A$fb_app_counter$2700              fb_app_counter
     0C:   00000D5B  A$fb_app_counter$2701              fb_app_counter
     0C:   00000D5C  A$fb_app_counter$2702              fb_app_counter
     0C:   00000D5E  A$fb_app_counter$2703              fb_app_counter
     0C:   00000D5F  A$fb_app_counter$2704              fb_app_counter
     0C:   00000D61  A$fb_app_counter$2707              fb_app_counter
     0C:   00000D61  C$fb_app_counter.c$425$6$12        fb_app_counter
     0C:   00000D62  A$fb_app_counter$2708              fb_app_counter
     0C:   00000D64  A$fb_app_counter$2709              fb_app_counter
     0C:   00000D65  A$fb_app_counter$2710              fb_app_counter
     0C:   00000D67  A$fb_app_counter$2711              fb_app_counter
     0C:   00000D68  A$fb_app_counter$2712              fb_app_counter
     0C:   00000D6A  A$fb_app_counter$2713              fb_app_counter
     0C:   00000D6C  A$fb_app_counter$2714              fb_app_counter
     0C:   00000D6E  A$fb_app_counter$2715              fb_app_counter
     0C:   00000D70  A$fb_app_counter$2716              fb_app_counter
     0C:   00000D71  A$fb_app_counter$2717              fb_app_counter
     0C:   00000D72  A$fb_app_counter$2718              fb_app_counter
     0C:   00000D73  A$fb_app_counter$2719              fb_app_counter
     0C:   00000D74  A$fb_app_counter$2720              fb_app_counter
     0C:   00000D75  A$fb_app_counter$2721              fb_app_counter
ASxxxx Linker V02.00 + NoICE + sdld,  page 66.
Hexadecimal  [32-Bits]

Area                                    Addr        Size        Decimal Bytes (Attributes)
--------------------------------        ----        ----        ------- ----- ------------
CSEG                                000000A5    00001BC5 =        7109. bytes (REL,CON,CODE)

      Value  Global                              Global Defined In Module
      -----  --------------------------------   ------------------------
     0C:   00000D76  A$fb_app_counter$2722              fb_app_counter
     0C:   00000D77  A$fb_app_counter$2723              fb_app_counter
     0C:   00000D78  A$fb_app_counter$2724              fb_app_counter
     0C:   00000D79  A$fb_app_counter$2725              fb_app_counter
     0C:   00000D7A  A$fb_app_counter$2726              fb_app_counter
     0C:   00000D7B  A$fb_app_counter$2727              fb_app_counter
     0C:   00000D7C  A$fb_app_counter$2728              fb_app_counter
     0C:   00000D7D  A$fb_app_counter$2729              fb_app_counter
     0C:   00000D7E  A$fb_app_counter$2730              fb_app_counter
     0C:   00000D7F  A$fb_app_counter$2731              fb_app_counter
     0C:   00000D80  A$fb_app_counter$2732              fb_app_counter
     0C:   00000D81  A$fb_app_counter$2733              fb_app_counter
     0C:   00000D83  A$fb_app_counter$2734              fb_app_counter
     0C:   00000D85  A$fb_app_counter$2735              fb_app_counter
     0C:   00000D87  A$fb_app_counter$2739              fb_app_counter
     0C:   00000D87  C$fb_app_counter.c$428$6$13        fb_app_counter
     0C:   00000D89  A$fb_app_counter$2740              fb_app_counter
     0C:   00000D8A  A$fb_app_counter$2741              fb_app_counter
     0C:   00000D8C  A$fb_app_counter$2742              fb_app_counter
     0C:   00000D8D  A$fb_app_counter$2743              fb_app_counter
     0C:   00000D8E  A$fb_app_counter$2744              fb_app_counter
     0C:   00000D8F  A$fb_app_counter$2745              fb_app_counter
     0C:   00000D90  A$fb_app_counter$2746              fb_app_counter
     0C:   00000D91  A$fb_app_counter$2747              fb_app_counter
     0C:   00000D92  A$fb_app_counter$2748              fb_app_counter
     0C:   00000D93  A$fb_app_counter$2751              fb_app_counter
     0C:   00000D93  C$fb_app_counter.c$429$6$13        fb_app_counter
     0C:   00000D95  A$fb_app_counter$2752              fb_app_counter
     0C:   00000D97  A$fb_app_counter$2756              fb_app_counter
     0C:   00000D99  A$fb_app_counter$2757              fb_app_counter
     0C:   00000D9B  A$fb_app_counter$2758              fb_app_counter
     0C:   00000D9C  A$fb_app_counter$2759              fb_app_counter
     0C:   00000D9F  A$fb_app_counter$2760              fb_app_counter
     0C:   00000DA1  A$fb_app_counter$2761              fb_app_counter
     0C:   00000DA3  A$fb_app_counter$2762              fb_app_counter
     0C:   00000DA4  A$fb_app_counter$2763              fb_app_counter
     0C:   00000DA6  A$fb_app_counter$2764              fb_app_counter
     0C:   00000DA7  A$fb_app_counter$2765              fb_app_counter
     0C:   00000DA9  A$fb_app_counter$2766              fb_app_counter
     0C:   00000DAA  A$fb_app_counter$2767              fb_app_counter
     0C:   00000DAC  A$fb_app_counter$2768              fb_app_counter
     0C:   00000DAE  A$fb_app_counter$2769              fb_app_counter
     0C:   00000DB0  A$fb_app_counter$2770              fb_app_counter
     0C:   00000DB2  A$fb_app_counter$2771              fb_app_counter
     0C:   00000DB4  A$fb_app_counter$2772              fb_app_counter
     0C:   00000DB6  A$fb_app_counter$2773              fb_app_counter
     0C:   00000DB8  A$fb_app_counter$2774              fb_app_counter
     0C:   00000DBA  A$fb_app_counter$2775              fb_app_counter
     0C:   00000DBD  A$fb_app_counter$2776              fb_app_counter
     0C:   00000DBE  A$fb_app_counter$2777              fb_app_counter
     0C:   00000DC0  A$fb_app_counter$2778              fb_app_counter
ASxxxx Linker V02.00 + NoICE + sdld,  page 67.
Hexadecimal  [32-Bits]

Area                                    Addr        Size        Decimal Bytes (Attributes)
--------------------------------        ----        ----        ------- ----- ------------
CSEG                                000000A5    00001BC5 =        7109. bytes (REL,CON,CODE)

      Value  Global                              Global Defined In Module
      -----  --------------------------------   ------------------------
     0C:   00000DC3  A$fb_app_counter$2779              fb_app_counter
     0C:   00000DC5  A$fb_app_counter$2780              fb_app_counter
     0C:   00000DC7  A$fb_app_counter$2781              fb_app_counter
     0C:   00000DC9  A$fb_app_counter$2782              fb_app_counter
     0C:   00000DCA  A$fb_app_counter$2783              fb_app_counter
     0C:   00000DCC  A$fb_app_counter$2784              fb_app_counter
     0C:   00000DCE  A$fb_app_counter$2785              fb_app_counter
     0C:   00000DD0  A$fb_app_counter$2786              fb_app_counter
     0C:   00000DD2  A$fb_app_counter$2787              fb_app_counter
     0C:   00000DD3  A$fb_app_counter$2788              fb_app_counter
     0C:   00000DD5  A$fb_app_counter$2789              fb_app_counter
     0C:   00000DD6  A$fb_app_counter$2790              fb_app_counter
     0C:   00000DD8  A$fb_app_counter$2791              fb_app_counter
     0C:   00000DD9  A$fb_app_counter$2792              fb_app_counter
     0C:   00000DDB  A$fb_app_counter$2793              fb_app_counter
     0C:   00000DDC  A$fb_app_counter$2794              fb_app_counter
     0C:   00000DDE  A$fb_app_counter$2797              fb_app_counter
     0C:   00000DE0  A$fb_app_counter$2798              fb_app_counter
     0C:   00000DE2  A$fb_app_counter$2804              fb_app_counter
     0C:   00000DE2  C$fb_app_counter.c$432$4$10        fb_app_counter
     0C:   00000DE2  C$fb_app_counter.c$433$4$10        fb_app_counter
     0C:   00000DE4  A$fb_app_counter$2805              fb_app_counter
     0C:   00000DE6  A$fb_app_counter$2806              fb_app_counter
     0C:   00000DE8  A$fb_app_counter$2807              fb_app_counter
     0C:   00000DEA  A$fb_app_counter$2808              fb_app_counter
     0C:   00000DEC  A$fb_app_counter$2809              fb_app_counter
     0C:   00000DEE  A$fb_app_counter$2810              fb_app_counter
     0C:   00000DF0  A$fb_app_counter$2811              fb_app_counter
     0C:   00000DF1  A$fb_app_counter$2812              fb_app_counter
     0C:   00000DF3  A$fb_app_counter$2813              fb_app_counter
     0C:   00000DF4  A$fb_app_counter$2814              fb_app_counter
     0C:   00000DF6  A$fb_app_counter$2815              fb_app_counter
     0C:   00000DF7  A$fb_app_counter$2816              fb_app_counter
     0C:   00000DF9  A$fb_app_counter$2817              fb_app_counter
     0C:   00000DFA  A$fb_app_counter$2818              fb_app_counter
     0C:   00000DFB  A$fb_app_counter$2819              fb_app_counter
     0C:   00000DFE  A$fb_app_counter$2820              fb_app_counter
     0C:   00000E00  A$fb_app_counter$2821              fb_app_counter
     0C:   00000E02  A$fb_app_counter$2822              fb_app_counter
     0C:   00000E04  A$fb_app_counter$2823              fb_app_counter
     0C:   00000E05  A$fb_app_counter$2824              fb_app_counter
     0C:   00000E07  A$fb_app_counter$2825              fb_app_counter
     0C:   00000E09  A$fb_app_counter$2826              fb_app_counter
     0C:   00000E0B  A$fb_app_counter$2827              fb_app_counter
     0C:   00000E0D  A$fb_app_counter$2828              fb_app_counter
     0C:   00000E0E  A$fb_app_counter$2829              fb_app_counter
     0C:   00000E10  A$fb_app_counter$2830              fb_app_counter
     0C:   00000E11  A$fb_app_counter$2831              fb_app_counter
     0C:   00000E13  A$fb_app_counter$2832              fb_app_counter
     0C:   00000E14  A$fb_app_counter$2833              fb_app_counter
     0C:   00000E16  A$fb_app_counter$2834              fb_app_counter
ASxxxx Linker V02.00 + NoICE + sdld,  page 68.
Hexadecimal  [32-Bits]

Area                                    Addr        Size        Decimal Bytes (Attributes)
--------------------------------        ----        ----        ------- ----- ------------
CSEG                                000000A5    00001BC5 =        7109. bytes (REL,CON,CODE)

      Value  Global                              Global Defined In Module
      -----  --------------------------------   ------------------------
     0C:   00000E17  A$fb_app_counter$2835              fb_app_counter
     0C:   00000E19  A$fb_app_counter$2838              fb_app_counter
     0C:   00000E19  C$fb_app_counter.c$434$4$10        fb_app_counter
     0C:   00000E1B  A$fb_app_counter$2839              fb_app_counter
     0C:   00000E1D  A$fb_app_counter$2840              fb_app_counter
     0C:   00000E1E  A$fb_app_counter$2841              fb_app_counter
     0C:   00000E21  A$fb_app_counter$2842              fb_app_counter
     0C:   00000E23  A$fb_app_counter$2844              fb_app_counter
     0C:   00000E26  A$fb_app_counter$2846              fb_app_counter
     0C:   00000E28  A$fb_app_counter$2847              fb_app_counter
     0C:   00000E29  A$fb_app_counter$2848              fb_app_counter
     0C:   00000E2B  A$fb_app_counter$2849              fb_app_counter
     0C:   00000E2C  A$fb_app_counter$2850              fb_app_counter
     0C:   00000E2E  A$fb_app_counter$2851              fb_app_counter
     0C:   00000E2F  A$fb_app_counter$2852              fb_app_counter
     0C:   00000E31  A$fb_app_counter$2853              fb_app_counter
     0C:   00000E32  A$fb_app_counter$2854              fb_app_counter
     0C:   00000E33  A$fb_app_counter$2855              fb_app_counter
     0C:   00000E36  A$fb_app_counter$2856              fb_app_counter
     0C:   00000E38  A$fb_app_counter$2857              fb_app_counter
     0C:   00000E3A  A$fb_app_counter$2858              fb_app_counter
     0C:   00000E3C  A$fb_app_counter$2859              fb_app_counter
     0C:   00000E3D  A$fb_app_counter$2860              fb_app_counter
     0C:   00000E3F  A$fb_app_counter$2861              fb_app_counter
     0C:   00000E40  A$fb_app_counter$2862              fb_app_counter
     0C:   00000E42  A$fb_app_counter$2863              fb_app_counter
     0C:   00000E43  A$fb_app_counter$2864              fb_app_counter
     0C:   00000E44  A$fb_app_counter$2865              fb_app_counter
     0C:   00000E46  A$fb_app_counter$2866              fb_app_counter
     0C:   00000E47  A$fb_app_counter$2867              fb_app_counter
     0C:   00000E48  A$fb_app_counter$2868              fb_app_counter
     0C:   00000E49  A$fb_app_counter$2869              fb_app_counter
     0C:   00000E4A  A$fb_app_counter$2870              fb_app_counter
     0C:   00000E4D  A$fb_app_counter$2874              fb_app_counter
     0C:   00000E4D  C$fb_app_counter.c$458$3$14        fb_app_counter
     0C:   00000E4E  A$fb_app_counter$2875              fb_app_counter
     0C:   00000E50  A$fb_app_counter$2876              fb_app_counter
     0C:   00000E52  A$fb_app_counter$2877              fb_app_counter
     0C:   00000E54  A$fb_app_counter$2878              fb_app_counter
     0C:   00000E56  A$fb_app_counter$2879              fb_app_counter
     0C:   00000E57  A$fb_app_counter$2880              fb_app_counter
     0C:   00000E59  A$fb_app_counter$2881              fb_app_counter
     0C:   00000E5B  A$fb_app_counter$2882              fb_app_counter
     0C:   00000E5C  A$fb_app_counter$2883              fb_app_counter
     0C:   00000E5D  A$fb_app_counter$2884              fb_app_counter
     0C:   00000E5E  A$fb_app_counter$2885              fb_app_counter
     0C:   00000E5F  A$fb_app_counter$2886              fb_app_counter
     0C:   00000E60  A$fb_app_counter$2887              fb_app_counter
     0C:   00000E61  A$fb_app_counter$2888              fb_app_counter
     0C:   00000E62  A$fb_app_counter$2889              fb_app_counter
     0C:   00000E63  A$fb_app_counter$2890              fb_app_counter
ASxxxx Linker V02.00 + NoICE + sdld,  page 69.
Hexadecimal  [32-Bits]

Area                                    Addr        Size        Decimal Bytes (Attributes)
--------------------------------        ----        ----        ------- ----- ------------
CSEG                                000000A5    00001BC5 =        7109. bytes (REL,CON,CODE)

      Value  Global                              Global Defined In Module
      -----  --------------------------------   ------------------------
     0C:   00000E64  A$fb_app_counter$2891              fb_app_counter
     0C:   00000E65  A$fb_app_counter$2892              fb_app_counter
     0C:   00000E66  A$fb_app_counter$2893              fb_app_counter
     0C:   00000E67  A$fb_app_counter$2894              fb_app_counter
     0C:   00000E68  A$fb_app_counter$2895              fb_app_counter
     0C:   00000E69  A$fb_app_counter$2896              fb_app_counter
     0C:   00000E6A  A$fb_app_counter$2897              fb_app_counter
     0C:   00000E6C  A$fb_app_counter$2898              fb_app_counter
     0C:   00000E6D  A$fb_app_counter$2899              fb_app_counter
     0C:   00000E70  A$fb_app_counter$2900              fb_app_counter
     0C:   00000E71  A$fb_app_counter$2901              fb_app_counter
     0C:   00000E72  A$fb_app_counter$2902              fb_app_counter
     0C:   00000E74  A$fb_app_counter$2903              fb_app_counter
     0C:   00000E75  A$fb_app_counter$2904              fb_app_counter
     0C:   00000E78  A$fb_app_counter$2905              fb_app_counter
     0C:   00000E79  A$fb_app_counter$2906              fb_app_counter
     0C:   00000E7A  A$fb_app_counter$2907              fb_app_counter
     0C:   00000E7C  A$fb_app_counter$2908              fb_app_counter
     0C:   00000E7E  A$fb_app_counter$2909              fb_app_counter
     0C:   00000E80  A$fb_app_counter$2910              fb_app_counter
     0C:   00000E81  A$fb_app_counter$2911              fb_app_counter
     0C:   00000E83  A$fb_app_counter$2912              fb_app_counter
     0C:   00000E84  A$fb_app_counter$2913              fb_app_counter
     0C:   00000E86  A$fb_app_counter$2914              fb_app_counter
     0C:   00000E88  A$fb_app_counter$2915              fb_app_counter
     0C:   00000E8A  A$fb_app_counter$2916              fb_app_counter
     0C:   00000E8C  A$fb_app_counter$2917              fb_app_counter
     0C:   00000E8E  A$fb_app_counter$2918              fb_app_counter
     0C:   00000E90  A$fb_app_counter$2919              fb_app_counter
     0C:   00000E92  A$fb_app_counter$2920              fb_app_counter
     0C:   00000E94  A$fb_app_counter$2921              fb_app_counter
     0C:   00000E96  A$fb_app_counter$2922              fb_app_counter
     0C:   00000E98  A$fb_app_counter$2923              fb_app_counter
     0C:   00000E9A  A$fb_app_counter$2924              fb_app_counter
     0C:   00000E9B  A$fb_app_counter$2925              fb_app_counter
     0C:   00000E9D  A$fb_app_counter$2926              fb_app_counter
     0C:   00000E9E  A$fb_app_counter$2927              fb_app_counter
     0C:   00000EA0  A$fb_app_counter$2928              fb_app_counter
     0C:   00000EA1  A$fb_app_counter$2929              fb_app_counter
     0C:   00000EA3  A$fb_app_counter$2930              fb_app_counter
     0C:   00000EA4  A$fb_app_counter$2931              fb_app_counter
     0C:   00000EA5  A$fb_app_counter$2932              fb_app_counter
     0C:   00000EA8  A$fb_app_counter$2933              fb_app_counter
     0C:   00000EA9  A$fb_app_counter$2934              fb_app_counter
     0C:   00000EAB  A$fb_app_counter$2935              fb_app_counter
     0C:   00000EAD  A$fb_app_counter$2936              fb_app_counter
     0C:   00000EAE  A$fb_app_counter$2937              fb_app_counter
     0C:   00000EB0  A$fb_app_counter$2938              fb_app_counter
     0C:   00000EB1  A$fb_app_counter$2939              fb_app_counter
     0C:   00000EB3  A$fb_app_counter$2940              fb_app_counter
     0C:   00000EB4  A$fb_app_counter$2941              fb_app_counter
ASxxxx Linker V02.00 + NoICE + sdld,  page 70.
Hexadecimal  [32-Bits]

Area                                    Addr        Size        Decimal Bytes (Attributes)
--------------------------------        ----        ----        ------- ----- ------------
CSEG                                000000A5    00001BC5 =        7109. bytes (REL,CON,CODE)

      Value  Global                              Global Defined In Module
      -----  --------------------------------   ------------------------
     0C:   00000EB6  A$fb_app_counter$2942              fb_app_counter
     0C:   00000EB7  A$fb_app_counter$2943              fb_app_counter
     0C:   00000EB8  A$fb_app_counter$2944              fb_app_counter
     0C:   00000EBA  A$fb_app_counter$2945              fb_app_counter
     0C:   00000EBC  A$fb_app_counter$2946              fb_app_counter
     0C:   00000EBE  A$fb_app_counter$2947              fb_app_counter
     0C:   00000EC0  A$fb_app_counter$2948              fb_app_counter
     0C:   00000EC1  A$fb_app_counter$2949              fb_app_counter
     0C:   00000EC2  A$fb_app_counter$2950              fb_app_counter
     0C:   00000EC5  A$fb_app_counter$2951              fb_app_counter
     0C:   00000EC6  A$fb_app_counter$2952              fb_app_counter
     0C:   00000EC7  A$fb_app_counter$2953              fb_app_counter
     0C:   00000EC9  A$fb_app_counter$2954              fb_app_counter
     0C:   00000ECC  A$fb_app_counter$2955              fb_app_counter
     0C:   00000ECD  A$fb_app_counter$2956              fb_app_counter
     0C:   00000ECE  A$fb_app_counter$2957              fb_app_counter
     0C:   00000ECF  A$fb_app_counter$2958              fb_app_counter
     0C:   00000ED1  A$fb_app_counter$2959              fb_app_counter
     0C:   00000ED3  A$fb_app_counter$2960              fb_app_counter
     0C:   00000ED5  A$fb_app_counter$2961              fb_app_counter
     0C:   00000ED6  A$fb_app_counter$2962              fb_app_counter
     0C:   00000ED8  A$fb_app_counter$2963              fb_app_counter
     0C:   00000ED9  A$fb_app_counter$2964              fb_app_counter
     0C:   00000EDB  A$fb_app_counter$2965              fb_app_counter
     0C:   00000EDC  A$fb_app_counter$2966              fb_app_counter
     0C:   00000EDD  A$fb_app_counter$2967              fb_app_counter
     0C:   00000EDF  A$fb_app_counter$2968              fb_app_counter
     0C:   00000EE1  A$fb_app_counter$2969              fb_app_counter
     0C:   00000EE3  A$fb_app_counter$2970              fb_app_counter
     0C:   00000EE4  A$fb_app_counter$2971              fb_app_counter
     0C:   00000EE5  A$fb_app_counter$2972              fb_app_counter
     0C:   00000EE6  A$fb_app_counter$2973              fb_app_counter
     0C:   00000EE8  A$fb_app_counter$2974              fb_app_counter
     0C:   00000EEA  A$fb_app_counter$2975              fb_app_counter
     0C:   00000EEB  A$fb_app_counter$2976              fb_app_counter
     0C:   00000EEC  A$fb_app_counter$2977              fb_app_counter
     0C:   00000EEE  A$fb_app_counter$2978              fb_app_counter
     0C:   00000EEF  A$fb_app_counter$2979              fb_app_counter
     0C:   00000EF0  A$fb_app_counter$2980              fb_app_counter
     0C:   00000EF2  A$fb_app_counter$2981              fb_app_counter
     0C:   00000EF3  A$fb_app_counter$2982              fb_app_counter
     0C:   00000EF4  A$fb_app_counter$2983              fb_app_counter
     0C:   00000EF6  A$fb_app_counter$2984              fb_app_counter
     0C:   00000EF7  A$fb_app_counter$2985              fb_app_counter
     0C:   00000EF8  A$fb_app_counter$2986              fb_app_counter
     0C:   00000EFA  A$fb_app_counter$2987              fb_app_counter
     0C:   00000EFC  A$fb_app_counter$2988              fb_app_counter
     0C:   00000EFD  A$fb_app_counter$2989              fb_app_counter
     0C:   00000EFF  A$fb_app_counter$2990              fb_app_counter
     0C:   00000F00  A$fb_app_counter$2991              fb_app_counter
     0C:   00000F02  A$fb_app_counter$2992              fb_app_counter
ASxxxx Linker V02.00 + NoICE + sdld,  page 71.
Hexadecimal  [32-Bits]

Area                                    Addr        Size        Decimal Bytes (Attributes)
--------------------------------        ----        ----        ------- ----- ------------
CSEG                                000000A5    00001BC5 =        7109. bytes (REL,CON,CODE)

      Value  Global                              Global Defined In Module
      -----  --------------------------------   ------------------------
     0C:   00000F03  A$fb_app_counter$2993              fb_app_counter
     0C:   00000F05  A$fb_app_counter$2994              fb_app_counter
     0C:   00000F06  A$fb_app_counter$2995              fb_app_counter
     0C:   00000F08  A$fb_app_counter$2998              fb_app_counter
     0C:   00000F08  C$fb_app_counter.c$459$3$14        fb_app_counter
     0C:   00000F0A  A$fb_app_counter$2999              fb_app_counter
     0C:   00000F0C  A$fb_app_counter$3000              fb_app_counter
     0C:   00000F0D  A$fb_app_counter$3001              fb_app_counter
     0C:   00000F10  A$fb_app_counter$3002              fb_app_counter
     0C:   00000F12  A$fb_app_counter$3004              fb_app_counter
     0C:   00000F14  A$fb_app_counter$3005              fb_app_counter
     0C:   00000F16  A$fb_app_counter$3006              fb_app_counter
     0C:   00000F17  A$fb_app_counter$3009              fb_app_counter
     0C:   00000F17  C$fb_app_counter.c$460$4$15        fb_app_counter
     0C:   00000F1A  A$fb_app_counter$3010              fb_app_counter
     0C:   00000F1C  A$fb_app_counter$3014              fb_app_counter
     0C:   00000F1C  C$fb_app_counter.c$461$4$15        fb_app_counter
     0C:   00000F1E  A$fb_app_counter$3015              fb_app_counter
     0C:   00000F1F  A$fb_app_counter$3016              fb_app_counter
     0C:   00000F20  A$fb_app_counter$3017              fb_app_counter
     0C:   00000F21  A$fb_app_counter$3018              fb_app_counter
     0C:   00000F22  A$fb_app_counter$3019              fb_app_counter
     0C:   00000F23  A$fb_app_counter$3020              fb_app_counter
     0C:   00000F24  A$fb_app_counter$3021              fb_app_counter
     0C:   00000F25  A$fb_app_counter$3022              fb_app_counter
     0C:   00000F26  A$fb_app_counter$3023              fb_app_counter
     0C:   00000F27  A$fb_app_counter$3028              fb_app_counter
     0C:   00000F27  C$fb_app_counter.c$462$4$15        fb_app_counter
     0C:   00000F27  C$fb_app_counter.c$463$4$15        fb_app_counter
     0C:   00000F29  A$fb_app_counter$3032              fb_app_counter
     0C:   00000F29  C$fb_app_counter.c$464$4$15        fb_app_counter
     0C:   00000F2B  A$fb_app_counter$3033              fb_app_counter
     0C:   00000F2C  A$fb_app_counter$3034              fb_app_counter
     0C:   00000F2E  A$fb_app_counter$3035              fb_app_counter
     0C:   00000F2F  A$fb_app_counter$3036              fb_app_counter
     0C:   00000F31  A$fb_app_counter$3037              fb_app_counter
     0C:   00000F32  A$fb_app_counter$3038              fb_app_counter
     0C:   00000F34  A$fb_app_counter$3039              fb_app_counter
     0C:   00000F35  A$fb_app_counter$3040              fb_app_counter
     0C:   00000F36  A$fb_app_counter$3041              fb_app_counter
     0C:   00000F39  A$fb_app_counter$3042              fb_app_counter
     0C:   00000F3B  A$fb_app_counter$3043              fb_app_counter
     0C:   00000F3D  A$fb_app_counter$3044              fb_app_counter
     0C:   00000F3F  A$fb_app_counter$3045              fb_app_counter
     0C:   00000F40  A$fb_app_counter$3046              fb_app_counter
     0C:   00000F42  A$fb_app_counter$3047              fb_app_counter
     0C:   00000F43  A$fb_app_counter$3048              fb_app_counter
     0C:   00000F45  A$fb_app_counter$3049              fb_app_counter
     0C:   00000F46  A$fb_app_counter$3050              fb_app_counter
     0C:   00000F47  A$fb_app_counter$3051              fb_app_counter
     0C:   00000F49  A$fb_app_counter$3052              fb_app_counter
ASxxxx Linker V02.00 + NoICE + sdld,  page 72.
Hexadecimal  [32-Bits]

Area                                    Addr        Size        Decimal Bytes (Attributes)
--------------------------------        ----        ----        ------- ----- ------------
CSEG                                000000A5    00001BC5 =        7109. bytes (REL,CON,CODE)

      Value  Global                              Global Defined In Module
      -----  --------------------------------   ------------------------
     0C:   00000F4A  A$fb_app_counter$3053              fb_app_counter
     0C:   00000F4B  A$fb_app_counter$3054              fb_app_counter
     0C:   00000F4C  A$fb_app_counter$3055              fb_app_counter
     0C:   00000F4D  A$fb_app_counter$3061              fb_app_counter
     0C:   00000F4D  C$fb_app_counter.c$467$1$1         fb_app_counter
     0C:   00000F4D  C$fb_app_counter.c$470$1$1         fb_app_counter
     0C:   00000F4F  A$fb_app_counter$3062              fb_app_counter
     0C:   00000F50  A$fb_app_counter$3063              fb_app_counter
     0C:   00000F52  A$fb_app_counter$3064              fb_app_counter
     0C:   00000F53  A$fb_app_counter$3065              fb_app_counter
     0C:   00000F55  A$fb_app_counter$3066              fb_app_counter
     0C:   00000F56  A$fb_app_counter$3067              fb_app_counter
     0C:   00000F58  A$fb_app_counter$3068              fb_app_counter
     0C:   00000F59  A$fb_app_counter$3069              fb_app_counter
     0C:   00000F5A  A$fb_app_counter$3070              fb_app_counter
     0C:   00000F5D  A$fb_app_counter$3071              fb_app_counter
     0C:   00000F5F  A$fb_app_counter$3074              fb_app_counter
     0C:   00000F5F  C$fb_app_counter.c$471$1$1         fb_app_counter
     0C:   00000F5F  XG$read_obj_value$0$0              fb_app_counter
     0C:   00000F60  A$fb_app_counter$3090              fb_app_counter
     0C:   00000F60  C$fb_app_counter.c$475$1$1         fb_app_counter
     0C:   00000F60  G$write_obj_value$0$0              fb_app_counter
     0C:   00000F60  _write_obj_value                   fb_app_counter
     0C:   00000F62  A$fb_app_counter$3091              fb_app_counter
     0C:   00000F64  A$fb_app_counter$3092              fb_app_counter
     0C:   00000F66  A$fb_app_counter$3093              fb_app_counter
     0C:   00000F68  A$fb_app_counter$3094              fb_app_counter
     0C:   00000F6A  A$fb_app_counter$3095              fb_app_counter
     0C:   00000F6C  A$fb_app_counter$3098              fb_app_counter
     0C:   00000F6C  C$fb_app_counter.c$479$1$1         fb_app_counter
     0C:   00000F6F  A$fb_app_counter$3099              fb_app_counter
     0C:   00000F70  A$fb_app_counter$3100              fb_app_counter
     0C:   00000F71  A$fb_app_counter$3101              fb_app_counter
     0C:   00000F72  A$fb_app_counter$3102              fb_app_counter
     0C:   00000F73  A$fb_app_counter$3103              fb_app_counter
     0C:   00000F76  A$fb_app_counter$3104              fb_app_counter
     0C:   00000F77  A$fb_app_counter$3105              fb_app_counter
     0C:   00000F78  A$fb_app_counter$3106              fb_app_counter
     0C:   00000F7A  A$fb_app_counter$3107              fb_app_counter
     0C:   00000F7D  A$fb_app_counter$3108              fb_app_counter
     0C:   00000F7E  A$fb_app_counter$3111              fb_app_counter
     0C:   00000F7E  C$fb_app_counter.c$481$1$1         fb_app_counter
     0C:   00000F7F  A$fb_app_counter$3112              fb_app_counter
     0C:   00000F81  A$fb_app_counter$3113              fb_app_counter
     0C:   00000F83  A$fb_app_counter$3114              fb_app_counter
     0C:   00000F84  A$fb_app_counter$3115              fb_app_counter
     0C:   00000F85  A$fb_app_counter$3116              fb_app_counter
     0C:   00000F87  A$fb_app_counter$3117              fb_app_counter
     0C:   00000F88  A$fb_app_counter$3118              fb_app_counter
     0C:   00000F8A  A$fb_app_counter$3119              fb_app_counter
     0C:   00000F8C  A$fb_app_counter$3120              fb_app_counter
ASxxxx Linker V02.00 + NoICE + sdld,  page 73.
Hexadecimal  [32-Bits]

Area                                    Addr        Size        Decimal Bytes (Attributes)
--------------------------------        ----        ----        ------- ----- ------------
CSEG                                000000A5    00001BC5 =        7109. bytes (REL,CON,CODE)

      Value  Global                              Global Defined In Module
      -----  --------------------------------   ------------------------
     0C:   00000F8D  A$fb_app_counter$3121              fb_app_counter
     0C:   00000F8F  A$fb_app_counter$3122              fb_app_counter
     0C:   00000F90  A$fb_app_counter$3123              fb_app_counter
     0C:   00000F92  A$fb_app_counter$3124              fb_app_counter
     0C:   00000F94  A$fb_app_counter$3125              fb_app_counter
     0C:   00000F95  A$fb_app_counter$3126              fb_app_counter
     0C:   00000F97  A$fb_app_counter$3130              fb_app_counter
     0C:   00000F97  C$fb_app_counter.c$482$1$1         fb_app_counter
     0C:   00000F9A  A$fb_app_counter$3132              fb_app_counter
     0C:   00000F9C  A$fb_app_counter$3133              fb_app_counter
     0C:   00000F9F  A$fb_app_counter$3135              fb_app_counter
     0C:   00000FA0  A$fb_app_counter$3136              fb_app_counter
     0C:   00000FA2  A$fb_app_counter$3137              fb_app_counter
     0C:   00000FA4  A$fb_app_counter$3138              fb_app_counter
     0C:   00000FA7  A$fb_app_counter$3142              fb_app_counter
     0C:   00000FA7  C$fb_app_counter.c$484$2$2         fb_app_counter
     0C:   00000FA9  A$fb_app_counter$3143              fb_app_counter
     0C:   00000FAB  A$fb_app_counter$3144              fb_app_counter
     0C:   00000FAC  A$fb_app_counter$3145              fb_app_counter
     0C:   00000FAE  A$fb_app_counter$3146              fb_app_counter
     0C:   00000FAF  A$fb_app_counter$3147              fb_app_counter
     0C:   00000FB0  A$fb_app_counter$3148              fb_app_counter
     0C:   00000FB2  A$fb_app_counter$3149              fb_app_counter
     0C:   00000FB3  A$fb_app_counter$3150              fb_app_counter
     0C:   00000FB5  A$fb_app_counter$3151              fb_app_counter
     0C:   00000FB7  A$fb_app_counter$3152              fb_app_counter
     0C:   00000FB9  A$fb_app_counter$3153              fb_app_counter
     0C:   00000FBB  A$fb_app_counter$3154              fb_app_counter
     0C:   00000FBD  A$fb_app_counter$3156              fb_app_counter
     0C:   00000FBE  A$fb_app_counter$3157              fb_app_counter
     0C:   00000FBF  A$fb_app_counter$3158              fb_app_counter
     0C:   00000FC0  A$fb_app_counter$3159              fb_app_counter
     0C:   00000FC1  A$fb_app_counter$3160              fb_app_counter
     0C:   00000FC2  A$fb_app_counter$3161              fb_app_counter
     0C:   00000FC3  A$fb_app_counter$3163              fb_app_counter
     0C:   00000FC6  A$fb_app_counter$3164              fb_app_counter
     0C:   00000FC7  A$fb_app_counter$3165              fb_app_counter
     0C:   00000FC8  A$fb_app_counter$3166              fb_app_counter
     0C:   00000FC9  A$fb_app_counter$3167              fb_app_counter
     0C:   00000FCA  A$fb_app_counter$3168              fb_app_counter
     0C:   00000FCB  A$fb_app_counter$3169              fb_app_counter
     0C:   00000FCC  A$fb_app_counter$3170              fb_app_counter
     0C:   00000FCD  A$fb_app_counter$3171              fb_app_counter
     0C:   00000FCF  A$fb_app_counter$3172              fb_app_counter
     0C:   00000FD0  A$fb_app_counter$3173              fb_app_counter
     0C:   00000FD2  A$fb_app_counter$3176              fb_app_counter
     0C:   00000FD4  A$fb_app_counter$3177              fb_app_counter
     0C:   00000FD6  A$fb_app_counter$3178              fb_app_counter
     0C:   00000FD8  A$fb_app_counter$3179              fb_app_counter
     0C:   00000FD9  A$fb_app_counter$3180              fb_app_counter
     0C:   00000FDB  A$fb_app_counter$3181              fb_app_counter
ASxxxx Linker V02.00 + NoICE + sdld,  page 74.
Hexadecimal  [32-Bits]

Area                                    Addr        Size        Decimal Bytes (Attributes)
--------------------------------        ----        ----        ------- ----- ------------
CSEG                                000000A5    00001BC5 =        7109. bytes (REL,CON,CODE)

      Value  Global                              Global Defined In Module
      -----  --------------------------------   ------------------------
     0C:   00000FDC  A$fb_app_counter$3182              fb_app_counter
     0C:   00000FDD  A$fb_app_counter$3183              fb_app_counter
     0C:   00000FDF  A$fb_app_counter$3184              fb_app_counter
     0C:   00000FE1  A$fb_app_counter$3185              fb_app_counter
     0C:   00000FE3  A$fb_app_counter$3186              fb_app_counter
     0C:   00000FE5  A$fb_app_counter$3187              fb_app_counter
     0C:   00000FE7  A$fb_app_counter$3188              fb_app_counter
     0C:   00000FE9  A$fb_app_counter$3189              fb_app_counter
     0C:   00000FEA  A$fb_app_counter$3190              fb_app_counter
     0C:   00000FEC  A$fb_app_counter$3191              fb_app_counter
     0C:   00000FED  A$fb_app_counter$3192              fb_app_counter
     0C:   00000FEF  A$fb_app_counter$3193              fb_app_counter
     0C:   00000FF0  A$fb_app_counter$3194              fb_app_counter
     0C:   00000FF2  A$fb_app_counter$3195              fb_app_counter
     0C:   00000FF3  A$fb_app_counter$3196              fb_app_counter
     0C:   00000FF5  A$fb_app_counter$3197              fb_app_counter
     0C:   00000FF6  A$fb_app_counter$3198              fb_app_counter
     0C:   00000FF7  A$fb_app_counter$3199              fb_app_counter
     0C:   00000FF8  A$fb_app_counter$3200              fb_app_counter
     0C:   00000FFA  A$fb_app_counter$3202              fb_app_counter
     0C:   00000FFB  A$fb_app_counter$3203              fb_app_counter
     0C:   00000FFD  A$fb_app_counter$3204              fb_app_counter
     0C:   00000FFE  A$fb_app_counter$3205              fb_app_counter
     0C:   00000FFF  A$fb_app_counter$3206              fb_app_counter
     0C:   00001000  A$fb_app_counter$3207              fb_app_counter
     0C:   00001001  A$fb_app_counter$3208              fb_app_counter
     0C:   00001002  A$fb_app_counter$3209              fb_app_counter
     0C:   00001003  A$fb_app_counter$3210              fb_app_counter
     0C:   00001004  A$fb_app_counter$3211              fb_app_counter
     0C:   00001005  A$fb_app_counter$3212              fb_app_counter
     0C:   00001006  A$fb_app_counter$3213              fb_app_counter
     0C:   00001007  A$fb_app_counter$3214              fb_app_counter
     0C:   00001008  A$fb_app_counter$3215              fb_app_counter
     0C:   00001009  A$fb_app_counter$3216              fb_app_counter
     0C:   0000100A  A$fb_app_counter$3217              fb_app_counter
     0C:   0000100B  A$fb_app_counter$3218              fb_app_counter
     0C:   0000100C  A$fb_app_counter$3219              fb_app_counter
     0C:   0000100D  A$fb_app_counter$3221              fb_app_counter
     0C:   00001010  A$fb_app_counter$3222              fb_app_counter
     0C:   00001012  A$fb_app_counter$3223              fb_app_counter
     0C:   00001014  A$fb_app_counter$3224              fb_app_counter
     0C:   00001016  A$fb_app_counter$3225              fb_app_counter
     0C:   00001018  A$fb_app_counter$3226              fb_app_counter
     0C:   0000101A  A$fb_app_counter$3227              fb_app_counter
     0C:   0000101B  A$fb_app_counter$3228              fb_app_counter
     0C:   0000101C  A$fb_app_counter$3229              fb_app_counter
     0C:   0000101E  A$fb_app_counter$3230              fb_app_counter
     0C:   0000101F  A$fb_app_counter$3231              fb_app_counter
     0C:   00001020  A$fb_app_counter$3232              fb_app_counter
     0C:   00001022  A$fb_app_counter$3233              fb_app_counter
     0C:   00001023  A$fb_app_counter$3234              fb_app_counter
ASxxxx Linker V02.00 + NoICE + sdld,  page 75.
Hexadecimal  [32-Bits]

Area                                    Addr        Size        Decimal Bytes (Attributes)
--------------------------------        ----        ----        ------- ----- ------------
CSEG                                000000A5    00001BC5 =        7109. bytes (REL,CON,CODE)

      Value  Global                              Global Defined In Module
      -----  --------------------------------   ------------------------
     0C:   00001024  A$fb_app_counter$3235              fb_app_counter
     0C:   00001026  A$fb_app_counter$3236              fb_app_counter
     0C:   00001027  A$fb_app_counter$3237              fb_app_counter
     0C:   00001028  A$fb_app_counter$3238              fb_app_counter
     0C:   0000102A  A$fb_app_counter$3239              fb_app_counter
     0C:   0000102C  A$fb_app_counter$3240              fb_app_counter
     0C:   0000102E  A$fb_app_counter$3243              fb_app_counter
     0C:   00001030  A$fb_app_counter$3249              fb_app_counter
     0C:   00001030  C$fb_app_counter.c$485$1$1         fb_app_counter
     0C:   00001030  C$fb_app_counter.c$487$1$1         fb_app_counter
     0C:   00001033  A$fb_app_counter$3251              fb_app_counter
     0C:   00001035  A$fb_app_counter$3252              fb_app_counter
     0C:   00001036  A$fb_app_counter$3253              fb_app_counter
     0C:   00001038  A$fb_app_counter$3254              fb_app_counter
     0C:   0000103A  A$fb_app_counter$3255              fb_app_counter
     0C:   0000103B  A$fb_app_counter$3256              fb_app_counter
     0C:   0000103D  A$fb_app_counter$3257              fb_app_counter
     0C:   0000103F  A$fb_app_counter$3258              fb_app_counter
     0C:   00001041  A$fb_app_counter$3259              fb_app_counter
     0C:   00001042  A$fb_app_counter$3260              fb_app_counter
     0C:   00001044  A$fb_app_counter$3261              fb_app_counter
     0C:   00001045  A$fb_app_counter$3262              fb_app_counter
     0C:   00001047  A$fb_app_counter$3263              fb_app_counter
     0C:   00001049  A$fb_app_counter$3264              fb_app_counter
     0C:   0000104A  A$fb_app_counter$3265              fb_app_counter
     0C:   0000104B  A$fb_app_counter$3266              fb_app_counter
     0C:   0000104C  A$fb_app_counter$3267              fb_app_counter
     0C:   0000104D  A$fb_app_counter$3268              fb_app_counter
     0C:   0000104E  A$fb_app_counter$3269              fb_app_counter
     0C:   0000104F  A$fb_app_counter$3270              fb_app_counter
     0C:   00001050  A$fb_app_counter$3271              fb_app_counter
     0C:   00001051  A$fb_app_counter$3272              fb_app_counter
     0C:   00001052  A$fb_app_counter$3273              fb_app_counter
     0C:   00001053  A$fb_app_counter$3274              fb_app_counter
     0C:   00001054  A$fb_app_counter$3275              fb_app_counter
     0C:   00001055  A$fb_app_counter$3276              fb_app_counter
     0C:   00001056  A$fb_app_counter$3277              fb_app_counter
     0C:   00001057  A$fb_app_counter$3278              fb_app_counter
     0C:   00001058  A$fb_app_counter$3282              fb_app_counter
     0C:   00001058  C$fb_app_counter.c$488$1$1         fb_app_counter
     0C:   0000105B  A$fb_app_counter$3284              fb_app_counter
     0C:   0000105D  A$fb_app_counter$3285              fb_app_counter
     0C:   0000105E  A$fb_app_counter$3286              fb_app_counter
     0C:   00001060  A$fb_app_counter$3287              fb_app_counter
     0C:   00001062  A$fb_app_counter$3288              fb_app_counter
     0C:   00001063  A$fb_app_counter$3289              fb_app_counter
     0C:   00001065  A$fb_app_counter$3290              fb_app_counter
     0C:   00001067  A$fb_app_counter$3291              fb_app_counter
     0C:   00001069  A$fb_app_counter$3292              fb_app_counter
     0C:   0000106A  A$fb_app_counter$3293              fb_app_counter
     0C:   0000106C  A$fb_app_counter$3294              fb_app_counter
ASxxxx Linker V02.00 + NoICE + sdld,  page 76.
Hexadecimal  [32-Bits]

Area                                    Addr        Size        Decimal Bytes (Attributes)
--------------------------------        ----        ----        ------- ----- ------------
CSEG                                000000A5    00001BC5 =        7109. bytes (REL,CON,CODE)

      Value  Global                              Global Defined In Module
      -----  --------------------------------   ------------------------
     0C:   0000106E  A$fb_app_counter$3295              fb_app_counter
     0C:   0000106F  A$fb_app_counter$3296              fb_app_counter
     0C:   00001071  A$fb_app_counter$3297              fb_app_counter
     0C:   00001072  A$fb_app_counter$3298              fb_app_counter
     0C:   00001074  A$fb_app_counter$3299              fb_app_counter
     0C:   00001076  A$fb_app_counter$3300              fb_app_counter
     0C:   00001077  A$fb_app_counter$3301              fb_app_counter
     0C:   00001079  A$fb_app_counter$3305              fb_app_counter
     0C:   00001079  C$fb_app_counter.c$489$1$1         fb_app_counter
     0C:   0000107C  A$fb_app_counter$3307              fb_app_counter
     0C:   0000107E  A$fb_app_counter$3308              fb_app_counter
     0C:   00001081  A$fb_app_counter$3310              fb_app_counter
     0C:   00001082  A$fb_app_counter$3311              fb_app_counter
     0C:   00001084  A$fb_app_counter$3312              fb_app_counter
     0C:   00001086  A$fb_app_counter$3313              fb_app_counter
     0C:   00001089  A$fb_app_counter$3317              fb_app_counter
     0C:   00001089  C$fb_app_counter.c$491$2$3         fb_app_counter
     0C:   0000108B  A$fb_app_counter$3318              fb_app_counter
     0C:   0000108D  A$fb_app_counter$3319              fb_app_counter
     0C:   0000108E  A$fb_app_counter$3320              fb_app_counter
     0C:   00001090  A$fb_app_counter$3321              fb_app_counter
     0C:   00001091  A$fb_app_counter$3322              fb_app_counter
     0C:   00001092  A$fb_app_counter$3323              fb_app_counter
     0C:   00001094  A$fb_app_counter$3324              fb_app_counter
     0C:   00001095  A$fb_app_counter$3325              fb_app_counter
     0C:   00001097  A$fb_app_counter$3326              fb_app_counter
     0C:   00001099  A$fb_app_counter$3327              fb_app_counter
     0C:   0000109B  A$fb_app_counter$3328              fb_app_counter
     0C:   0000109D  A$fb_app_counter$3329              fb_app_counter
     0C:   0000109F  A$fb_app_counter$3331              fb_app_counter
     0C:   000010A0  A$fb_app_counter$3332              fb_app_counter
     0C:   000010A1  A$fb_app_counter$3333              fb_app_counter
     0C:   000010A2  A$fb_app_counter$3334              fb_app_counter
     0C:   000010A3  A$fb_app_counter$3335              fb_app_counter
     0C:   000010A4  A$fb_app_counter$3336              fb_app_counter
     0C:   000010A5  A$fb_app_counter$3338              fb_app_counter
     0C:   000010A8  A$fb_app_counter$3339              fb_app_counter
     0C:   000010A9  A$fb_app_counter$3340              fb_app_counter
     0C:   000010AA  A$fb_app_counter$3341              fb_app_counter
     0C:   000010AB  A$fb_app_counter$3342              fb_app_counter
     0C:   000010AC  A$fb_app_counter$3343              fb_app_counter
     0C:   000010AD  A$fb_app_counter$3344              fb_app_counter
     0C:   000010AE  A$fb_app_counter$3345              fb_app_counter
     0C:   000010AF  A$fb_app_counter$3346              fb_app_counter
     0C:   000010B1  A$fb_app_counter$3347              fb_app_counter
     0C:   000010B2  A$fb_app_counter$3348              fb_app_counter
     0C:   000010B4  A$fb_app_counter$3351              fb_app_counter
     0C:   000010B6  A$fb_app_counter$3352              fb_app_counter
     0C:   000010B8  A$fb_app_counter$3353              fb_app_counter
     0C:   000010BA  A$fb_app_counter$3354              fb_app_counter
     0C:   000010BB  A$fb_app_counter$3355              fb_app_counter
ASxxxx Linker V02.00 + NoICE + sdld,  page 77.
Hexadecimal  [32-Bits]

Area                                    Addr        Size        Decimal Bytes (Attributes)
--------------------------------        ----        ----        ------- ----- ------------
CSEG                                000000A5    00001BC5 =        7109. bytes (REL,CON,CODE)

      Value  Global                              Global Defined In Module
      -----  --------------------------------   ------------------------
     0C:   000010BD  A$fb_app_counter$3356              fb_app_counter
     0C:   000010BE  A$fb_app_counter$3357              fb_app_counter
     0C:   000010BF  A$fb_app_counter$3358              fb_app_counter
     0C:   000010C1  A$fb_app_counter$3359              fb_app_counter
     0C:   000010C3  A$fb_app_counter$3360              fb_app_counter
     0C:   000010C5  A$fb_app_counter$3361              fb_app_counter
     0C:   000010C7  A$fb_app_counter$3362              fb_app_counter
     0C:   000010C9  A$fb_app_counter$3363              fb_app_counter
     0C:   000010CB  A$fb_app_counter$3364              fb_app_counter
     0C:   000010CC  A$fb_app_counter$3365              fb_app_counter
     0C:   000010CE  A$fb_app_counter$3366              fb_app_counter
     0C:   000010CF  A$fb_app_counter$3367              fb_app_counter
     0C:   000010D1  A$fb_app_counter$3368              fb_app_counter
     0C:   000010D2  A$fb_app_counter$3369              fb_app_counter
     0C:   000010D4  A$fb_app_counter$3370              fb_app_counter
     0C:   000010D5  A$fb_app_counter$3371              fb_app_counter
     0C:   000010D7  A$fb_app_counter$3372              fb_app_counter
     0C:   000010D8  A$fb_app_counter$3373              fb_app_counter
     0C:   000010D9  A$fb_app_counter$3374              fb_app_counter
     0C:   000010DA  A$fb_app_counter$3375              fb_app_counter
     0C:   000010DC  A$fb_app_counter$3377              fb_app_counter
     0C:   000010DD  A$fb_app_counter$3378              fb_app_counter
     0C:   000010DF  A$fb_app_counter$3379              fb_app_counter
     0C:   000010E0  A$fb_app_counter$3380              fb_app_counter
     0C:   000010E1  A$fb_app_counter$3381              fb_app_counter
     0C:   000010E2  A$fb_app_counter$3382              fb_app_counter
     0C:   000010E3  A$fb_app_counter$3383              fb_app_counter
     0C:   000010E4  A$fb_app_counter$3384              fb_app_counter
     0C:   000010E5  A$fb_app_counter$3385              fb_app_counter
     0C:   000010E6  A$fb_app_counter$3386              fb_app_counter
     0C:   000010E7  A$fb_app_counter$3387              fb_app_counter
     0C:   000010E8  A$fb_app_counter$3388              fb_app_counter
     0C:   000010E9  A$fb_app_counter$3389              fb_app_counter
     0C:   000010EA  A$fb_app_counter$3390              fb_app_counter
     0C:   000010EB  A$fb_app_counter$3391              fb_app_counter
     0C:   000010EC  A$fb_app_counter$3392              fb_app_counter
     0C:   000010ED  A$fb_app_counter$3393              fb_app_counter
     0C:   000010EE  A$fb_app_counter$3394              fb_app_counter
     0C:   000010EF  A$fb_app_counter$3396              fb_app_counter
     0C:   000010F2  A$fb_app_counter$3397              fb_app_counter
     0C:   000010F4  A$fb_app_counter$3398              fb_app_counter
     0C:   000010F6  A$fb_app_counter$3399              fb_app_counter
     0C:   000010F8  A$fb_app_counter$3400              fb_app_counter
     0C:   000010FA  A$fb_app_counter$3401              fb_app_counter
     0C:   000010FC  A$fb_app_counter$3402              fb_app_counter
     0C:   000010FD  A$fb_app_counter$3403              fb_app_counter
     0C:   000010FE  A$fb_app_counter$3404              fb_app_counter
     0C:   00001100  A$fb_app_counter$3405              fb_app_counter
     0C:   00001101  A$fb_app_counter$3406              fb_app_counter
     0C:   00001102  A$fb_app_counter$3407              fb_app_counter
     0C:   00001104  A$fb_app_counter$3408              fb_app_counter
ASxxxx Linker V02.00 + NoICE + sdld,  page 78.
Hexadecimal  [32-Bits]

Area                                    Addr        Size        Decimal Bytes (Attributes)
--------------------------------        ----        ----        ------- ----- ------------
CSEG                                000000A5    00001BC5 =        7109. bytes (REL,CON,CODE)

      Value  Global                              Global Defined In Module
      -----  --------------------------------   ------------------------
     0C:   00001105  A$fb_app_counter$3409              fb_app_counter
     0C:   00001106  A$fb_app_counter$3410              fb_app_counter
     0C:   00001108  A$fb_app_counter$3411              fb_app_counter
     0C:   00001109  A$fb_app_counter$3412              fb_app_counter
     0C:   0000110A  A$fb_app_counter$3413              fb_app_counter
     0C:   0000110C  A$fb_app_counter$3414              fb_app_counter
     0C:   0000110E  A$fb_app_counter$3415              fb_app_counter
     0C:   00001110  A$fb_app_counter$3418              fb_app_counter
     0C:   00001112  A$fb_app_counter$3424              fb_app_counter
     0C:   00001112  C$fb_app_counter.c$492$1$1         fb_app_counter
     0C:   00001112  C$fb_app_counter.c$494$1$1         fb_app_counter
     0C:   00001115  A$fb_app_counter$3426              fb_app_counter
     0C:   00001117  A$fb_app_counter$3427              fb_app_counter
     0C:   00001118  A$fb_app_counter$3428              fb_app_counter
     0C:   0000111A  A$fb_app_counter$3429              fb_app_counter
     0C:   0000111C  A$fb_app_counter$3430              fb_app_counter
     0C:   0000111D  A$fb_app_counter$3431              fb_app_counter
     0C:   0000111F  A$fb_app_counter$3432              fb_app_counter
     0C:   00001121  A$fb_app_counter$3433              fb_app_counter
     0C:   00001123  A$fb_app_counter$3434              fb_app_counter
     0C:   00001124  A$fb_app_counter$3435              fb_app_counter
     0C:   00001126  A$fb_app_counter$3436              fb_app_counter
     0C:   00001127  A$fb_app_counter$3437              fb_app_counter
     0C:   00001129  A$fb_app_counter$3438              fb_app_counter
     0C:   0000112B  A$fb_app_counter$3439              fb_app_counter
     0C:   0000112C  A$fb_app_counter$3440              fb_app_counter
     0C:   0000112D  A$fb_app_counter$3441              fb_app_counter
     0C:   0000112E  A$fb_app_counter$3442              fb_app_counter
     0C:   0000112F  A$fb_app_counter$3443              fb_app_counter
     0C:   00001130  A$fb_app_counter$3444              fb_app_counter
     0C:   00001131  A$fb_app_counter$3445              fb_app_counter
     0C:   00001132  A$fb_app_counter$3446              fb_app_counter
     0C:   00001133  A$fb_app_counter$3447              fb_app_counter
     0C:   00001134  A$fb_app_counter$3448              fb_app_counter
     0C:   00001135  A$fb_app_counter$3449              fb_app_counter
     0C:   00001136  A$fb_app_counter$3450              fb_app_counter
     0C:   00001137  A$fb_app_counter$3451              fb_app_counter
     0C:   00001138  A$fb_app_counter$3452              fb_app_counter
     0C:   00001139  A$fb_app_counter$3453              fb_app_counter
     0C:   0000113A  A$fb_app_counter$3455              fb_app_counter
     0C:   0000113D  A$fb_app_counter$3456              fb_app_counter
     0C:   0000113F  A$fb_app_counter$3459              fb_app_counter
     0C:   0000113F  C$fb_app_counter.c$497$1$1         fb_app_counter
     0C:   0000113F  XG$write_obj_value$0$0             fb_app_counter
     0C:   00001140  A$fb_app_counter$3472              fb_app_counter
     0C:   00001140  C$fb_app_counter.c$499$1$1         fb_app_counter
     0C:   00001140  C$fb_app_counter.c$502$1$1         fb_app_counter
     0C:   00001140  G$keypad_init$0$0                  fb_app_counter
     0C:   00001140  _keypad_init                       fb_app_counter
     0C:   00001143  A$fb_app_counter$3475              fb_app_counter
     0C:   00001143  C$fb_app_counter.c$504$1$1         fb_app_counter
ASxxxx Linker V02.00 + NoICE + sdld,  page 79.
Hexadecimal  [32-Bits]

Area                                    Addr        Size        Decimal Bytes (Attributes)
--------------------------------        ----        ----        ------- ----- ------------
CSEG                                000000A5    00001BC5 =        7109. bytes (REL,CON,CODE)

      Value  Global                              Global Defined In Module
      -----  --------------------------------   ------------------------
     0C:   00001146  A$fb_app_counter$3478              fb_app_counter
     0C:   00001146  C$fb_app_counter.c$506$1$1         fb_app_counter
     0C:   00001149  A$fb_app_counter$3481              fb_app_counter
     0C:   00001149  C$fb_app_counter.c$509$1$1         fb_app_counter
     0C:   0000114C  A$fb_app_counter$3484              fb_app_counter
     0C:   0000114C  C$fb_app_counter.c$510$1$1         fb_app_counter
     0C:   0000114F  A$fb_app_counter$3487              fb_app_counter
     0C:   0000114F  C$fb_app_counter.c$513$1$1         fb_app_counter
     0C:   00001151  A$fb_app_counter$3490              fb_app_counter
     0C:   00001151  C$fb_app_counter.c$514$1$1         fb_app_counter
     0C:   00001151  XG$keypad_init$0$0                 fb_app_counter
     0C:   00001152  A$fb_app_counter$3505              fb_app_counter
     0C:   00001152  C$fb_app_counter.c$517$1$1         fb_app_counter
     0C:   00001152  C$fb_app_counter.c$523$1$1         fb_app_counter
     0C:   00001152  G$restart_app$0$0                  fb_app_counter
     0C:   00001152  _restart_app                       fb_app_counter
     0C:   00001155  A$fb_app_counter$3508              fb_app_counter
     0C:   00001155  C$fb_app_counter.c$524$1$1         fb_app_counter
     0C:   00001158  A$fb_app_counter$3511              fb_app_counter
     0C:   00001158  C$fb_app_counter.c$525$1$1         fb_app_counter
     0C:   0000115B  A$fb_app_counter$3514              fb_app_counter
     0C:   0000115B  C$fb_app_counter.c$532$1$1         fb_app_counter
     0C:   0000115D  A$fb_app_counter$3517              fb_app_counter
     0C:   0000115D  C$fb_app_counter.c$534$1$1         fb_app_counter
     0C:   00001160  A$fb_app_counter$3520              fb_app_counter
     0C:   00001160  C$fb_app_counter.c$535$1$1         fb_app_counter
     0C:   00001163  A$fb_app_counter$3523              fb_app_counter
     0C:   00001163  C$fb_app_counter.c$536$1$1         fb_app_counter
     0C:   00001166  A$fb_app_counter$3526              fb_app_counter
     0C:   00001166  C$fb_app_counter.c$537$1$1         fb_app_counter
     0C:   00001169  A$fb_app_counter$3529              fb_app_counter
     0C:   00001169  C$fb_app_counter.c$539$1$1         fb_app_counter
     0C:   0000116B  A$fb_app_counter$3532              fb_app_counter
     0C:   0000116B  C$fb_app_counter.c$540$1$1         fb_app_counter
     0C:   0000116E  A$fb_app_counter$3535              fb_app_counter
     0C:   0000116E  C$fb_app_counter.c$541$1$1         fb_app_counter
     0C:   00001171  A$fb_app_counter$3536              fb_app_counter
     0C:   00001174  A$fb_app_counter$3537              fb_app_counter
     0C:   00001177  A$fb_app_counter$3540              fb_app_counter
     0C:   00001177  C$fb_app_counter.c$542$1$1         fb_app_counter
     0C:   0000117A  A$fb_app_counter$3541              fb_app_counter
     0C:   0000117D  A$fb_app_counter$3542              fb_app_counter
     0C:   00001180  A$fb_app_counter$3545              fb_app_counter
     0C:   00001180  C$fb_app_counter.c$543$1$1         fb_app_counter
     0C:   00001183  A$fb_app_counter$3546              fb_app_counter
     0C:   00001186  A$fb_app_counter$3547              fb_app_counter
     0C:   00001189  A$fb_app_counter$3550              fb_app_counter
     0C:   00001189  C$fb_app_counter.c$544$1$1         fb_app_counter
     0C:   0000118C  A$fb_app_counter$3551              fb_app_counter
     0C:   0000118F  A$fb_app_counter$3552              fb_app_counter
     0C:   00001192  A$fb_app_counter$3555              fb_app_counter
ASxxxx Linker V02.00 + NoICE + sdld,  page 80.
Hexadecimal  [32-Bits]

Area                                    Addr        Size        Decimal Bytes (Attributes)
--------------------------------        ----        ----        ------- ----- ------------
CSEG                                000000A5    00001BC5 =        7109. bytes (REL,CON,CODE)

      Value  Global                              Global Defined In Module
      -----  --------------------------------   ------------------------
     0C:   00001192  C$fb_app_counter.c$545$1$1         fb_app_counter
     0C:   00001195  A$fb_app_counter$3556              fb_app_counter
     0C:   00001198  A$fb_app_counter$3557              fb_app_counter
     0C:   0000119B  A$fb_app_counter$3560              fb_app_counter
     0C:   0000119B  C$fb_app_counter.c$546$1$1         fb_app_counter
     0C:   0000119E  A$fb_app_counter$3561              fb_app_counter
     0C:   000011A1  A$fb_app_counter$3562              fb_app_counter
     0C:   000011A4  A$fb_app_counter$3565              fb_app_counter
     0C:   000011A4  C$fb_app_counter.c$547$1$1         fb_app_counter
     0C:   000011A7  A$fb_app_counter$3566              fb_app_counter
     0C:   000011AA  A$fb_app_counter$3567              fb_app_counter
     0C:   000011AD  A$fb_app_counter$3570              fb_app_counter
     0C:   000011AD  C$fb_app_counter.c$548$1$1         fb_app_counter
     0C:   000011B0  A$fb_app_counter$3571              fb_app_counter
     0C:   000011B3  A$fb_app_counter$3572              fb_app_counter
     0C:   000011B6  A$fb_app_counter$3575              fb_app_counter
     0C:   000011B6  C$fb_app_counter.c$549$1$1         fb_app_counter
     0C:   000011B9  A$fb_app_counter$3578              fb_app_counter
     0C:   000011B9  C$fb_app_counter.c$552$1$1         fb_app_counter
     0C:   000011BB  A$fb_app_counter$3581              fb_app_counter
     0C:   000011BB  C$fb_app_counter.c$554$2$2         fb_app_counter
     0C:   000011BD  A$fb_app_counter$3583              fb_app_counter
     0C:   000011C0  A$fb_app_counter$3585              fb_app_counter
     0C:   000011C2  A$fb_app_counter$3588              fb_app_counter
     0C:   000011C2  C$fb_app_counter.c$555$2$2         fb_app_counter
     0C:   000011C3  A$fb_app_counter$3589              fb_app_counter
     0C:   000011C5  A$fb_app_counter$3590              fb_app_counter
     0C:   000011C6  A$fb_app_counter$3591              fb_app_counter
     0C:   000011C7  A$fb_app_counter$3592              fb_app_counter
     0C:   000011C8  A$fb_app_counter$3593              fb_app_counter
     0C:   000011C9  A$fb_app_counter$3594              fb_app_counter
     0C:   000011CC  A$fb_app_counter$3595              fb_app_counter
     0C:   000011CD  A$fb_app_counter$3596              fb_app_counter
     0C:   000011CE  A$fb_app_counter$3597              fb_app_counter
     0C:   000011CF  A$fb_app_counter$3598              fb_app_counter
     0C:   000011D0  A$fb_app_counter$3599              fb_app_counter
     0C:   000011D1  A$fb_app_counter$3600              fb_app_counter
     0C:   000011D3  A$fb_app_counter$3601              fb_app_counter
     0C:   000011D5  A$fb_app_counter$3602              fb_app_counter
     0C:   000011D6  A$fb_app_counter$3603              fb_app_counter
     0C:   000011D8  A$fb_app_counter$3604              fb_app_counter
     0C:   000011D9  A$fb_app_counter$3605              fb_app_counter
     0C:   000011DA  A$fb_app_counter$3606              fb_app_counter
     0C:   000011DB  A$fb_app_counter$3607              fb_app_counter
     0C:   000011DC  A$fb_app_counter$3610              fb_app_counter
     0C:   000011DC  C$fb_app_counter.c$556$2$2         fb_app_counter
     0C:   000011DD  A$fb_app_counter$3611              fb_app_counter
     0C:   000011DF  A$fb_app_counter$3612              fb_app_counter
     0C:   000011E0  A$fb_app_counter$3613              fb_app_counter
     0C:   000011E1  A$fb_app_counter$3614              fb_app_counter
     0C:   000011E2  A$fb_app_counter$3615              fb_app_counter
ASxxxx Linker V02.00 + NoICE + sdld,  page 81.
Hexadecimal  [32-Bits]

Area                                    Addr        Size        Decimal Bytes (Attributes)
--------------------------------        ----        ----        ------- ----- ------------
CSEG                                000000A5    00001BC5 =        7109. bytes (REL,CON,CODE)

      Value  Global                              Global Defined In Module
      -----  --------------------------------   ------------------------
     0C:   000011E5  A$fb_app_counter$3616              fb_app_counter
     0C:   000011E6  A$fb_app_counter$3617              fb_app_counter
     0C:   000011E7  A$fb_app_counter$3618              fb_app_counter
     0C:   000011E8  A$fb_app_counter$3621              fb_app_counter
     0C:   000011E8  C$fb_app_counter.c$554$1$1         fb_app_counter
     0C:   000011E9  A$fb_app_counter$3622              fb_app_counter
     0C:   000011EB  A$fb_app_counter$3626              fb_app_counter
     0C:   000011EB  C$fb_app_counter.c$559$1$1         fb_app_counter
     0C:   000011EB  XG$restart_app$0$0                 fb_app_counter
     0C:   000011EC  A$fb_lpc922$682                    fb_lpc922
     0C:   000011EC  C$fb_lpc922.c$60$0$0               fb_lpc922
     0C:   000011EC  G$X1_int$0$0                       fb_lpc922
     0C:   000011EC  _X1_int                            fb_lpc922
     0C:   000011EE  A$fb_lpc922$683                    fb_lpc922
     0C:   000011F0  A$fb_lpc922$686                    fb_lpc922
     0C:   000011F0  C$fb_lpc922.c$63$1$1               fb_lpc922
     0C:   000011F2  A$fb_lpc922$689                    fb_lpc922
     0C:   000011F2  C$fb_lpc922.c$64$1$1               fb_lpc922
     0C:   000011F4  A$fb_lpc922$692                    fb_lpc922
     0C:   000011F4  C$fb_lpc922.c$65$1$1               fb_lpc922
     0C:   000011F6  A$fb_lpc922$693                    fb_lpc922
     0C:   000011F8  A$fb_lpc922$694                    fb_lpc922
     0C:   000011FA  A$fb_lpc922$695                    fb_lpc922
     0C:   000011FC  A$fb_lpc922$698                    fb_lpc922
     0C:   000011FC  C$fb_lpc922.c$66$1$1               fb_lpc922
     0C:   000011FF  A$fb_lpc922$701                    fb_lpc922
     0C:   000011FF  C$fb_lpc922.c$67$1$1               fb_lpc922
     0C:   00001202  A$fb_lpc922$704                    fb_lpc922
     0C:   00001202  C$fb_lpc922.c$68$1$1               fb_lpc922
     0C:   00001204  A$fb_lpc922$707                    fb_lpc922
     0C:   00001204  C$fb_lpc922.c$69$1$1               fb_lpc922
     0C:   00001206  A$fb_lpc922$710                    fb_lpc922
     0C:   00001206  C$fb_lpc922.c$70$1$1               fb_lpc922
     0C:   00001208  A$fb_lpc922$713                    fb_lpc922
     0C:   00001208  C$fb_lpc922.c$71$1$1               fb_lpc922
     0C:   0000120B  A$fb_lpc922$716                    fb_lpc922
     0C:   0000120B  C$fb_lpc922.c$72$1$1               fb_lpc922
     0C:   0000120D  A$fb_lpc922$719                    fb_lpc922
     0C:   0000120D  C$fb_lpc922.c$73$1$1               fb_lpc922
     0C:   0000120F  A$fb_lpc922$722                    fb_lpc922
     0C:   0000120F  C$fb_lpc922.c$74$1$1               fb_lpc922
     0C:   00001212  A$fb_lpc922$725                    fb_lpc922
     0C:   00001212  C$fb_lpc922.c$75$1$1               fb_lpc922
     0C:   00001215  A$fb_lpc922$728                    fb_lpc922
     0C:   00001215  C$fb_lpc922.c$76$1$1               fb_lpc922
     0C:   00001217  A$fb_lpc922$729                    fb_lpc922
     0C:   00001219  A$fb_lpc922$730                    fb_lpc922
     0C:   0000121B  A$fb_lpc922$733                    fb_lpc922
     0C:   0000121B  C$fb_lpc922.c$77$1$1               fb_lpc922
     0C:   0000121B  XG$X1_int$0$0                      fb_lpc922
     0C:   0000121C  A$fb_lpc922$751                    fb_lpc922
ASxxxx Linker V02.00 + NoICE + sdld,  page 82.
Hexadecimal  [32-Bits]

Area                                    Addr        Size        Decimal Bytes (Attributes)
--------------------------------        ----        ----        ------- ----- ------------
CSEG                                000000A5    00001BC5 =        7109. bytes (REL,CON,CODE)

      Value  Global                              Global Defined In Module
      -----  --------------------------------   ------------------------
     0C:   0000121C  C$fb_lpc922.c$81$1$1               fb_lpc922
     0C:   0000121C  G$T1_int$0$0                       fb_lpc922
     0C:   0000121C  _T1_int                            fb_lpc922
     0C:   0000121E  A$fb_lpc922$752                    fb_lpc922
     0C:   00001220  A$fb_lpc922$753                    fb_lpc922
     0C:   00001222  A$fb_lpc922$754                    fb_lpc922
     0C:   00001224  A$fb_lpc922$755                    fb_lpc922
     0C:   00001226  A$fb_lpc922$756                    fb_lpc922
     0C:   00001228  A$fb_lpc922$757                    fb_lpc922
     0C:   0000122A  A$fb_lpc922$758                    fb_lpc922
     0C:   0000122C  A$fb_lpc922$759                    fb_lpc922
     0C:   0000122E  A$fb_lpc922$760                    fb_lpc922
     0C:   00001230  A$fb_lpc922$761                    fb_lpc922
     0C:   00001232  A$fb_lpc922$762                    fb_lpc922
     0C:   00001234  A$fb_lpc922$763                    fb_lpc922
     0C:   00001236  A$fb_lpc922$764                    fb_lpc922
     0C:   00001238  A$fb_lpc922$765                    fb_lpc922
     0C:   0000123B  A$fb_lpc922$768                    fb_lpc922
     0C:   0000123B  C$fb_lpc922.c$87$1$1               fb_lpc922
     0C:   0000123D  A$fb_lpc922$769                    fb_lpc922
     0C:   0000123E  A$fb_lpc922$770                    fb_lpc922
     0C:   00001240  A$fb_lpc922$771                    fb_lpc922
     0C:   00001242  A$fb_lpc922$772                    fb_lpc922
     0C:   00001245  A$fb_lpc922$774                    fb_lpc922
     0C:   00001246  A$fb_lpc922$775                    fb_lpc922
     0C:   00001247  A$fb_lpc922$776                    fb_lpc922
     0C:   00001248  A$fb_lpc922$777                    fb_lpc922
     0C:   0000124B  A$fb_lpc922$778                    fb_lpc922
     0C:   0000124C  A$fb_lpc922$780                    fb_lpc922
     0C:   0000124F  A$fb_lpc922$781                    fb_lpc922
     0C:   00001252  A$fb_lpc922$782                    fb_lpc922
     0C:   00001255  A$fb_lpc922$783                    fb_lpc922
     0C:   00001258  A$fb_lpc922$784                    fb_lpc922
     0C:   0000125B  A$fb_lpc922$785                    fb_lpc922
     0C:   0000125E  A$fb_lpc922$786                    fb_lpc922
     0C:   00001261  A$fb_lpc922$787                    fb_lpc922
     0C:   00001264  A$fb_lpc922$788                    fb_lpc922
     0C:   00001267  A$fb_lpc922$789                    fb_lpc922
     0C:   0000126A  A$fb_lpc922$790                    fb_lpc922
     0C:   0000126D  A$fb_lpc922$791                    fb_lpc922
     0C:   00001270  A$fb_lpc922$792                    fb_lpc922
     0C:   00001273  A$fb_lpc922$793                    fb_lpc922
     0C:   00001276  A$fb_lpc922$794                    fb_lpc922
     0C:   00001279  A$fb_lpc922$800                    fb_lpc922
     0C:   00001279  C$fb_lpc922.c$91$2$2               fb_lpc922
     0C:   00001279  C$fb_lpc922.c$92$2$2               fb_lpc922
     0C:   0000127B  A$fb_lpc922$803                    fb_lpc922
     0C:   0000127B  C$fb_lpc922.c$93$2$2               fb_lpc922
     0C:   0000127D  A$fb_lpc922$804                    fb_lpc922
     0C:   0000127F  A$fb_lpc922$805                    fb_lpc922
     0C:   00001281  A$fb_lpc922$806                    fb_lpc922
ASxxxx Linker V02.00 + NoICE + sdld,  page 83.
Hexadecimal  [32-Bits]

Area                                    Addr        Size        Decimal Bytes (Attributes)
--------------------------------        ----        ----        ------- ----- ------------
CSEG                                000000A5    00001BC5 =        7109. bytes (REL,CON,CODE)

      Value  Global                              Global Defined In Module
      -----  --------------------------------   ------------------------
     0C:   00001283  A$fb_lpc922$809                    fb_lpc922
     0C:   00001283  C$fb_lpc922.c$94$2$2               fb_lpc922
     0C:   00001286  A$fb_lpc922$812                    fb_lpc922
     0C:   00001286  C$fb_lpc922.c$95$2$2               fb_lpc922
     0C:   00001289  A$fb_lpc922$815                    fb_lpc922
     0C:   00001289  C$fb_lpc922.c$96$2$2               fb_lpc922
     0C:   0000128B  A$fb_lpc922$818                    fb_lpc922
     0C:   0000128B  C$fb_lpc922.c$97$2$2               fb_lpc922
     0C:   0000128D  A$fb_lpc922$821                    fb_lpc922
     0C:   0000128D  C$fb_lpc922.c$98$2$2               fb_lpc922
     0C:   0000128F  A$fb_lpc922$822                    fb_lpc922
     0C:   00001292  A$fb_lpc922$823                    fb_lpc922
     0C:   00001294  A$fb_lpc922$827                    fb_lpc922
     0C:   00001294  C$fb_lpc922.c$99$3$3               fb_lpc922
     0C:   00001296  A$fb_lpc922$828                    fb_lpc922
     0C:   00001298  A$fb_lpc922$829                    fb_lpc922
     0C:   00001299  A$fb_lpc922$830                    fb_lpc922
     0C:   0000129B  A$fb_lpc922$831                    fb_lpc922
     0C:   0000129E  A$fb_lpc922$832                    fb_lpc922
     0C:   000012A0  A$fb_lpc922$835                    fb_lpc922
     0C:   000012A0  C$fb_lpc922.c$100$4$4              fb_lpc922
     0C:   000012A2  A$fb_lpc922$838                    fb_lpc922
     0C:   000012A2  C$fb_lpc922.c$101$4$4              fb_lpc922
     0C:   000012A4  A$fb_lpc922$839                    fb_lpc922
     0C:   000012A6  A$fb_lpc922$842                    fb_lpc922
     0C:   000012A6  C$fb_lpc922.c$102$5$5              fb_lpc922
     0C:   000012A8  A$fb_lpc922$843                    fb_lpc922
     0C:   000012AA  A$fb_lpc922$844                    fb_lpc922
     0C:   000012AB  A$fb_lpc922$845                    fb_lpc922
     0C:   000012AC  A$fb_lpc922$846                    fb_lpc922
     0C:   000012AD  A$fb_lpc922$847                    fb_lpc922
     0C:   000012B0  A$fb_lpc922$850                    fb_lpc922
     0C:   000012B0  C$fb_lpc922.c$103$6$6              fb_lpc922
     0C:   000012B2  A$fb_lpc922$851                    fb_lpc922
     0C:   000012B3  A$fb_lpc922$852                    fb_lpc922
     0C:   000012B4  A$fb_lpc922$855                    fb_lpc922
     0C:   000012B4  C$fb_lpc922.c$104$6$6              fb_lpc922
     0C:   000012B7  A$fb_lpc922$859                    fb_lpc922
     0C:   000012B7  C$fb_lpc922.c$106$5$5              fb_lpc922
     0C:   000012B9  A$fb_lpc922$860                    fb_lpc922
     0C:   000012BB  A$fb_lpc922$861                    fb_lpc922
     0C:   000012BD  A$fb_lpc922$862                    fb_lpc922
     0C:   000012C0  A$fb_lpc922$863                    fb_lpc922
     0C:   000012C2  A$fb_lpc922$867                    fb_lpc922
     0C:   000012C2  C$fb_lpc922.c$108$6$7              fb_lpc922
     0C:   000012C4  A$fb_lpc922$870                    fb_lpc922
     0C:   000012C4  C$fb_lpc922.c$109$6$7              fb_lpc922
     0C:   000012C7  A$fb_lpc922$873                    fb_lpc922
     0C:   000012C7  C$fb_lpc922.c$110$6$7              fb_lpc922
     0C:   000012C9  A$fb_lpc922$876                    fb_lpc922
     0C:   000012C9  C$fb_lpc922.c$111$6$7              fb_lpc922
ASxxxx Linker V02.00 + NoICE + sdld,  page 84.
Hexadecimal  [32-Bits]

Area                                    Addr        Size        Decimal Bytes (Attributes)
--------------------------------        ----        ----        ------- ----- ------------
CSEG                                000000A5    00001BC5 =        7109. bytes (REL,CON,CODE)

      Value  Global                              Global Defined In Module
      -----  --------------------------------   ------------------------
     0C:   000012CB  A$fb_lpc922$879                    fb_lpc922
     0C:   000012CB  C$fb_lpc922.c$112$6$7              fb_lpc922
     0C:   000012CE  A$fb_lpc922$882                    fb_lpc922
     0C:   000012CE  C$fb_lpc922.c$113$6$7              fb_lpc922
     0C:   000012D0  A$fb_lpc922$885                    fb_lpc922
     0C:   000012D0  C$fb_lpc922.c$114$6$7              fb_lpc922
     0C:   000012D3  A$fb_lpc922$888                    fb_lpc922
     0C:   000012D3  C$fb_lpc922.c$115$6$7              fb_lpc922
     0C:   000012D6  A$fb_lpc922$891                    fb_lpc922
     0C:   000012D6  C$fb_lpc922.c$116$6$7              fb_lpc922
     0C:   000012D8  A$fb_lpc922$895                    fb_lpc922
     0C:   000012D8  C$fb_lpc922.c$119$4$4              fb_lpc922
     0C:   000012DA  A$fb_lpc922$896                    fb_lpc922
     0C:   000012DD  A$fb_lpc922$900                    fb_lpc922
     0C:   000012DD  C$fb_lpc922.c$122$4$8              fb_lpc922
     0C:   000012DF  A$fb_lpc922$903                    fb_lpc922
     0C:   000012DF  C$fb_lpc922.c$123$4$8              fb_lpc922
     0C:   000012E2  A$fb_lpc922$904                    fb_lpc922
     0C:   000012E5  A$fb_lpc922$908                    fb_lpc922
     0C:   000012E5  C$fb_lpc922.c$127$3$9              fb_lpc922
     0C:   000012E7  A$fb_lpc922$911                    fb_lpc922
     0C:   000012E7  C$fb_lpc922.c$128$3$9              fb_lpc922
     0C:   000012E9  A$fb_lpc922$914                    fb_lpc922
     0C:   000012E9  C$fb_lpc922.c$130$2$2              fb_lpc922
     0C:   000012EC  A$fb_lpc922$920                    fb_lpc922
     0C:   000012EC  C$fb_lpc922.c$133$2$2              fb_lpc922
     0C:   000012EC  C$fb_lpc922.c$134$2$2              fb_lpc922
     0C:   000012EE  A$fb_lpc922$921                    fb_lpc922
     0C:   000012EF  A$fb_lpc922$922                    fb_lpc922
     0C:   000012F1  A$fb_lpc922$925                    fb_lpc922
     0C:   000012F1  C$fb_lpc922.c$135$2$2              fb_lpc922
     0C:   000012F3  A$fb_lpc922$928                    fb_lpc922
     0C:   000012F3  C$fb_lpc922.c$136$2$2              fb_lpc922
     0C:   000012F6  A$fb_lpc922$931                    fb_lpc922
     0C:   000012F6  C$fb_lpc922.c$137$2$2              fb_lpc922
     0C:   000012F9  A$fb_lpc922$934                    fb_lpc922
     0C:   000012F9  C$fb_lpc922.c$138$2$2              fb_lpc922
     0C:   000012FB  A$fb_lpc922$935                    fb_lpc922
     0C:   000012FD  A$fb_lpc922$938                    fb_lpc922
     0C:   000012FD  C$fb_lpc922.c$139$3$10             fb_lpc922
     0C:   00001300  A$fb_lpc922$941                    fb_lpc922
     0C:   00001300  C$fb_lpc922.c$140$3$10             fb_lpc922
     0C:   00001302  A$fb_lpc922$944                    fb_lpc922
     0C:   00001302  C$fb_lpc922.c$141$3$10             fb_lpc922
     0C:   00001304  A$fb_lpc922$945                    fb_lpc922
     0C:   00001307  A$fb_lpc922$949                    fb_lpc922
     0C:   00001307  C$fb_lpc922.c$144$3$11             fb_lpc922
     0C:   00001309  A$fb_lpc922$950                    fb_lpc922
     0C:   0000130B  A$fb_lpc922$951                    fb_lpc922
     0C:   0000130D  A$fb_lpc922$954                    fb_lpc922
     0C:   0000130D  C$fb_lpc922.c$145$4$12             fb_lpc922
ASxxxx Linker V02.00 + NoICE + sdld,  page 85.
Hexadecimal  [32-Bits]

Area                                    Addr        Size        Decimal Bytes (Attributes)
--------------------------------        ----        ----        ------- ----- ------------
CSEG                                000000A5    00001BC5 =        7109. bytes (REL,CON,CODE)

      Value  Global                              Global Defined In Module
      -----  --------------------------------   ------------------------
     0C:   00001310  A$fb_lpc922$957                    fb_lpc922
     0C:   00001310  C$fb_lpc922.c$146$5$13             fb_lpc922
     0C:   00001312  A$fb_lpc922$960                    fb_lpc922
     0C:   00001312  C$fb_lpc922.c$147$5$13             fb_lpc922
     0C:   00001314  A$fb_lpc922$961                    fb_lpc922
     0C:   00001316  A$fb_lpc922$962                    fb_lpc922
     0C:   00001318  A$fb_lpc922$966                    fb_lpc922
     0C:   00001318  C$fb_lpc922.c$149$4$12             fb_lpc922
     0C:   0000131A  A$fb_lpc922$967                    fb_lpc922
     0C:   0000131C  A$fb_lpc922$970                    fb_lpc922
     0C:   0000131C  C$fb_lpc922.c$150$4$12             fb_lpc922
     0C:   0000131E  A$fb_lpc922$971                    fb_lpc922
     0C:   00001320  A$fb_lpc922$972                    fb_lpc922
     0C:   00001323  A$fb_lpc922$974                    fb_lpc922
     0C:   00001326  A$fb_lpc922$975                    fb_lpc922
     0C:   00001329  A$fb_lpc922$979                    fb_lpc922
     0C:   00001329  C$fb_lpc922.c$153$4$14             fb_lpc922
     0C:   0000132B  A$fb_lpc922$982                    fb_lpc922
     0C:   0000132B  C$fb_lpc922.c$154$4$14             fb_lpc922
     0C:   0000132D  A$fb_lpc922$985                    fb_lpc922
     0C:   0000132D  C$fb_lpc922.c$155$4$14             fb_lpc922
     0C:   0000132F  A$fb_lpc922$986                    fb_lpc922
     0C:   00001332  A$fb_lpc922$987                    fb_lpc922
     0C:   00001333  A$fb_lpc922$989                    fb_lpc922
     0C:   00001335  A$fb_lpc922$992                    fb_lpc922
     0C:   00001335  C$fb_lpc922.c$156$5$15             fb_lpc922
     0C:   00001337  A$fb_lpc922$993                    fb_lpc922
     0C:   00001339  A$fb_lpc922$996                    fb_lpc922
     0C:   00001339  C$fb_lpc922.c$157$6$16             fb_lpc922
     0C:   0000133B  A$fb_lpc922$997                    fb_lpc922
     0C:   0000133E  A$fb_lpc922$998                    fb_lpc922
     0C:   00001340  A$fb_lpc922$1002                   fb_lpc922
     0C:   00001340  C$fb_lpc922.c$158$6$16             fb_lpc922
     0C:   00001342  A$fb_lpc922$1003                   fb_lpc922
     0C:   00001345  A$fb_lpc922$1004                   fb_lpc922
     0C:   00001347  A$fb_lpc922$1008                   fb_lpc922
     0C:   00001347  C$fb_lpc922.c$160$5$15             fb_lpc922
     0C:   0000134A  A$fb_lpc922$1009                   fb_lpc922
     0C:   0000134D  A$fb_lpc922$1012                   fb_lpc922
     0C:   0000134D  C$fb_lpc922.c$161$6$17             fb_lpc922
     0C:   0000134F  A$fb_lpc922$1013                   fb_lpc922
     0C:   00001351  A$fb_lpc922$1014                   fb_lpc922
     0C:   00001352  A$fb_lpc922$1017                   fb_lpc922
     0C:   00001352  C$fb_lpc922.c$162$6$17             fb_lpc922
     0C:   00001354  A$fb_lpc922$1018                   fb_lpc922
     0C:   00001355  A$fb_lpc922$1019                   fb_lpc922
     0C:   00001357  A$fb_lpc922$1022                   fb_lpc922
     0C:   00001357  C$fb_lpc922.c$163$6$17             fb_lpc922
     0C:   00001359  A$fb_lpc922$1023                   fb_lpc922
     0C:   0000135B  A$fb_lpc922$1027                   fb_lpc922
     0C:   0000135B  C$fb_lpc922.c$166$4$14             fb_lpc922
ASxxxx Linker V02.00 + NoICE + sdld,  page 86.
Hexadecimal  [32-Bits]

Area                                    Addr        Size        Decimal Bytes (Attributes)
--------------------------------        ----        ----        ------- ----- ------------
CSEG                                000000A5    00001BC5 =        7109. bytes (REL,CON,CODE)

      Value  Global                              Global Defined In Module
      -----  --------------------------------   ------------------------
     0C:   0000135D  A$fb_lpc922$1033                   fb_lpc922
     0C:   0000135D  C$fb_lpc922.c$168$4$14             fb_lpc922
     0C:   0000135D  C$fb_lpc922.c$169$5$18             fb_lpc922
     0C:   00001360  A$fb_lpc922$1034                   fb_lpc922
     0C:   00001362  A$fb_lpc922$1038                   fb_lpc922
     0C:   00001362  C$fb_lpc922.c$170$5$18             fb_lpc922
     0C:   00001365  A$fb_lpc922$1039                   fb_lpc922
     0C:   00001368  A$fb_lpc922$1042                   fb_lpc922
     0C:   00001368  C$fb_lpc922.c$171$6$19             fb_lpc922
     0C:   0000136B  A$fb_lpc922$1047                   fb_lpc922
     0C:   0000136B  C$fb_lpc922.c$172$6$19             fb_lpc922
     0C:   0000136B  C$fb_lpc922.c$173$7$20             fb_lpc922
     0C:   0000136E  A$fb_lpc922$1048                   fb_lpc922
     0C:   00001370  A$fb_lpc922$1052                   fb_lpc922
     0C:   00001370  C$fb_lpc922.c$174$7$20             fb_lpc922
     0C:   00001372  A$fb_lpc922$1053                   fb_lpc922
     0C:   00001374  A$fb_lpc922$1054                   fb_lpc922
     0C:   00001376  A$fb_lpc922$1057                   fb_lpc922
     0C:   00001376  C$fb_lpc922.c$175$7$20             fb_lpc922
     0C:   00001379  A$fb_lpc922$1061                   fb_lpc922
     0C:   00001379  C$fb_lpc922.c$178$5$18             fb_lpc922
     0C:   0000137C  A$fb_lpc922$1062                   fb_lpc922
     0C:   0000137F  A$fb_lpc922$1066                   fb_lpc922
     0C:   0000137F  C$fb_lpc922.c$181$5$21             fb_lpc922
     0C:   00001382  A$fb_lpc922$1067                   fb_lpc922
     0C:   00001385  A$fb_lpc922$1068                   fb_lpc922
     0C:   00001388  A$fb_lpc922$1071                   fb_lpc922
     0C:   00001388  C$fb_lpc922.c$182$6$22             fb_lpc922
     0C:   0000138A  A$fb_lpc922$1072                   fb_lpc922
     0C:   0000138C  A$fb_lpc922$1073                   fb_lpc922
     0C:   0000138E  A$fb_lpc922$1074                   fb_lpc922
     0C:   00001390  A$fb_lpc922$1077                   fb_lpc922
     0C:   00001390  C$fb_lpc922.c$183$6$22             fb_lpc922
     0C:   00001393  A$fb_lpc922$1080                   fb_lpc922
     0C:   00001393  C$fb_lpc922.c$184$6$22             fb_lpc922
     0C:   00001396  A$fb_lpc922$1083                   fb_lpc922
     0C:   00001396  C$fb_lpc922.c$185$6$22             fb_lpc922
     0C:   00001398  A$fb_lpc922$1086                   fb_lpc922
     0C:   00001398  C$fb_lpc922.c$186$6$22             fb_lpc922
     0C:   0000139B  A$fb_lpc922$1089                   fb_lpc922
     0C:   0000139B  C$fb_lpc922.c$187$6$22             fb_lpc922
     0C:   0000139D  A$fb_lpc922$1090                   fb_lpc922
     0C:   000013A0  A$fb_lpc922$1094                   fb_lpc922
     0C:   000013A0  C$fb_lpc922.c$189$5$21             fb_lpc922
     0C:   000013A3  A$fb_lpc922$1097                   fb_lpc922
     0C:   000013A3  C$fb_lpc922.c$193$2$2              fb_lpc922
     0C:   000013A6  A$fb_lpc922$1103                   fb_lpc922
     0C:   000013A6  C$fb_lpc922.c$195$2$2              fb_lpc922
     0C:   000013A6  C$fb_lpc922.c$196$2$2              fb_lpc922
     0C:   000013A9  A$fb_lpc922$1106                   fb_lpc922
     0C:   000013A9  C$fb_lpc922.c$197$2$2              fb_lpc922
ASxxxx Linker V02.00 + NoICE + sdld,  page 87.
Hexadecimal  [32-Bits]

Area                                    Addr        Size        Decimal Bytes (Attributes)
--------------------------------        ----        ----        ------- ----- ------------
CSEG                                000000A5    00001BC5 =        7109. bytes (REL,CON,CODE)

      Value  Global                              Global Defined In Module
      -----  --------------------------------   ------------------------
     0C:   000013AC  A$fb_lpc922$1109                   fb_lpc922
     0C:   000013AC  C$fb_lpc922.c$198$2$2              fb_lpc922
     0C:   000013AF  A$fb_lpc922$1115                   fb_lpc922
     0C:   000013AF  C$fb_lpc922.c$200$2$2              fb_lpc922
     0C:   000013AF  C$fb_lpc922.c$201$2$2              fb_lpc922
     0C:   000013B2  A$fb_lpc922$1116                   fb_lpc922
     0C:   000013B4  A$fb_lpc922$1117                   fb_lpc922
     0C:   000013B6  A$fb_lpc922$1118                   fb_lpc922
     0C:   000013B8  A$fb_lpc922$1121                   fb_lpc922
     0C:   000013B8  C$fb_lpc922.c$202$3$23             fb_lpc922
     0C:   000013BA  A$fb_lpc922$1124                   fb_lpc922
     0C:   000013BA  C$fb_lpc922.c$203$3$23             fb_lpc922
     0C:   000013BC  A$fb_lpc922$1125                   fb_lpc922
     0C:   000013BE  A$fb_lpc922$1126                   fb_lpc922
     0C:   000013C0  A$fb_lpc922$1127                   fb_lpc922
     0C:   000013C2  A$fb_lpc922$1130                   fb_lpc922
     0C:   000013C2  C$fb_lpc922.c$204$3$23             fb_lpc922
     0C:   000013C5  A$fb_lpc922$1133                   fb_lpc922
     0C:   000013C5  C$fb_lpc922.c$205$3$23             fb_lpc922
     0C:   000013C8  A$fb_lpc922$1136                   fb_lpc922
     0C:   000013C8  C$fb_lpc922.c$206$3$23             fb_lpc922
     0C:   000013CA  A$fb_lpc922$1139                   fb_lpc922
     0C:   000013CA  C$fb_lpc922.c$207$3$23             fb_lpc922
     0C:   000013CC  A$fb_lpc922$1140                   fb_lpc922
     0C:   000013CE  A$fb_lpc922$1143                   fb_lpc922
     0C:   000013CE  C$fb_lpc922.c$208$3$23             fb_lpc922
     0C:   000013D0  A$fb_lpc922$1144                   fb_lpc922
     0C:   000013D3  A$fb_lpc922$1147                   fb_lpc922
     0C:   000013D3  C$fb_lpc922.c$209$4$24             fb_lpc922
     0C:   000013D6  A$fb_lpc922$1148                   fb_lpc922
     0C:   000013D8  A$fb_lpc922$1149                   fb_lpc922
     0C:   000013DB  A$fb_lpc922$1150                   fb_lpc922
     0C:   000013DD  A$fb_lpc922$1151                   fb_lpc922
     0C:   000013DF  A$fb_lpc922$1152                   fb_lpc922
     0C:   000013E2  A$fb_lpc922$1153                   fb_lpc922
     0C:   000013E4  A$fb_lpc922$1155                   fb_lpc922
     0C:   000013E6  A$fb_lpc922$1159                   fb_lpc922
     0C:   000013E6  C$fb_lpc922.c$210$4$24             fb_lpc922
     0C:   000013E8  A$fb_lpc922$1160                   fb_lpc922
     0C:   000013EA  A$fb_lpc922$1161                   fb_lpc922
     0C:   000013EC  A$fb_lpc922$1162                   fb_lpc922
     0C:   000013EE  A$fb_lpc922$1163                   fb_lpc922
     0C:   000013F0  A$fb_lpc922$1164                   fb_lpc922
     0C:   000013F2  A$fb_lpc922$1168                   fb_lpc922
     0C:   000013F2  C$fb_lpc922.c$212$3$23             fb_lpc922
     0C:   000013F5  A$fb_lpc922$1169                   fb_lpc922
     0C:   000013F6  A$fb_lpc922$1170                   fb_lpc922
     0C:   000013F7  A$fb_lpc922$1171                   fb_lpc922
     0C:   000013F8  A$fb_lpc922$1172                   fb_lpc922
     0C:   000013FB  A$fb_lpc922$1173                   fb_lpc922
     0C:   000013FE  A$fb_lpc922$1174                   fb_lpc922
ASxxxx Linker V02.00 + NoICE + sdld,  page 88.
Hexadecimal  [32-Bits]

Area                                    Addr        Size        Decimal Bytes (Attributes)
--------------------------------        ----        ----        ------- ----- ------------
CSEG                                000000A5    00001BC5 =        7109. bytes (REL,CON,CODE)

      Value  Global                              Global Defined In Module
      -----  --------------------------------   ------------------------
     0C:   000013FF  A$fb_lpc922$1175                   fb_lpc922
     0C:   00001400  A$fb_lpc922$1176                   fb_lpc922
     0C:   00001401  A$fb_lpc922$1177                   fb_lpc922
     0C:   00001404  A$fb_lpc922$1178                   fb_lpc922
     0C:   00001406  A$fb_lpc922$1182                   fb_lpc922
     0C:   00001406  C$fb_lpc922.c$213$3$23             fb_lpc922
     0C:   00001408  A$fb_lpc922$1183                   fb_lpc922
     0C:   0000140B  A$fb_lpc922$1184                   fb_lpc922
     0C:   0000140E  A$fb_lpc922$1185                   fb_lpc922
     0C:   00001410  A$fb_lpc922$1189                   fb_lpc922
     0C:   00001410  C$fb_lpc922.c$214$3$23             fb_lpc922
     0C:   00001413  A$fb_lpc922$1190                   fb_lpc922
     0C:   00001416  A$fb_lpc922$1194                   fb_lpc922
     0C:   00001416  C$fb_lpc922.c$218$3$25             fb_lpc922
     0C:   00001418  A$fb_lpc922$1195                   fb_lpc922
     0C:   0000141A  A$fb_lpc922$1196                   fb_lpc922
     0C:   0000141C  A$fb_lpc922$1197                   fb_lpc922
     0C:   0000141E  A$fb_lpc922$1201                   fb_lpc922
     0C:   0000141E  C$fb_lpc922.c$219$3$25             fb_lpc922
     0C:   00001421  A$fb_lpc922$1204                   fb_lpc922
     0C:   00001421  C$fb_lpc922.c$221$2$2              fb_lpc922
     0C:   00001424  A$fb_lpc922$1210                   fb_lpc922
     0C:   00001424  C$fb_lpc922.c$223$2$2              fb_lpc922
     0C:   00001424  C$fb_lpc922.c$224$2$2              fb_lpc922
     0C:   00001426  A$fb_lpc922$1213                   fb_lpc922
     0C:   00001426  C$fb_lpc922.c$225$2$2              fb_lpc922
     0C:   00001428  A$fb_lpc922$1214                   fb_lpc922
     0C:   0000142B  A$fb_lpc922$1217                   fb_lpc922
     0C:   0000142B  C$fb_lpc922.c$226$3$26             fb_lpc922
     0C:   0000142E  A$fb_lpc922$1220                   fb_lpc922
     0C:   0000142E  C$fb_lpc922.c$227$4$27             fb_lpc922
     0C:   00001430  A$fb_lpc922$1223                   fb_lpc922
     0C:   00001430  C$fb_lpc922.c$228$4$27             fb_lpc922
     0C:   00001433  A$fb_lpc922$1226                   fb_lpc922
     0C:   00001433  C$fb_lpc922.c$229$4$27             fb_lpc922
     0C:   00001435  A$fb_lpc922$1227                   fb_lpc922
     0C:   00001438  A$fb_lpc922$1231                   fb_lpc922
     0C:   00001438  C$fb_lpc922.c$231$3$26             fb_lpc922
     0C:   0000143B  A$fb_lpc922$1232                   fb_lpc922
     0C:   0000143E  A$fb_lpc922$1236                   fb_lpc922
     0C:   0000143E  C$fb_lpc922.c$234$3$28             fb_lpc922
     0C:   00001440  A$fb_lpc922$1239                   fb_lpc922
     0C:   00001440  C$fb_lpc922.c$235$3$28             fb_lpc922
     0C:   00001443  A$fb_lpc922$1242                   fb_lpc922
     0C:   00001443  C$fb_lpc922.c$236$3$28             fb_lpc922
     0C:   00001445  A$fb_lpc922$1245                   fb_lpc922
     0C:   00001445  C$fb_lpc922.c$238$2$2              fb_lpc922
     0C:   00001448  A$fb_lpc922$1251                   fb_lpc922
     0C:   00001448  C$fb_lpc922.c$242$2$2              fb_lpc922
     0C:   00001448  C$fb_lpc922.c$243$2$2              fb_lpc922
     0C:   0000144A  A$fb_lpc922$1252                   fb_lpc922
ASxxxx Linker V02.00 + NoICE + sdld,  page 89.
Hexadecimal  [32-Bits]

Area                                    Addr        Size        Decimal Bytes (Attributes)
--------------------------------        ----        ----        ------- ----- ------------
CSEG                                000000A5    00001BC5 =        7109. bytes (REL,CON,CODE)

      Value  Global                              Global Defined In Module
      -----  --------------------------------   ------------------------
     0C:   0000144C  A$fb_lpc922$1253                   fb_lpc922
     0C:   0000144D  A$fb_lpc922$1254                   fb_lpc922
     0C:   0000144F  A$fb_lpc922$1257                   fb_lpc922
     0C:   0000144F  C$fb_lpc922.c$244$2$2              fb_lpc922
     0C:   00001452  A$fb_lpc922$1258                   fb_lpc922
     0C:   00001454  A$fb_lpc922$1262                   fb_lpc922
     0C:   00001454  C$fb_lpc922.c$245$2$2              fb_lpc922
     0C:   00001457  A$fb_lpc922$1263                   fb_lpc922
     0C:   00001459  A$fb_lpc922$1267                   fb_lpc922
     0C:   00001459  C$fb_lpc922.c$246$2$2              fb_lpc922
     0C:   0000145B  A$fb_lpc922$1270                   fb_lpc922
     0C:   0000145B  C$fb_lpc922.c$247$2$2              fb_lpc922
     0C:   0000145D  A$fb_lpc922$1271                   fb_lpc922
     0C:   00001460  A$fb_lpc922$1272                   fb_lpc922
     0C:   00001462  A$fb_lpc922$1274                   fb_lpc922
     0C:   00001465  A$fb_lpc922$1278                   fb_lpc922
     0C:   00001465  C$fb_lpc922.c$248$3$29             fb_lpc922
     0C:   00001467  A$fb_lpc922$1279                   fb_lpc922
     0C:   00001469  A$fb_lpc922$1280                   fb_lpc922
     0C:   0000146B  A$fb_lpc922$1283                   fb_lpc922
     0C:   0000146B  C$fb_lpc922.c$249$4$30             fb_lpc922
     0C:   0000146D  A$fb_lpc922$1284                   fb_lpc922
     0C:   0000146E  A$fb_lpc922$1285                   fb_lpc922
     0C:   00001470  A$fb_lpc922$1288                   fb_lpc922
     0C:   00001470  C$fb_lpc922.c$251$5$31             fb_lpc922
     0C:   00001472  A$fb_lpc922$1291                   fb_lpc922
     0C:   00001472  C$fb_lpc922.c$253$5$31             fb_lpc922
     0C:   00001474  A$fb_lpc922$1294                   fb_lpc922
     0C:   00001474  C$fb_lpc922.c$254$5$31             fb_lpc922
     0C:   00001476  A$fb_lpc922$1295                   fb_lpc922
     0C:   00001478  A$fb_lpc922$1299                   fb_lpc922
     0C:   00001478  C$fb_lpc922.c$256$4$30             fb_lpc922
     0C:   0000147A  A$fb_lpc922$1303                   fb_lpc922
     0C:   0000147A  C$fb_lpc922.c$257$4$30             fb_lpc922
     0C:   0000147C  A$fb_lpc922$1304                   fb_lpc922
     0C:   0000147E  A$fb_lpc922$1307                   fb_lpc922
     0C:   0000147E  C$fb_lpc922.c$258$5$32             fb_lpc922
     0C:   00001481  A$fb_lpc922$1310                   fb_lpc922
     0C:   00001481  C$fb_lpc922.c$259$5$32             fb_lpc922
     0C:   00001483  A$fb_lpc922$1311                   fb_lpc922
     0C:   00001485  A$fb_lpc922$1315                   fb_lpc922
     0C:   00001485  C$fb_lpc922.c$261$4$30             fb_lpc922
     0C:   00001487  A$fb_lpc922$1316                   fb_lpc922
     0C:   00001489  A$fb_lpc922$1317                   fb_lpc922
     0C:   0000148B  A$fb_lpc922$1321                   fb_lpc922
     0C:   0000148B  C$fb_lpc922.c$262$4$30             fb_lpc922
     0C:   0000148D  A$fb_lpc922$1322                   fb_lpc922
     0C:   0000148F  A$fb_lpc922$1323                   fb_lpc922
     0C:   00001492  A$fb_lpc922$1327                   fb_lpc922
     0C:   00001492  C$fb_lpc922.c$263$4$30             fb_lpc922
     0C:   00001495  A$fb_lpc922$1328                   fb_lpc922
ASxxxx Linker V02.00 + NoICE + sdld,  page 90.
Hexadecimal  [32-Bits]

Area                                    Addr        Size        Decimal Bytes (Attributes)
--------------------------------        ----        ----        ------- ----- ------------
CSEG                                000000A5    00001BC5 =        7109. bytes (REL,CON,CODE)

      Value  Global                              Global Defined In Module
      -----  --------------------------------   ------------------------
     0C:   00001497  A$fb_lpc922$1332                   fb_lpc922
     0C:   00001497  C$fb_lpc922.c$266$4$33             fb_lpc922
     0C:   0000149A  A$fb_lpc922$1335                   fb_lpc922
     0C:   0000149A  C$fb_lpc922.c$267$5$34             fb_lpc922
     0C:   0000149C  A$fb_lpc922$1338                   fb_lpc922
     0C:   0000149C  C$fb_lpc922.c$268$5$34             fb_lpc922
     0C:   0000149E  A$fb_lpc922$1339                   fb_lpc922
     0C:   000014A0  A$fb_lpc922$1343                   fb_lpc922
     0C:   000014A0  C$fb_lpc922.c$270$4$33             fb_lpc922
     0C:   000014A2  A$fb_lpc922$1347                   fb_lpc922
     0C:   000014A2  C$fb_lpc922.c$271$4$33             fb_lpc922
     0C:   000014A4  A$fb_lpc922$1350                   fb_lpc922
     0C:   000014A4  C$fb_lpc922.c$272$4$33             fb_lpc922
     0C:   000014A7  A$fb_lpc922$1353                   fb_lpc922
     0C:   000014A7  C$fb_lpc922.c$273$4$33             fb_lpc922
     0C:   000014AA  A$fb_lpc922$1357                   fb_lpc922
     0C:   000014AA  C$fb_lpc922.c$275$3$29             fb_lpc922
     0C:   000014AD  A$fb_lpc922$1360                   fb_lpc922
     0C:   000014AD  C$fb_lpc922.c$277$2$2              fb_lpc922
     0C:   000014B0  A$fb_lpc922$1366                   fb_lpc922
     0C:   000014B0  C$fb_lpc922.c$279$2$2              fb_lpc922
     0C:   000014B0  C$fb_lpc922.c$280$2$2              fb_lpc922
     0C:   000014B2  A$fb_lpc922$1367                   fb_lpc922
     0C:   000014B4  A$fb_lpc922$1368                   fb_lpc922
     0C:   000014B6  A$fb_lpc922$1369                   fb_lpc922
     0C:   000014B9  A$fb_lpc922$1372                   fb_lpc922
     0C:   000014B9  C$fb_lpc922.c$281$3$35             fb_lpc922
     0C:   000014BB  A$fb_lpc922$1376                   fb_lpc922
     0C:   000014BB  C$fb_lpc922.c$283$2$2              fb_lpc922
     0C:   000014BD  A$fb_lpc922$1379                   fb_lpc922
     0C:   000014BD  C$fb_lpc922.c$284$2$2              fb_lpc922
     0C:   000014BF  A$fb_lpc922$1380                   fb_lpc922
     0C:   000014C1  A$fb_lpc922$1381                   fb_lpc922
     0C:   000014C3  A$fb_lpc922$1384                   fb_lpc922
     0C:   000014C3  C$fb_lpc922.c$285$3$36             fb_lpc922
     0C:   000014C5  A$fb_lpc922$1387                   fb_lpc922
     0C:   000014C5  C$fb_lpc922.c$286$3$36             fb_lpc922
     0C:   000014C8  A$fb_lpc922$1388                   fb_lpc922
     0C:   000014CA  A$fb_lpc922$1392                   fb_lpc922
     0C:   000014CA  C$fb_lpc922.c$289$3$37             fb_lpc922
     0C:   000014CD  A$fb_lpc922$1395                   fb_lpc922
     0C:   000014CD  C$fb_lpc922.c$290$3$37             fb_lpc922
     0C:   000014D0  A$fb_lpc922$1399                   fb_lpc922
     0C:   000014D0  C$fb_lpc922.c$292$2$2              fb_lpc922
     0C:   000014D2  A$fb_lpc922$1404                   fb_lpc922
     0C:   000014D2  C$fb_lpc922.c$293$2$2              fb_lpc922
     0C:   000014D2  C$fb_lpc922.c$299$2$2              fb_lpc922
     0C:   000014D4  A$fb_lpc922$1408                   fb_lpc922
     0C:   000014D4  C$fb_lpc922.c$300$2$2              fb_lpc922
     0C:   000014D6  A$fb_lpc922$1411                   fb_lpc922
     0C:   000014D6  C$fb_lpc922.c$301$2$2              fb_lpc922
ASxxxx Linker V02.00 + NoICE + sdld,  page 91.
Hexadecimal  [32-Bits]

Area                                    Addr        Size        Decimal Bytes (Attributes)
--------------------------------        ----        ----        ------- ----- ------------
CSEG                                000000A5    00001BC5 =        7109. bytes (REL,CON,CODE)

      Value  Global                              Global Defined In Module
      -----  --------------------------------   ------------------------
     0C:   000014D8  A$fb_lpc922$1414                   fb_lpc922
     0C:   000014D8  C$fb_lpc922.c$302$2$2              fb_lpc922
     0C:   000014DA  A$fb_lpc922$1415                   fb_lpc922
     0C:   000014DC  A$fb_lpc922$1416                   fb_lpc922
     0C:   000014DE  A$fb_lpc922$1417                   fb_lpc922
     0C:   000014E0  A$fb_lpc922$1420                   fb_lpc922
     0C:   000014E0  C$fb_lpc922.c$303$2$2              fb_lpc922
     0C:   000014E3  A$fb_lpc922$1423                   fb_lpc922
     0C:   000014E3  C$fb_lpc922.c$304$2$2              fb_lpc922
     0C:   000014E6  A$fb_lpc922$1426                   fb_lpc922
     0C:   000014E6  C$fb_lpc922.c$305$2$2              fb_lpc922
     0C:   000014E8  A$fb_lpc922$1429                   fb_lpc922
     0C:   000014E8  C$fb_lpc922.c$306$2$2              fb_lpc922
     0C:   000014EB  A$fb_lpc922$1430                   fb_lpc922
     0C:   000014EE  A$fb_lpc922$1434                   fb_lpc922
     0C:   000014EE  C$fb_lpc922.c$307$3$38             fb_lpc922
     0C:   000014F1  A$fb_lpc922$1435                   fb_lpc922
     0C:   000014F3  A$fb_lpc922$1439                   fb_lpc922
     0C:   000014F3  C$fb_lpc922.c$310$3$39             fb_lpc922
     0C:   000014F5  A$fb_lpc922$1440                   fb_lpc922
     0C:   000014F7  A$fb_lpc922$1441                   fb_lpc922
     0C:   000014F8  A$fb_lpc922$1442                   fb_lpc922
     0C:   000014FA  A$fb_lpc922$1443                   fb_lpc922
     0C:   000014FC  A$fb_lpc922$1444                   fb_lpc922
     0C:   000014FD  A$fb_lpc922$1445                   fb_lpc922
     0C:   000014FE  A$fb_lpc922$1446                   fb_lpc922
     0C:   000014FF  A$fb_lpc922$1447                   fb_lpc922
     0C:   00001500  A$fb_lpc922$1448                   fb_lpc922
     0C:   00001501  A$fb_lpc922$1449                   fb_lpc922
     0C:   00001503  A$fb_lpc922$1450                   fb_lpc922
     0C:   00001505  A$fb_lpc922$1451                   fb_lpc922
     0C:   00001506  A$fb_lpc922$1452                   fb_lpc922
     0C:   00001507  A$fb_lpc922$1453                   fb_lpc922
     0C:   00001508  A$fb_lpc922$1454                   fb_lpc922
     0C:   00001509  A$fb_lpc922$1455                   fb_lpc922
     0C:   0000150B  A$fb_lpc922$1456                   fb_lpc922
     0C:   0000150D  A$fb_lpc922$1457                   fb_lpc922
     0C:   00001510  A$fb_lpc922$1458                   fb_lpc922
     0C:   00001512  A$fb_lpc922$1459                   fb_lpc922
     0C:   00001514  A$fb_lpc922$1462                   fb_lpc922
     0C:   00001514  C$fb_lpc922.c$311$4$40             fb_lpc922
     0C:   00001516  A$fb_lpc922$1465                   fb_lpc922
     0C:   00001516  C$fb_lpc922.c$312$4$40             fb_lpc922
     0C:   00001519  A$fb_lpc922$1466                   fb_lpc922
     0C:   0000151B  A$fb_lpc922$1470                   fb_lpc922
     0C:   0000151B  C$fb_lpc922.c$314$3$39             fb_lpc922
     0C:   0000151E  A$fb_lpc922$1474                   fb_lpc922
     0C:   0000151E  C$fb_lpc922.c$316$2$2              fb_lpc922
     0C:   00001520  A$fb_lpc922$1479                   fb_lpc922
     0C:   00001520  C$fb_lpc922.c$317$2$2              fb_lpc922
     0C:   00001520  C$fb_lpc922.c$319$2$2              fb_lpc922
ASxxxx Linker V02.00 + NoICE + sdld,  page 92.
Hexadecimal  [32-Bits]

Area                                    Addr        Size        Decimal Bytes (Attributes)
--------------------------------        ----        ----        ------- ----- ------------
CSEG                                000000A5    00001BC5 =        7109. bytes (REL,CON,CODE)

      Value  Global                              Global Defined In Module
      -----  --------------------------------   ------------------------
     0C:   00001522  A$fb_lpc922$1483                   fb_lpc922
     0C:   00001522  C$fb_lpc922.c$320$2$2              fb_lpc922
     0C:   00001524  A$fb_lpc922$1486                   fb_lpc922
     0C:   00001524  C$fb_lpc922.c$321$2$2              fb_lpc922
     0C:   00001526  A$fb_lpc922$1487                   fb_lpc922
     0C:   00001528  A$fb_lpc922$1488                   fb_lpc922
     0C:   0000152A  A$fb_lpc922$1489                   fb_lpc922
     0C:   0000152C  A$fb_lpc922$1492                   fb_lpc922
     0C:   0000152C  C$fb_lpc922.c$322$2$2              fb_lpc922
     0C:   0000152F  A$fb_lpc922$1495                   fb_lpc922
     0C:   0000152F  C$fb_lpc922.c$323$2$2              fb_lpc922
     0C:   00001532  A$fb_lpc922$1498                   fb_lpc922
     0C:   00001532  C$fb_lpc922.c$324$2$2              fb_lpc922
     0C:   00001534  A$fb_lpc922$1501                   fb_lpc922
     0C:   00001534  C$fb_lpc922.c$325$2$2              fb_lpc922
     0C:   00001536  A$fb_lpc922$1504                   fb_lpc922
     0C:   00001536  C$fb_lpc922.c$326$2$2              fb_lpc922
     0C:   00001539  A$fb_lpc922$1510                   fb_lpc922
     0C:   00001539  C$fb_lpc922.c$331$1$1              fb_lpc922
     0C:   00001539  C$fb_lpc922.c$332$1$1              fb_lpc922
     0C:   0000153B  A$fb_lpc922$1511                   fb_lpc922
     0C:   0000153D  A$fb_lpc922$1512                   fb_lpc922
     0C:   0000153F  A$fb_lpc922$1513                   fb_lpc922
     0C:   00001541  A$fb_lpc922$1514                   fb_lpc922
     0C:   00001543  A$fb_lpc922$1515                   fb_lpc922
     0C:   00001545  A$fb_lpc922$1516                   fb_lpc922
     0C:   00001547  A$fb_lpc922$1517                   fb_lpc922
     0C:   00001549  A$fb_lpc922$1518                   fb_lpc922
     0C:   0000154B  A$fb_lpc922$1519                   fb_lpc922
     0C:   0000154D  A$fb_lpc922$1520                   fb_lpc922
     0C:   0000154F  A$fb_lpc922$1521                   fb_lpc922
     0C:   00001551  A$fb_lpc922$1522                   fb_lpc922
     0C:   00001553  A$fb_lpc922$1523                   fb_lpc922
     0C:   00001555  A$fb_lpc922$1524                   fb_lpc922
     0C:   00001557  A$fb_lpc922$1527                   fb_lpc922
     0C:   00001557  C$fb_lpc922.c$333$1$1              fb_lpc922
     0C:   00001557  XG$T1_int$0$0                      fb_lpc922
     0C:   00001558  A$fb_lpc922$1540                   fb_lpc922
     0C:   00001558  C$fb_lpc922.c$336$1$1              fb_lpc922
     0C:   00001558  C$fb_lpc922.c$338$1$1              fb_lpc922
     0C:   00001558  G$init_rx$0$0                      fb_lpc922
     0C:   00001558  _init_rx                           fb_lpc922
     0C:   0000155B  A$fb_lpc922$1543                   fb_lpc922
     0C:   0000155B  C$fb_lpc922.c$339$1$1              fb_lpc922
     0C:   0000155D  A$fb_lpc922$1546                   fb_lpc922
     0C:   0000155D  C$fb_lpc922.c$340$1$1              fb_lpc922
     0C:   0000155F  A$fb_lpc922$1549                   fb_lpc922
     0C:   0000155F  C$fb_lpc922.c$341$1$1              fb_lpc922
     0C:   00001561  A$fb_lpc922$1552                   fb_lpc922
     0C:   00001561  C$fb_lpc922.c$342$1$1              fb_lpc922
     0C:   00001564  A$fb_lpc922$1555                   fb_lpc922
ASxxxx Linker V02.00 + NoICE + sdld,  page 93.
Hexadecimal  [32-Bits]

Area                                    Addr        Size        Decimal Bytes (Attributes)
--------------------------------        ----        ----        ------- ----- ------------
CSEG                                000000A5    00001BC5 =        7109. bytes (REL,CON,CODE)

      Value  Global                              Global Defined In Module
      -----  --------------------------------   ------------------------
     0C:   00001564  C$fb_lpc922.c$343$1$1              fb_lpc922
     0C:   00001567  A$fb_lpc922$1558                   fb_lpc922
     0C:   00001567  C$fb_lpc922.c$344$1$1              fb_lpc922
     0C:   00001569  A$fb_lpc922$1561                   fb_lpc922
     0C:   00001569  C$fb_lpc922.c$345$1$1              fb_lpc922
     0C:   0000156B  A$fb_lpc922$1562                   fb_lpc922
     0C:   0000156D  A$fb_lpc922$1563                   fb_lpc922
     0C:   0000156F  A$fb_lpc922$1564                   fb_lpc922
     0C:   00001571  A$fb_lpc922$1567                   fb_lpc922
     0C:   00001571  C$fb_lpc922.c$346$1$1              fb_lpc922
     0C:   00001574  A$fb_lpc922$1570                   fb_lpc922
     0C:   00001574  C$fb_lpc922.c$347$1$1              fb_lpc922
     0C:   00001577  A$fb_lpc922$1573                   fb_lpc922
     0C:   00001577  C$fb_lpc922.c$348$1$1              fb_lpc922
     0C:   00001579  A$fb_lpc922$1576                   fb_lpc922
     0C:   00001579  C$fb_lpc922.c$349$1$1              fb_lpc922
     0C:   0000157B  A$fb_lpc922$1579                   fb_lpc922
     0C:   0000157B  C$fb_lpc922.c$350$1$1              fb_lpc922
     0C:   0000157D  A$fb_lpc922$1582                   fb_lpc922
     0C:   0000157D  C$fb_lpc922.c$351$1$1              fb_lpc922
     0C:   0000157F  A$fb_lpc922$1585                   fb_lpc922
     0C:   0000157F  C$fb_lpc922.c$352$1$1              fb_lpc922
     0C:   00001581  A$fb_lpc922$1588                   fb_lpc922
     0C:   00001581  C$fb_lpc922.c$353$1$1              fb_lpc922
     0C:   00001583  A$fb_lpc922$1591                   fb_lpc922
     0C:   00001583  C$fb_lpc922.c$354$1$1              fb_lpc922
     0C:   00001583  XG$init_rx$0$0                     fb_lpc922
     0C:   00001584  A$fb_lpc922$1607                   fb_lpc922
     0C:   00001584  C$fb_lpc922.c$357$1$1              fb_lpc922
     0C:   00001584  C$fb_lpc922.c$361$1$1              fb_lpc922
     0C:   00001584  G$init_tx$0$0                      fb_lpc922
     0C:   00001584  _init_tx                           fb_lpc922
     0C:   00001586  A$fb_lpc922$1610                   fb_lpc922
     0C:   00001586  C$fb_lpc922.c$362$1$1              fb_lpc922
     0C:   00001588  A$fb_lpc922$1611                   fb_lpc922
     0C:   0000158A  A$fb_lpc922$1612                   fb_lpc922
     0C:   0000158C  A$fb_lpc922$1613                   fb_lpc922
     0C:   0000158E  A$fb_lpc922$1616                   fb_lpc922
     0C:   0000158E  C$fb_lpc922.c$363$1$1              fb_lpc922
     0C:   00001591  A$fb_lpc922$1619                   fb_lpc922
     0C:   00001591  C$fb_lpc922.c$364$1$1              fb_lpc922
     0C:   00001594  A$fb_lpc922$1622                   fb_lpc922
     0C:   00001594  C$fb_lpc922.c$365$1$1              fb_lpc922
     0C:   00001596  A$fb_lpc922$1625                   fb_lpc922
     0C:   00001596  C$fb_lpc922.c$367$1$1              fb_lpc922
     0C:   00001598  A$fb_lpc922$1626                   fb_lpc922
     0C:   0000159A  A$fb_lpc922$1627                   fb_lpc922
     0C:   0000159C  A$fb_lpc922$1628                   fb_lpc922
     0C:   0000159D  A$fb_lpc922$1631                   fb_lpc922
     0C:   0000159D  C$fb_lpc922.c$368$1$1              fb_lpc922
     0C:   000015A0  A$fb_lpc922$1634                   fb_lpc922
ASxxxx Linker V02.00 + NoICE + sdld,  page 94.
Hexadecimal  [32-Bits]

Area                                    Addr        Size        Decimal Bytes (Attributes)
--------------------------------        ----        ----        ------- ----- ------------
CSEG                                000000A5    00001BC5 =        7109. bytes (REL,CON,CODE)

      Value  Global                              Global Defined In Module
      -----  --------------------------------   ------------------------
     0C:   000015A2  A$fb_lpc922$1636                   fb_lpc922
     0C:   000015A3  A$fb_lpc922$1637                   fb_lpc922
     0C:   000015A4  A$fb_lpc922$1638                   fb_lpc922
     0C:   000015A5  A$fb_lpc922$1639                   fb_lpc922
     0C:   000015A7  A$fb_lpc922$1642                   fb_lpc922
     0C:   000015A7  C$fb_lpc922.c$370$2$2              fb_lpc922
     0C:   000015A8  A$fb_lpc922$1643                   fb_lpc922
     0C:   000015AA  A$fb_lpc922$1644                   fb_lpc922
     0C:   000015AB  A$fb_lpc922$1645                   fb_lpc922
     0C:   000015AC  A$fb_lpc922$1646                   fb_lpc922
     0C:   000015AD  A$fb_lpc922$1647                   fb_lpc922
     0C:   000015AF  A$fb_lpc922$1650                   fb_lpc922
     0C:   000015AF  C$fb_lpc922.c$369$1$1              fb_lpc922
     0C:   000015B0  A$fb_lpc922$1651                   fb_lpc922
     0C:   000015B2  A$fb_lpc922$1655                   fb_lpc922
     0C:   000015B2  C$fb_lpc922.c$372$1$1              fb_lpc922
     0C:   000015B3  A$fb_lpc922$1656                   fb_lpc922
     0C:   000015B5  A$fb_lpc922$1657                   fb_lpc922
     0C:   000015B6  A$fb_lpc922$1658                   fb_lpc922
     0C:   000015B8  A$fb_lpc922$1661                   fb_lpc922
     0C:   000015B8  C$fb_lpc922.c$373$1$1              fb_lpc922
     0C:   000015BA  A$fb_lpc922$1664                   fb_lpc922
     0C:   000015BA  C$fb_lpc922.c$374$1$1              fb_lpc922
     0C:   000015BC  A$fb_lpc922$1667                   fb_lpc922
     0C:   000015BC  C$fb_lpc922.c$375$1$1              fb_lpc922
     0C:   000015BE  A$fb_lpc922$1670                   fb_lpc922
     0C:   000015BE  C$fb_lpc922.c$377$1$1              fb_lpc922
     0C:   000015C1  A$fb_lpc922$1673                   fb_lpc922
     0C:   000015C1  C$fb_lpc922.c$378$1$1              fb_lpc922
     0C:   000015C4  A$fb_lpc922$1676                   fb_lpc922
     0C:   000015C4  C$fb_lpc922.c$379$1$1              fb_lpc922
     0C:   000015C7  A$fb_lpc922$1679                   fb_lpc922
     0C:   000015C7  C$fb_lpc922.c$380$1$1              fb_lpc922
     0C:   000015C9  A$fb_lpc922$1682                   fb_lpc922
     0C:   000015C9  C$fb_lpc922.c$381$1$1              fb_lpc922
     0C:   000015CB  A$fb_lpc922$1685                   fb_lpc922
     0C:   000015CB  C$fb_lpc922.c$382$1$1              fb_lpc922
     0C:   000015CD  A$fb_lpc922$1688                   fb_lpc922
     0C:   000015CD  C$fb_lpc922.c$383$1$1              fb_lpc922
     0C:   000015CD  XG$init_tx$0$0                     fb_lpc922
     0C:   000015CE  A$fb_lpc922$1704                   fb_lpc922
     0C:   000015CE  C$fb_lpc922.c$390$1$1              fb_lpc922
     0C:   000015CE  G$gapos_in_gat$0$0                 fb_lpc922
     0C:   000015CE  _gapos_in_gat                      fb_lpc922
     0C:   000015D0  A$fb_lpc922$1705                   fb_lpc922
     0C:   000015D3  A$fb_lpc922$1706                   fb_lpc922
     0C:   000015D5  A$fb_lpc922$1709                   fb_lpc922
     0C:   000015D5  C$fb_lpc922.c$394$1$1              fb_lpc922
     0C:   000015D7  A$fb_lpc922$1712                   fb_lpc922
     0C:   000015D7  C$fb_lpc922.c$395$1$1              fb_lpc922
     0C:   000015DA  A$fb_lpc922$1713                   fb_lpc922
ASxxxx Linker V02.00 + NoICE + sdld,  page 95.
Hexadecimal  [32-Bits]

Area                                    Addr        Size        Decimal Bytes (Attributes)
--------------------------------        ----        ----        ------- ----- ------------
CSEG                                000000A5    00001BC5 =        7109. bytes (REL,CON,CODE)

      Value  Global                              Global Defined In Module
      -----  --------------------------------   ------------------------
     0C:   000015DB  A$fb_lpc922$1714                   fb_lpc922
     0C:   000015DC  A$fb_lpc922$1715                   fb_lpc922
     0C:   000015DD  A$fb_lpc922$1716                   fb_lpc922
     0C:   000015E0  A$fb_lpc922$1718                   fb_lpc922
     0C:   000015E2  A$fb_lpc922$1719                   fb_lpc922
     0C:   000015E5  A$fb_lpc922$1722                   fb_lpc922
     0C:   000015E5  C$fb_lpc922.c$396$2$2              fb_lpc922
     0C:   000015E8  A$fb_lpc922$1723                   fb_lpc922
     0C:   000015E9  A$fb_lpc922$1724                   fb_lpc922
     0C:   000015EA  A$fb_lpc922$1725                   fb_lpc922
     0C:   000015EC  A$fb_lpc922$1728                   fb_lpc922
     0C:   000015EC  C$fb_lpc922.c$397$1$1              fb_lpc922
     0C:   000015EE  A$fb_lpc922$1730                   fb_lpc922
     0C:   000015F1  A$fb_lpc922$1731                   fb_lpc922
     0C:   000015F2  A$fb_lpc922$1732                   fb_lpc922
     0C:   000015F3  A$fb_lpc922$1733                   fb_lpc922
     0C:   000015F4  A$fb_lpc922$1734                   fb_lpc922
     0C:   000015F5  A$fb_lpc922$1735                   fb_lpc922
     0C:   000015F6  A$fb_lpc922$1736                   fb_lpc922
     0C:   000015F8  A$fb_lpc922$1739                   fb_lpc922
     0C:   000015F8  C$fb_lpc922.c$398$4$4              fb_lpc922
     0C:   000015F9  A$fb_lpc922$1740                   fb_lpc922
     0C:   000015FA  A$fb_lpc922$1741                   fb_lpc922
     0C:   000015FB  A$fb_lpc922$1742                   fb_lpc922
     0C:   000015FD  A$fb_lpc922$1743                   fb_lpc922
     0C:   00001600  A$fb_lpc922$1744                   fb_lpc922
     0C:   00001601  A$fb_lpc922$1745                   fb_lpc922
     0C:   00001602  A$fb_lpc922$1746                   fb_lpc922
     0C:   00001603  A$fb_lpc922$1747                   fb_lpc922
     0C:   00001606  A$fb_lpc922$1748                   fb_lpc922
     0C:   00001608  A$fb_lpc922$1749                   fb_lpc922
     0C:   00001609  A$fb_lpc922$1750                   fb_lpc922
     0C:   0000160C  A$fb_lpc922$1751                   fb_lpc922
     0C:   0000160D  A$fb_lpc922$1752                   fb_lpc922
     0C:   0000160E  A$fb_lpc922$1753                   fb_lpc922
     0C:   00001610  A$fb_lpc922$1754                   fb_lpc922
     0C:   00001612  A$fb_lpc922$1755                   fb_lpc922
     0C:   00001613  A$fb_lpc922$1756                   fb_lpc922
     0C:   00001614  A$fb_lpc922$1757                   fb_lpc922
     0C:   00001617  A$fb_lpc922$1758                   fb_lpc922
     0C:   00001619  A$fb_lpc922$1762                   fb_lpc922
     0C:   00001619  C$fb_lpc922.c$397$3$3              fb_lpc922
     0C:   0000161A  A$fb_lpc922$1763                   fb_lpc922
     0C:   0000161C  A$fb_lpc922$1767                   fb_lpc922
     0C:   0000161C  C$fb_lpc922.c$402$1$1              fb_lpc922
     0C:   0000161E  A$fb_lpc922$1768                   fb_lpc922
     0C:   00001620  A$fb_lpc922$1771                   fb_lpc922
     0C:   00001620  C$fb_lpc922.c$403$1$1              fb_lpc922
     0C:   00001620  XG$gapos_in_gat$0$0                fb_lpc922
     0C:   00001621  A$fb_lpc922$1792                   fb_lpc922
     0C:   00001621  C$fb_lpc922.c$408$1$1              fb_lpc922
ASxxxx Linker V02.00 + NoICE + sdld,  page 96.
Hexadecimal  [32-Bits]

Area                                    Addr        Size        Decimal Bytes (Attributes)
--------------------------------        ----        ----        ------- ----- ------------
CSEG                                000000A5    00001BC5 =        7109. bytes (REL,CON,CODE)

      Value  Global                              Global Defined In Module
      -----  --------------------------------   ------------------------
     0C:   00001621  G$build_tel$0$0                    fb_lpc922
     0C:   00001621  _build_tel                         fb_lpc922
     0C:   00001623  A$fb_lpc922$1793                   fb_lpc922
     0C:   00001625  A$fb_lpc922$1794                   fb_lpc922
     0C:   00001627  A$fb_lpc922$1795                   fb_lpc922
     0C:   00001629  A$fb_lpc922$1796                   fb_lpc922
     0C:   0000162B  A$fb_lpc922$1797                   fb_lpc922
     0C:   0000162D  A$fb_lpc922$1800                   fb_lpc922
     0C:   0000162D  C$fb_lpc922.c$410$1$1              fb_lpc922
     0C:   0000162F  A$fb_lpc922$1803                   fb_lpc922
     0C:   0000162F  C$fb_lpc922.c$417$1$1              fb_lpc922
     0C:   00001630  A$fb_lpc922$1804                   fb_lpc922
     0C:   00001632  A$fb_lpc922$1805                   fb_lpc922
     0C:   00001633  A$fb_lpc922$1806                   fb_lpc922
     0C:   00001634  A$fb_lpc922$1807                   fb_lpc922
     0C:   00001635  A$fb_lpc922$1808                   fb_lpc922
     0C:   00001637  A$fb_lpc922$1809                   fb_lpc922
     0C:   00001639  A$fb_lpc922$1812                   fb_lpc922
     0C:   00001639  C$fb_lpc922.c$419$1$1              fb_lpc922
     0C:   0000163C  A$fb_lpc922$1814                   fb_lpc922
     0C:   0000163E  A$fb_lpc922$1815                   fb_lpc922
     0C:   00001641  A$fb_lpc922$1819                   fb_lpc922
     0C:   00001641  C$fb_lpc922.c$420$2$2              fb_lpc922
     0C:   00001642  A$fb_lpc922$1820                   fb_lpc922
     0C:   00001643  A$fb_lpc922$1821                   fb_lpc922
     0C:   00001644  A$fb_lpc922$1822                   fb_lpc922
     0C:   00001646  A$fb_lpc922$1823                   fb_lpc922
     0C:   00001648  A$fb_lpc922$1824                   fb_lpc922
     0C:   0000164A  A$fb_lpc922$1827                   fb_lpc922
     0C:   0000164A  C$fb_lpc922.c$421$2$2              fb_lpc922
     0C:   0000164D  A$fb_lpc922$1830                   fb_lpc922
     0C:   0000164D  C$fb_lpc922.c$423$2$2              fb_lpc922
     0C:   0000164F  A$fb_lpc922$1831                   fb_lpc922
     0C:   00001651  A$fb_lpc922$1832                   fb_lpc922
     0C:   00001653  A$fb_lpc922$1833                   fb_lpc922
     0C:   00001656  A$fb_lpc922$1834                   fb_lpc922
     0C:   00001658  A$fb_lpc922$1835                   fb_lpc922
     0C:   0000165A  A$fb_lpc922$1836                   fb_lpc922
     0C:   0000165C  A$fb_lpc922$1837                   fb_lpc922
     0C:   0000165D  A$fb_lpc922$1838                   fb_lpc922
     0C:   0000165F  A$fb_lpc922$1839                   fb_lpc922
     0C:   00001661  A$fb_lpc922$1840                   fb_lpc922
     0C:   00001663  A$fb_lpc922$1841                   fb_lpc922
     0C:   00001664  A$fb_lpc922$1842                   fb_lpc922
     0C:   00001666  A$fb_lpc922$1843                   fb_lpc922
     0C:   00001667  A$fb_lpc922$1844                   fb_lpc922
     0C:   00001669  A$fb_lpc922$1845                   fb_lpc922
     0C:   0000166A  A$fb_lpc922$1846                   fb_lpc922
     0C:   0000166C  A$fb_lpc922$1847                   fb_lpc922
     0C:   0000166D  A$fb_lpc922$1848                   fb_lpc922
     0C:   0000166F  A$fb_lpc922$1851                   fb_lpc922
ASxxxx Linker V02.00 + NoICE + sdld,  page 97.
Hexadecimal  [32-Bits]

Area                                    Addr        Size        Decimal Bytes (Attributes)
--------------------------------        ----        ----        ------- ----- ------------
CSEG                                000000A5    00001BC5 =        7109. bytes (REL,CON,CODE)

      Value  Global                              Global Defined In Module
      -----  --------------------------------   ------------------------
     0C:   0000166F  C$fb_lpc922.c$425$2$2              fb_lpc922
     0C:   00001671  A$fb_lpc922$1852                   fb_lpc922
     0C:   00001673  A$fb_lpc922$1853                   fb_lpc922
     0C:   00001675  A$fb_lpc922$1854                   fb_lpc922
     0C:   00001678  A$fb_lpc922$1855                   fb_lpc922
     0C:   0000167A  A$fb_lpc922$1856                   fb_lpc922
     0C:   0000167C  A$fb_lpc922$1857                   fb_lpc922
     0C:   0000167E  A$fb_lpc922$1858                   fb_lpc922
     0C:   00001680  A$fb_lpc922$1859                   fb_lpc922
     0C:   00001682  A$fb_lpc922$1862                   fb_lpc922
     0C:   00001682  C$fb_lpc922.c$426$2$2              fb_lpc922
     0C:   00001683  A$fb_lpc922$1863                   fb_lpc922
     0C:   00001684  A$fb_lpc922$1864                   fb_lpc922
     0C:   00001686  A$fb_lpc922$1865                   fb_lpc922
     0C:   00001689  A$fb_lpc922$1869                   fb_lpc922
     0C:   00001689  C$fb_lpc922.c$428$3$3              fb_lpc922
     0C:   0000168C  A$fb_lpc922$1872                   fb_lpc922
     0C:   0000168C  C$fb_lpc922.c$429$3$3              fb_lpc922
     0C:   0000168F  A$fb_lpc922$1873                   fb_lpc922
     0C:   00001690  A$fb_lpc922$1874                   fb_lpc922
     0C:   00001691  A$fb_lpc922$1875                   fb_lpc922
     0C:   00001692  A$fb_lpc922$1876                   fb_lpc922
     0C:   00001694  A$fb_lpc922$1879                   fb_lpc922
     0C:   00001694  C$fb_lpc922.c$430$3$3              fb_lpc922
     0C:   00001697  A$fb_lpc922$1880                   fb_lpc922
     0C:   00001698  A$fb_lpc922$1881                   fb_lpc922
     0C:   00001699  A$fb_lpc922$1882                   fb_lpc922
     0C:   0000169A  A$fb_lpc922$1883                   fb_lpc922
     0C:   0000169C  A$fb_lpc922$1886                   fb_lpc922
     0C:   0000169C  C$fb_lpc922.c$431$3$3              fb_lpc922
     0C:   0000169E  A$fb_lpc922$1887                   fb_lpc922
     0C:   000016A0  A$fb_lpc922$1890                   fb_lpc922
     0C:   000016A0  C$fb_lpc922.c$432$3$3              fb_lpc922
     0C:   000016A2  A$fb_lpc922$1893                   fb_lpc922
     0C:   000016A2  C$fb_lpc922.c$433$3$3              fb_lpc922
     0C:   000016A5  A$fb_lpc922$1896                   fb_lpc922
     0C:   000016A5  C$fb_lpc922.c$434$3$3              fb_lpc922
     0C:   000016A8  A$fb_lpc922$1897                   fb_lpc922
     0C:   000016AB  A$fb_lpc922$1898                   fb_lpc922
     0C:   000016AD  A$fb_lpc922$1902                   fb_lpc922
     0C:   000016AD  C$fb_lpc922.c$435$3$3              fb_lpc922
     0C:   000016B0  A$fb_lpc922$1906                   fb_lpc922
     0C:   000016B0  C$fb_lpc922.c$437$3$3              fb_lpc922
     0C:   000016B3  A$fb_lpc922$1907                   fb_lpc922
     0C:   000016B4  A$fb_lpc922$1908                   fb_lpc922
     0C:   000016B5  A$fb_lpc922$1909                   fb_lpc922
     0C:   000016B6  A$fb_lpc922$1910                   fb_lpc922
     0C:   000016B7  A$fb_lpc922$1911                   fb_lpc922
     0C:   000016BA  A$fb_lpc922$1912                   fb_lpc922
     0C:   000016BB  A$fb_lpc922$1913                   fb_lpc922
     0C:   000016BC  A$fb_lpc922$1914                   fb_lpc922
ASxxxx Linker V02.00 + NoICE + sdld,  page 98.
Hexadecimal  [32-Bits]

Area                                    Addr        Size        Decimal Bytes (Attributes)
--------------------------------        ----        ----        ------- ----- ------------
CSEG                                000000A5    00001BC5 =        7109. bytes (REL,CON,CODE)

      Value  Global                              Global Defined In Module
      -----  --------------------------------   ------------------------
     0C:   000016BE  A$fb_lpc922$1915                   fb_lpc922
     0C:   000016C1  A$fb_lpc922$1916                   fb_lpc922
     0C:   000016C2  A$fb_lpc922$1919                   fb_lpc922
     0C:   000016C2  C$fb_lpc922.c$439$3$3              fb_lpc922
     0C:   000016C3  A$fb_lpc922$1920                   fb_lpc922
     0C:   000016C5  A$fb_lpc922$1921                   fb_lpc922
     0C:   000016C7  A$fb_lpc922$1922                   fb_lpc922
     0C:   000016C8  A$fb_lpc922$1923                   fb_lpc922
     0C:   000016CA  A$fb_lpc922$1924                   fb_lpc922
     0C:   000016CB  A$fb_lpc922$1925                   fb_lpc922
     0C:   000016CD  A$fb_lpc922$1927                   fb_lpc922
     0C:   000016CF  A$fb_lpc922$1931                   fb_lpc922
     0C:   000016CF  C$fb_lpc922.c$440$3$3              fb_lpc922
     0C:   000016D1  A$fb_lpc922$1932                   fb_lpc922
     0C:   000016D2  A$fb_lpc922$1933                   fb_lpc922
     0C:   000016D4  A$fb_lpc922$1936                   fb_lpc922
     0C:   000016D4  C$fb_lpc922.c$441$3$3              fb_lpc922
     0C:   000016D5  A$fb_lpc922$1937                   fb_lpc922
     0C:   000016D7  A$fb_lpc922$1938                   fb_lpc922
     0C:   000016D9  A$fb_lpc922$1939                   fb_lpc922
     0C:   000016DB  A$fb_lpc922$1940                   fb_lpc922
     0C:   000016DC  A$fb_lpc922$1941                   fb_lpc922
     0C:   000016DE  A$fb_lpc922$1942                   fb_lpc922
     0C:   000016DF  A$fb_lpc922$1943                   fb_lpc922
     0C:   000016E1  A$fb_lpc922$1944                   fb_lpc922
     0C:   000016E2  A$fb_lpc922$1945                   fb_lpc922
     0C:   000016E4  A$fb_lpc922$1946                   fb_lpc922
     0C:   000016E6  A$fb_lpc922$1947                   fb_lpc922
     0C:   000016E8  A$fb_lpc922$1949                   fb_lpc922
     0C:   000016EA  A$fb_lpc922$1950                   fb_lpc922
     0C:   000016EB  A$fb_lpc922$1951                   fb_lpc922
     0C:   000016ED  A$fb_lpc922$1952                   fb_lpc922
     0C:   000016EE  A$fb_lpc922$1953                   fb_lpc922
     0C:   000016EF  A$fb_lpc922$1954                   fb_lpc922
     0C:   000016F0  A$fb_lpc922$1955                   fb_lpc922
     0C:   000016F1  A$fb_lpc922$1956                   fb_lpc922
     0C:   000016F2  A$fb_lpc922$1957                   fb_lpc922
     0C:   000016F3  A$fb_lpc922$1958                   fb_lpc922
     0C:   000016F4  A$fb_lpc922$1959                   fb_lpc922
     0C:   000016F6  A$fb_lpc922$1960                   fb_lpc922
     0C:   000016F8  A$fb_lpc922$1964                   fb_lpc922
     0C:   000016F8  C$fb_lpc922.c$442$3$3              fb_lpc922
     0C:   000016F9  A$fb_lpc922$1965                   fb_lpc922
     0C:   000016FB  A$fb_lpc922$1966                   fb_lpc922
     0C:   000016FD  A$fb_lpc922$1967                   fb_lpc922
     0C:   000016FF  A$fb_lpc922$1968                   fb_lpc922
     0C:   00001700  A$fb_lpc922$1969                   fb_lpc922
     0C:   00001702  A$fb_lpc922$1970                   fb_lpc922
     0C:   00001703  A$fb_lpc922$1971                   fb_lpc922
     0C:   00001705  A$fb_lpc922$1972                   fb_lpc922
     0C:   00001706  A$fb_lpc922$1973                   fb_lpc922
ASxxxx Linker V02.00 + NoICE + sdld,  page 99.
Hexadecimal  [32-Bits]

Area                                    Addr        Size        Decimal Bytes (Attributes)
--------------------------------        ----        ----        ------- ----- ------------
CSEG                                000000A5    00001BC5 =        7109. bytes (REL,CON,CODE)

      Value  Global                              Global Defined In Module
      -----  --------------------------------   ------------------------
     0C:   00001707  A$fb_lpc922$1974                   fb_lpc922
     0C:   00001709  A$fb_lpc922$1975                   fb_lpc922
     0C:   0000170B  A$fb_lpc922$1979                   fb_lpc922
     0C:   0000170B  C$fb_lpc922.c$443$3$3              fb_lpc922
     0C:   0000170C  A$fb_lpc922$1980                   fb_lpc922
     0C:   0000170E  A$fb_lpc922$1981                   fb_lpc922
     0C:   00001710  A$fb_lpc922$1982                   fb_lpc922
     0C:   00001712  A$fb_lpc922$1983                   fb_lpc922
     0C:   00001713  A$fb_lpc922$1984                   fb_lpc922
     0C:   00001715  A$fb_lpc922$1985                   fb_lpc922
     0C:   00001716  A$fb_lpc922$1986                   fb_lpc922
     0C:   00001718  A$fb_lpc922$1987                   fb_lpc922
     0C:   00001719  A$fb_lpc922$1988                   fb_lpc922
     0C:   0000171A  A$fb_lpc922$1989                   fb_lpc922
     0C:   0000171B  A$fb_lpc922$1990                   fb_lpc922
     0C:   0000171D  A$fb_lpc922$1991                   fb_lpc922
     0C:   0000171F  A$fb_lpc922$1995                   fb_lpc922
     0C:   0000171F  C$fb_lpc922.c$444$3$3              fb_lpc922
     0C:   00001720  A$fb_lpc922$1996                   fb_lpc922
     0C:   00001722  A$fb_lpc922$1997                   fb_lpc922
     0C:   00001724  A$fb_lpc922$1998                   fb_lpc922
     0C:   00001726  A$fb_lpc922$1999                   fb_lpc922
     0C:   00001727  A$fb_lpc922$2000                   fb_lpc922
     0C:   00001729  A$fb_lpc922$2001                   fb_lpc922
     0C:   0000172A  A$fb_lpc922$2002                   fb_lpc922
     0C:   0000172C  A$fb_lpc922$2003                   fb_lpc922
     0C:   0000172D  A$fb_lpc922$2004                   fb_lpc922
     0C:   0000172E  A$fb_lpc922$2005                   fb_lpc922
     0C:   0000172F  A$fb_lpc922$2006                   fb_lpc922
     0C:   00001730  A$fb_lpc922$2007                   fb_lpc922
     0C:   00001732  A$fb_lpc922$2008                   fb_lpc922
     0C:   00001734  A$fb_lpc922$2012                   fb_lpc922
     0C:   00001734  C$fb_lpc922.c$446$3$3              fb_lpc922
     0C:   00001736  A$fb_lpc922$2013                   fb_lpc922
     0C:   00001739  A$fb_lpc922$2017                   fb_lpc922
     0C:   00001739  C$fb_lpc922.c$450$2$4              fb_lpc922
     0C:   0000173C  A$fb_lpc922$2020                   fb_lpc922
     0C:   0000173C  C$fb_lpc922.c$451$2$4              fb_lpc922
     0C:   0000173F  A$fb_lpc922$2021                   fb_lpc922
     0C:   00001740  A$fb_lpc922$2022                   fb_lpc922
     0C:   00001741  A$fb_lpc922$2023                   fb_lpc922
     0C:   00001742  A$fb_lpc922$2024                   fb_lpc922
     0C:   00001744  A$fb_lpc922$2027                   fb_lpc922
     0C:   00001744  C$fb_lpc922.c$452$2$4              fb_lpc922
     0C:   00001747  A$fb_lpc922$2028                   fb_lpc922
     0C:   00001748  A$fb_lpc922$2029                   fb_lpc922
     0C:   00001749  A$fb_lpc922$2030                   fb_lpc922
     0C:   0000174A  A$fb_lpc922$2031                   fb_lpc922
     0C:   0000174C  A$fb_lpc922$2034                   fb_lpc922
     0C:   0000174C  C$fb_lpc922.c$453$2$4              fb_lpc922
     0C:   0000174F  A$fb_lpc922$2037                   fb_lpc922
ASxxxx Linker V02.00 + NoICE + sdld,  page 100.
Hexadecimal  [32-Bits]

Area                                    Addr        Size        Decimal Bytes (Attributes)
--------------------------------        ----        ----        ------- ----- ------------
CSEG                                000000A5    00001BC5 =        7109. bytes (REL,CON,CODE)

      Value  Global                              Global Defined In Module
      -----  --------------------------------   ------------------------
     0C:   0000174F  C$fb_lpc922.c$454$2$4              fb_lpc922
     0C:   00001752  A$fb_lpc922$2040                   fb_lpc922
     0C:   00001752  C$fb_lpc922.c$456$2$4              fb_lpc922
     0C:   00001755  A$fb_lpc922$2041                   fb_lpc922
     0C:   00001756  A$fb_lpc922$2042                   fb_lpc922
     0C:   00001758  A$fb_lpc922$2043                   fb_lpc922
     0C:   0000175A  A$fb_lpc922$2044                   fb_lpc922
     0C:   0000175D  A$fb_lpc922$2046                   fb_lpc922
     0C:   0000175E  A$fb_lpc922$2047                   fb_lpc922
     0C:   0000175F  A$fb_lpc922$2048                   fb_lpc922
     0C:   00001760  A$fb_lpc922$2049                   fb_lpc922
     0C:   00001763  A$fb_lpc922$2050                   fb_lpc922
     0C:   00001764  A$fb_lpc922$2052                   fb_lpc922
     0C:   00001767  A$fb_lpc922$2053                   fb_lpc922
     0C:   0000176A  A$fb_lpc922$2054                   fb_lpc922
     0C:   0000176D  A$fb_lpc922$2055                   fb_lpc922
     0C:   00001770  A$fb_lpc922$2056                   fb_lpc922
     0C:   00001773  A$fb_lpc922$2057                   fb_lpc922
     0C:   00001776  A$fb_lpc922$2063                   fb_lpc922
     0C:   00001776  C$fb_lpc922.c$457$3$5              fb_lpc922
     0C:   00001776  C$fb_lpc922.c$458$3$5              fb_lpc922
     0C:   00001779  A$fb_lpc922$2066                   fb_lpc922
     0C:   00001779  C$fb_lpc922.c$459$3$5              fb_lpc922
     0C:   0000177B  A$fb_lpc922$2067                   fb_lpc922
     0C:   0000177D  A$fb_lpc922$2068                   fb_lpc922
     0C:   0000177F  A$fb_lpc922$2071                   fb_lpc922
     0C:   0000177F  C$fb_lpc922.c$461$3$5              fb_lpc922
     0C:   00001782  A$fb_lpc922$2077                   fb_lpc922
     0C:   00001782  C$fb_lpc922.c$462$3$5              fb_lpc922
     0C:   00001782  C$fb_lpc922.c$463$3$5              fb_lpc922
     0C:   00001785  A$fb_lpc922$2080                   fb_lpc922
     0C:   00001785  C$fb_lpc922.c$464$3$5              fb_lpc922
     0C:   00001787  A$fb_lpc922$2081                   fb_lpc922
     0C:   00001789  A$fb_lpc922$2082                   fb_lpc922
     0C:   0000178B  A$fb_lpc922$2085                   fb_lpc922
     0C:   0000178B  C$fb_lpc922.c$465$3$5              fb_lpc922
     0C:   0000178E  A$fb_lpc922$2088                   fb_lpc922
     0C:   0000178E  C$fb_lpc922.c$466$3$5              fb_lpc922
     0C:   00001791  A$fb_lpc922$2091                   fb_lpc922
     0C:   00001791  C$fb_lpc922.c$467$3$5              fb_lpc922
     0C:   00001794  A$fb_lpc922$2094                   fb_lpc922
     0C:   00001794  C$fb_lpc922.c$468$3$5              fb_lpc922
     0C:   00001796  A$fb_lpc922$2097                   fb_lpc922
     0C:   00001796  C$fb_lpc922.c$469$3$5              fb_lpc922
     0C:   00001799  A$fb_lpc922$2103                   fb_lpc922
     0C:   00001799  C$fb_lpc922.c$470$3$5              fb_lpc922
     0C:   00001799  C$fb_lpc922.c$471$3$5              fb_lpc922
     0C:   0000179C  A$fb_lpc922$2106                   fb_lpc922
     0C:   0000179C  C$fb_lpc922.c$472$3$5              fb_lpc922
     0C:   0000179F  A$fb_lpc922$2109                   fb_lpc922
     0C:   0000179F  C$fb_lpc922.c$473$3$5              fb_lpc922
ASxxxx Linker V02.00 + NoICE + sdld,  page 101.
Hexadecimal  [32-Bits]

Area                                    Addr        Size        Decimal Bytes (Attributes)
--------------------------------        ----        ----        ------- ----- ------------
CSEG                                000000A5    00001BC5 =        7109. bytes (REL,CON,CODE)

      Value  Global                              Global Defined In Module
      -----  --------------------------------   ------------------------
     0C:   000017A2  A$fb_lpc922$2112                   fb_lpc922
     0C:   000017A2  C$fb_lpc922.c$474$3$5              fb_lpc922
     0C:   000017A5  A$fb_lpc922$2115                   fb_lpc922
     0C:   000017A5  C$fb_lpc922.c$475$3$5              fb_lpc922
     0C:   000017A8  A$fb_lpc922$2120                   fb_lpc922
     0C:   000017A8  C$fb_lpc922.c$476$3$5              fb_lpc922
     0C:   000017A8  C$fb_lpc922.c$477$3$5              fb_lpc922
     0C:   000017AA  A$fb_lpc922$2124                   fb_lpc922
     0C:   000017AA  C$fb_lpc922.c$478$1$1              fb_lpc922
     0C:   000017AC  A$fb_lpc922$2126                   fb_lpc922
     0C:   000017AD  A$fb_lpc922$2127                   fb_lpc922
     0C:   000017AE  A$fb_lpc922$2128                   fb_lpc922
     0C:   000017B0  A$fb_lpc922$2129                   fb_lpc922
     0C:   000017B2  A$fb_lpc922$2132                   fb_lpc922
     0C:   000017B2  C$fb_lpc922.c$479$4$6              fb_lpc922
     0C:   000017B4  A$fb_lpc922$2133                   fb_lpc922
     0C:   000017B6  A$fb_lpc922$2136                   fb_lpc922
     0C:   000017B6  C$fb_lpc922.c$480$5$7              fb_lpc922
     0C:   000017B8  A$fb_lpc922$2137                   fb_lpc922
     0C:   000017B9  A$fb_lpc922$2138                   fb_lpc922
     0C:   000017BB  A$fb_lpc922$2139                   fb_lpc922
     0C:   000017BC  A$fb_lpc922$2140                   fb_lpc922
     0C:   000017BD  A$fb_lpc922$2141                   fb_lpc922
     0C:   000017BF  A$fb_lpc922$2142                   fb_lpc922
     0C:   000017C2  A$fb_lpc922$2143                   fb_lpc922
     0C:   000017C3  A$fb_lpc922$2144                   fb_lpc922
     0C:   000017C4  A$fb_lpc922$2147                   fb_lpc922
     0C:   000017C4  C$fb_lpc922.c$481$5$7              fb_lpc922
     0C:   000017C6  A$fb_lpc922$2148                   fb_lpc922
     0C:   000017C8  A$fb_lpc922$2149                   fb_lpc922
     0C:   000017CA  A$fb_lpc922$2150                   fb_lpc922
     0C:   000017CC  A$fb_lpc922$2151                   fb_lpc922
     0C:   000017CD  A$fb_lpc922$2152                   fb_lpc922
     0C:   000017CE  A$fb_lpc922$2153                   fb_lpc922
     0C:   000017CF  A$fb_lpc922$2154                   fb_lpc922
     0C:   000017D0  A$fb_lpc922$2155                   fb_lpc922
     0C:   000017D1  A$fb_lpc922$2156                   fb_lpc922
     0C:   000017D2  A$fb_lpc922$2157                   fb_lpc922
     0C:   000017D5  A$fb_lpc922$2158                   fb_lpc922
     0C:   000017D8  A$fb_lpc922$2159                   fb_lpc922
     0C:   000017DA  A$fb_lpc922$2160                   fb_lpc922
     0C:   000017DB  A$fb_lpc922$2161                   fb_lpc922
     0C:   000017DD  A$fb_lpc922$2162                   fb_lpc922
     0C:   000017DE  A$fb_lpc922$2163                   fb_lpc922
     0C:   000017E0  A$fb_lpc922$2164                   fb_lpc922
     0C:   000017E2  A$fb_lpc922$2168                   fb_lpc922
     0C:   000017E2  C$fb_lpc922.c$483$4$6              fb_lpc922
     0C:   000017E4  A$fb_lpc922$2169                   fb_lpc922
     0C:   000017E5  A$fb_lpc922$2170                   fb_lpc922
     0C:   000017E7  A$fb_lpc922$2171                   fb_lpc922
     0C:   000017E8  A$fb_lpc922$2172                   fb_lpc922
ASxxxx Linker V02.00 + NoICE + sdld,  page 102.
Hexadecimal  [32-Bits]

Area                                    Addr        Size        Decimal Bytes (Attributes)
--------------------------------        ----        ----        ------- ----- ------------
CSEG                                000000A5    00001BC5 =        7109. bytes (REL,CON,CODE)

      Value  Global                              Global Defined In Module
      -----  --------------------------------   ------------------------
     0C:   000017E9  A$fb_lpc922$2173                   fb_lpc922
     0C:   000017EB  A$fb_lpc922$2174                   fb_lpc922
     0C:   000017EE  A$fb_lpc922$2175                   fb_lpc922
     0C:   000017EF  A$fb_lpc922$2176                   fb_lpc922
     0C:   000017F0  A$fb_lpc922$2177                   fb_lpc922
     0C:   000017F1  A$fb_lpc922$2181                   fb_lpc922
     0C:   000017F1  C$fb_lpc922.c$478$3$5              fb_lpc922
     0C:   000017F2  A$fb_lpc922$2182                   fb_lpc922
     0C:   000017F4  A$fb_lpc922$2186                   fb_lpc922
     0C:   000017F4  C$fb_lpc922.c$485$3$5              fb_lpc922
     0C:   000017F6  A$fb_lpc922$2187                   fb_lpc922
     0C:   000017F8  A$fb_lpc922$2188                   fb_lpc922
     0C:   000017FA  A$fb_lpc922$2191                   fb_lpc922
     0C:   000017FA  C$fb_lpc922.c$486$3$5              fb_lpc922
     0C:   000017FC  A$fb_lpc922$2192                   fb_lpc922
     0C:   000017FE  A$fb_lpc922$2193                   fb_lpc922
     0C:   00001800  A$fb_lpc922$2196                   fb_lpc922
     0C:   00001800  C$fb_lpc922.c$487$3$5              fb_lpc922
     0C:   00001802  A$fb_lpc922$2197                   fb_lpc922
     0C:   00001804  A$fb_lpc922$2198                   fb_lpc922
     0C:   00001806  A$fb_lpc922$2201                   fb_lpc922
     0C:   00001806  C$fb_lpc922.c$488$3$5              fb_lpc922
     0C:   00001809  A$fb_lpc922$2204                   fb_lpc922
     0C:   00001809  C$fb_lpc922.c$489$3$5              fb_lpc922
     0C:   0000180C  A$fb_lpc922$2207                   fb_lpc922
     0C:   0000180C  C$fb_lpc922.c$490$3$5              fb_lpc922
     0C:   0000180E  A$fb_lpc922$2212                   fb_lpc922
     0C:   0000180E  C$fb_lpc922.c$491$3$5              fb_lpc922
     0C:   0000180E  C$fb_lpc922.c$492$3$5              fb_lpc922
     0C:   00001810  A$fb_lpc922$2216                   fb_lpc922
     0C:   00001810  C$fb_lpc922.c$493$3$5              fb_lpc922
     0C:   00001813  A$fb_lpc922$2219                   fb_lpc922
     0C:   00001813  C$fb_lpc922.c$494$3$5              fb_lpc922
     0C:   00001816  A$fb_lpc922$2225                   fb_lpc922
     0C:   00001816  C$fb_lpc922.c$496$2$4              fb_lpc922
     0C:   00001816  C$fb_lpc922.c$497$2$4              fb_lpc922
     0C:   00001818  A$fb_lpc922$2229                   fb_lpc922
     0C:   00001818  C$fb_lpc922.c$499$1$1              fb_lpc922
     0C:   0000181B  A$fb_lpc922$2230                   fb_lpc922
     0C:   0000181D  A$fb_lpc922$2231                   fb_lpc922
     0C:   0000181F  A$fb_lpc922$2232                   fb_lpc922
     0C:   00001821  A$fb_lpc922$2236                   fb_lpc922
     0C:   00001821  C$fb_lpc922.c$500$1$1              fb_lpc922
     0C:   00001823  A$fb_lpc922$2237                   fb_lpc922
     0C:   00001826  A$fb_lpc922$2238                   fb_lpc922
     0C:   00001828  A$fb_lpc922$2241                   fb_lpc922
     0C:   00001828  C$fb_lpc922.c$501$1$1              fb_lpc922
     0C:   00001828  XG$build_tel$0$0                   fb_lpc922
     0C:   00001829  A$fb_lpc922$2255                   fb_lpc922
     0C:   00001829  C$fb_lpc922.c$504$1$1              fb_lpc922
     0C:   00001829  G$send_obj_value$0$0               fb_lpc922
ASxxxx Linker V02.00 + NoICE + sdld,  page 103.
Hexadecimal  [32-Bits]

Area                                    Addr        Size        Decimal Bytes (Attributes)
--------------------------------        ----        ----        ------- ----- ------------
CSEG                                000000A5    00001BC5 =        7109. bytes (REL,CON,CODE)

      Value  Global                              Global Defined In Module
      -----  --------------------------------   ------------------------
     0C:   00001829  _send_obj_value                    fb_lpc922
     0C:   0000182B  A$fb_lpc922$2258                   fb_lpc922
     0C:   0000182B  C$fb_lpc922.c$506$1$1              fb_lpc922
     0C:   0000182D  A$fb_lpc922$2261                   fb_lpc922
     0C:   0000182D  C$fb_lpc922.c$508$1$1              fb_lpc922
     0C:   0000182F  A$fb_lpc922$2262                   fb_lpc922
     0C:   00001831  A$fb_lpc922$2263                   fb_lpc922
     0C:   00001832  A$fb_lpc922$2264                   fb_lpc922
     0C:   00001835  A$fb_lpc922$2265                   fb_lpc922
     0C:   00001836  A$fb_lpc922$2267                   fb_lpc922
     0C:   00001839  A$fb_lpc922$2268                   fb_lpc922
     0C:   0000183B  A$fb_lpc922$2269                   fb_lpc922
     0C:   0000183D  A$fb_lpc922$2270                   fb_lpc922
     0C:   0000183F  A$fb_lpc922$2271                   fb_lpc922
     0C:   00001840  A$fb_lpc922$2272                   fb_lpc922
     0C:   00001843  A$fb_lpc922$2273                   fb_lpc922
     0C:   00001844  A$fb_lpc922$2274                   fb_lpc922
     0C:   00001847  A$fb_lpc922$2275                   fb_lpc922
     0C:   00001849  A$fb_lpc922$2279                   fb_lpc922
     0C:   00001849  C$fb_lpc922.c$509$2$2              fb_lpc922
     0C:   0000184B  A$fb_lpc922$2280                   fb_lpc922
     0C:   0000184D  A$fb_lpc922$2281                   fb_lpc922
     0C:   0000184E  A$fb_lpc922$2282                   fb_lpc922
     0C:   00001850  A$fb_lpc922$2285                   fb_lpc922
     0C:   00001850  C$fb_lpc922.c$510$2$2              fb_lpc922
     0C:   00001852  A$fb_lpc922$2288                   fb_lpc922
     0C:   00001852  C$fb_lpc922.c$511$2$2              fb_lpc922
     0C:   00001855  A$fb_lpc922$2291                   fb_lpc922
     0C:   00001855  C$fb_lpc922.c$512$2$2              fb_lpc922
     0C:   00001857  A$fb_lpc922$2295                   fb_lpc922
     0C:   00001857  C$fb_lpc922.c$514$1$1              fb_lpc922
     0C:   00001859  A$fb_lpc922$2298                   fb_lpc922
     0C:   00001859  C$fb_lpc922.c$515$1$1              fb_lpc922
     0C:   0000185B  A$fb_lpc922$2301                   fb_lpc922
     0C:   0000185B  C$fb_lpc922.c$516$1$1              fb_lpc922
     0C:   0000185B  XG$send_obj_value$0$0              fb_lpc922
     0C:   0000185C  A$fb_lpc922$2317                   fb_lpc922
     0C:   0000185C  C$fb_lpc922.c$521$1$1              fb_lpc922
     0C:   0000185C  C$fb_lpc922.c$525$1$1              fb_lpc922
     0C:   0000185C  G$process_tel$0$0                  fb_lpc922
     0C:   0000185C  _process_tel                       fb_lpc922
     0C:   0000185E  A$fb_lpc922$2320                   fb_lpc922
     0C:   0000185E  C$fb_lpc922.c$526$1$1              fb_lpc922
     0C:   00001860  A$fb_lpc922$2321                   fb_lpc922
     0C:   00001862  A$fb_lpc922$2322                   fb_lpc922
     0C:   00001863  A$fb_lpc922$2323                   fb_lpc922
     0C:   00001864  A$fb_lpc922$2326                   fb_lpc922
     0C:   00001864  C$fb_lpc922.c$527$1$1              fb_lpc922
     0C:   00001866  A$fb_lpc922$2329                   fb_lpc922
     0C:   00001866  C$fb_lpc922.c$530$1$1              fb_lpc922
     0C:   00001868  A$fb_lpc922$2330                   fb_lpc922
ASxxxx Linker V02.00 + NoICE + sdld,  page 104.
Hexadecimal  [32-Bits]

Area                                    Addr        Size        Decimal Bytes (Attributes)
--------------------------------        ----        ----        ------- ----- ------------
CSEG                                000000A5    00001BC5 =        7109. bytes (REL,CON,CODE)

      Value  Global                              Global Defined In Module
      -----  --------------------------------   ------------------------
     0C:   00001869  A$fb_lpc922$2331                   fb_lpc922
     0C:   0000186B  A$fb_lpc922$2332                   fb_lpc922
     0C:   0000186D  A$fb_lpc922$2333                   fb_lpc922
     0C:   0000186F  A$fb_lpc922$2336                   fb_lpc922
     0C:   0000186F  C$fb_lpc922.c$531$2$2              fb_lpc922
     0C:   00001871  A$fb_lpc922$2337                   fb_lpc922
     0C:   00001874  A$fb_lpc922$2338                   fb_lpc922
     0C:   00001877  A$fb_lpc922$2342                   fb_lpc922
     0C:   00001877  C$fb_lpc922.c$532$3$3              fb_lpc922
     0C:   00001878  A$fb_lpc922$2343                   fb_lpc922
     0C:   0000187A  A$fb_lpc922$2344                   fb_lpc922
     0C:   0000187D  A$fb_lpc922$2345                   fb_lpc922
     0C:   0000187F  A$fb_lpc922$2346                   fb_lpc922
     0C:   00001881  A$fb_lpc922$2347                   fb_lpc922
     0C:   00001884  A$fb_lpc922$2348                   fb_lpc922
     0C:   00001886  A$fb_lpc922$2349                   fb_lpc922
     0C:   00001888  A$fb_lpc922$2353                   fb_lpc922
     0C:   00001888  C$fb_lpc922.c$533$3$3              fb_lpc922
     0C:   0000188B  A$fb_lpc922$2354                   fb_lpc922
     0C:   0000188D  A$fb_lpc922$2356                   fb_lpc922
     0C:   00001890  A$fb_lpc922$2358                   fb_lpc922
     0C:   00001891  A$fb_lpc922$2359                   fb_lpc922
     0C:   00001893  A$fb_lpc922$2360                   fb_lpc922
     0C:   00001896  A$fb_lpc922$2362                   fb_lpc922
     0C:   00001899  A$fb_lpc922$2363                   fb_lpc922
     0C:   0000189C  A$fb_lpc922$2364                   fb_lpc922
     0C:   0000189F  A$fb_lpc922$2368                   fb_lpc922
     0C:   0000189F  C$fb_lpc922.c$538$2$4              fb_lpc922
     0C:   000018A1  A$fb_lpc922$2369                   fb_lpc922
     0C:   000018A4  A$fb_lpc922$2370                   fb_lpc922
     0C:   000018A7  A$fb_lpc922$2374                   fb_lpc922
     0C:   000018A7  C$fb_lpc922.c$539$3$5              fb_lpc922
     0C:   000018AA  A$fb_lpc922$2375                   fb_lpc922
     0C:   000018AB  A$fb_lpc922$2376                   fb_lpc922
     0C:   000018AC  A$fb_lpc922$2377                   fb_lpc922
     0C:   000018AD  A$fb_lpc922$2378                   fb_lpc922
     0C:   000018AE  A$fb_lpc922$2379                   fb_lpc922
     0C:   000018B1  A$fb_lpc922$2380                   fb_lpc922
     0C:   000018B3  A$fb_lpc922$2382                   fb_lpc922
     0C:   000018B6  A$fb_lpc922$2384                   fb_lpc922
     0C:   000018B9  A$fb_lpc922$2385                   fb_lpc922
     0C:   000018BA  A$fb_lpc922$2386                   fb_lpc922
     0C:   000018BB  A$fb_lpc922$2387                   fb_lpc922
     0C:   000018BC  A$fb_lpc922$2388                   fb_lpc922
     0C:   000018BF  A$fb_lpc922$2389                   fb_lpc922
     0C:   000018C1  A$fb_lpc922$2391                   fb_lpc922
     0C:   000018C4  A$fb_lpc922$2395                   fb_lpc922
     0C:   000018C4  C$fb_lpc922.c$543$4$6              fb_lpc922
     0C:   000018C7  A$fb_lpc922$2396                   fb_lpc922
     0C:   000018C9  A$fb_lpc922$2398                   fb_lpc922
     0C:   000018CC  A$fb_lpc922$2399                   fb_lpc922
ASxxxx Linker V02.00 + NoICE + sdld,  page 105.
Hexadecimal  [32-Bits]

Area                                    Addr        Size        Decimal Bytes (Attributes)
--------------------------------        ----        ----        ------- ----- ------------
CSEG                                000000A5    00001BC5 =        7109. bytes (REL,CON,CODE)

      Value  Global                              Global Defined In Module
      -----  --------------------------------   ------------------------
     0C:   000018CE  A$fb_lpc922$2401                   fb_lpc922
     0C:   000018D1  A$fb_lpc922$2402                   fb_lpc922
     0C:   000018D3  A$fb_lpc922$2404                   fb_lpc922
     0C:   000018D6  A$fb_lpc922$2405                   fb_lpc922
     0C:   000018D8  A$fb_lpc922$2407                   fb_lpc922
     0C:   000018DB  A$fb_lpc922$2408                   fb_lpc922
     0C:   000018DD  A$fb_lpc922$2410                   fb_lpc922
     0C:   000018E0  A$fb_lpc922$2416                   fb_lpc922
     0C:   000018E0  C$fb_lpc922.c$545$5$7              fb_lpc922
     0C:   000018E0  C$fb_lpc922.c$546$5$7              fb_lpc922
     0C:   000018E2  A$fb_lpc922$2417                   fb_lpc922
     0C:   000018E3  A$fb_lpc922$2418                   fb_lpc922
     0C:   000018E5  A$fb_lpc922$2421                   fb_lpc922
     0C:   000018E5  C$fb_lpc922.c$547$5$7              fb_lpc922
     0C:   000018E8  A$fb_lpc922$2424                   fb_lpc922
     0C:   000018E8  C$fb_lpc922.c$548$5$7              fb_lpc922
     0C:   000018EB  A$fb_lpc922$2427                   fb_lpc922
     0C:   000018EB  C$fb_lpc922.c$549$6$8              fb_lpc922
     0C:   000018EE  A$fb_lpc922$2428                   fb_lpc922
     0C:   000018F0  A$fb_lpc922$2429                   fb_lpc922
     0C:   000018F3  A$fb_lpc922$2432                   fb_lpc922
     0C:   000018F3  C$fb_lpc922.c$550$6$8              fb_lpc922
     0C:   000018F6  A$fb_lpc922$2433                   fb_lpc922
     0C:   000018F8  A$fb_lpc922$2437                   fb_lpc922
     0C:   000018F8  C$fb_lpc922.c$552$5$7              fb_lpc922
     0C:   000018F9  A$fb_lpc922$2438                   fb_lpc922
     0C:   000018FB  A$fb_lpc922$2441                   fb_lpc922
     0C:   000018FB  C$fb_lpc922.c$553$6$9              fb_lpc922
     0C:   000018FE  A$fb_lpc922$2444                   fb_lpc922
     0C:   000018FE  C$fb_lpc922.c$554$6$9              fb_lpc922
     0C:   00001901  A$fb_lpc922$2447                   fb_lpc922
     0C:   00001901  C$fb_lpc922.c$555$6$9              fb_lpc922
     0C:   00001904  A$fb_lpc922$2450                   fb_lpc922
     0C:   00001904  C$fb_lpc922.c$556$6$9              fb_lpc922
     0C:   00001907  A$fb_lpc922$2451                   fb_lpc922
     0C:   0000190A  A$fb_lpc922$2454                   fb_lpc922
     0C:   0000190A  C$fb_lpc922.c$557$6$9              fb_lpc922
     0C:   0000190D  A$fb_lpc922$2455                   fb_lpc922
     0C:   00001910  A$fb_lpc922$2460                   fb_lpc922
     0C:   00001910  C$fb_lpc922.c$559$5$7              fb_lpc922
     0C:   00001910  C$fb_lpc922.c$561$5$7              fb_lpc922
     0C:   00001912  A$fb_lpc922$2464                   fb_lpc922
     0C:   00001912  C$fb_lpc922.c$562$5$7              fb_lpc922
     0C:   00001914  A$fb_lpc922$2465                   fb_lpc922
     0C:   00001915  A$fb_lpc922$2466                   fb_lpc922
     0C:   00001917  A$fb_lpc922$2469                   fb_lpc922
     0C:   00001917  C$fb_lpc922.c$563$5$7              fb_lpc922
     0C:   0000191A  A$fb_lpc922$2472                   fb_lpc922
     0C:   0000191A  C$fb_lpc922.c$564$6$10             fb_lpc922
     0C:   0000191D  A$fb_lpc922$2476                   fb_lpc922
     0C:   0000191D  C$fb_lpc922.c$566$5$7              fb_lpc922
ASxxxx Linker V02.00 + NoICE + sdld,  page 106.
Hexadecimal  [32-Bits]

Area                                    Addr        Size        Decimal Bytes (Attributes)
--------------------------------        ----        ----        ------- ----- ------------
CSEG                                000000A5    00001BC5 =        7109. bytes (REL,CON,CODE)

      Value  Global                              Global Defined In Module
      -----  --------------------------------   ------------------------
     0C:   0000191E  A$fb_lpc922$2477                   fb_lpc922
     0C:   00001920  A$fb_lpc922$2480                   fb_lpc922
     0C:   00001920  C$fb_lpc922.c$567$6$11             fb_lpc922
     0C:   00001923  A$fb_lpc922$2481                   fb_lpc922
     0C:   00001926  A$fb_lpc922$2484                   fb_lpc922
     0C:   00001926  C$fb_lpc922.c$568$6$11             fb_lpc922
     0C:   00001929  A$fb_lpc922$2485                   fb_lpc922
     0C:   0000192C  A$fb_lpc922$2490                   fb_lpc922
     0C:   0000192C  C$fb_lpc922.c$570$5$7              fb_lpc922
     0C:   0000192C  C$fb_lpc922.c$572$5$7              fb_lpc922
     0C:   0000192E  A$fb_lpc922$2494                   fb_lpc922
     0C:   0000192E  C$fb_lpc922.c$573$5$7              fb_lpc922
     0C:   00001931  A$fb_lpc922$2497                   fb_lpc922
     0C:   00001931  C$fb_lpc922.c$574$6$12             fb_lpc922
     0C:   00001933  A$fb_lpc922$2500                   fb_lpc922
     0C:   00001933  C$fb_lpc922.c$575$6$12             fb_lpc922
     0C:   00001936  A$fb_lpc922$2503                   fb_lpc922
     0C:   00001936  C$fb_lpc922.c$576$6$12             fb_lpc922
     0C:   00001939  A$fb_lpc922$2506                   fb_lpc922
     0C:   00001939  C$fb_lpc922.c$577$6$12             fb_lpc922
     0C:   0000193C  A$fb_lpc922$2509                   fb_lpc922
     0C:   0000193C  C$fb_lpc922.c$578$6$12             fb_lpc922
     0C:   0000193E  A$fb_lpc922$2514                   fb_lpc922
     0C:   0000193E  C$fb_lpc922.c$580$5$7              fb_lpc922
     0C:   0000193E  C$fb_lpc922.c$582$5$7              fb_lpc922
     0C:   00001940  A$fb_lpc922$2518                   fb_lpc922
     0C:   00001940  C$fb_lpc922.c$583$5$7              fb_lpc922
     0C:   00001942  A$fb_lpc922$2519                   fb_lpc922
     0C:   00001945  A$fb_lpc922$2520                   fb_lpc922
     0C:   00001947  A$fb_lpc922$2521                   fb_lpc922
     0C:   0000194A  A$fb_lpc922$2524                   fb_lpc922
     0C:   0000194A  C$fb_lpc922.c$584$6$13             fb_lpc922
     0C:   0000194D  A$fb_lpc922$2525                   fb_lpc922
     0C:   0000194F  A$fb_lpc922$2531                   fb_lpc922
     0C:   0000194F  C$fb_lpc922.c$588$5$7              fb_lpc922
     0C:   0000194F  C$fb_lpc922.c$590$5$7              fb_lpc922
     0C:   00001951  A$fb_lpc922$2535                   fb_lpc922
     0C:   00001951  C$fb_lpc922.c$591$5$7              fb_lpc922
     0C:   00001954  A$fb_lpc922$2536                   fb_lpc922
     0C:   00001957  A$fb_lpc922$2539                   fb_lpc922
     0C:   00001957  C$fb_lpc922.c$593$2$4              fb_lpc922
     0C:   00001959  A$fb_lpc922$2543                   fb_lpc922
     0C:   00001959  C$fb_lpc922.c$599$3$14             fb_lpc922
     0C:   0000195A  A$fb_lpc922$2544                   fb_lpc922
     0C:   0000195C  A$fb_lpc922$2547                   fb_lpc922
     0C:   0000195C  C$fb_lpc922.c$600$4$15             fb_lpc922
     0C:   0000195E  A$fb_lpc922$2548                   fb_lpc922
     0C:   0000195F  A$fb_lpc922$2549                   fb_lpc922
     0C:   00001960  A$fb_lpc922$2550                   fb_lpc922
     0C:   00001963  A$fb_lpc922$2551                   fb_lpc922
     0C:   00001965  A$fb_lpc922$2552                   fb_lpc922
ASxxxx Linker V02.00 + NoICE + sdld,  page 107.
Hexadecimal  [32-Bits]

Area                                    Addr        Size        Decimal Bytes (Attributes)
--------------------------------        ----        ----        ------- ----- ------------
CSEG                                000000A5    00001BC5 =        7109. bytes (REL,CON,CODE)

      Value  Global                              Global Defined In Module
      -----  --------------------------------   ------------------------
     0C:   00001968  A$fb_lpc922$2553                   fb_lpc922
     0C:   0000196A  A$fb_lpc922$2557                   fb_lpc922
     0C:   0000196A  C$fb_lpc922.c$601$4$15             fb_lpc922
     0C:   0000196B  A$fb_lpc922$2558                   fb_lpc922
     0C:   0000196D  A$fb_lpc922$2559                   fb_lpc922
     0C:   00001970  A$fb_lpc922$2563                   fb_lpc922
     0C:   00001970  C$fb_lpc922.c$605$1$1              fb_lpc922
     0C:   00001970  XG$process_tel$0$0                 fb_lpc922
     0C:   00001971  A$fb_lpc922$2578                   fb_lpc922
     0C:   00001971  C$fb_lpc922.c$612$1$1              fb_lpc922
     0C:   00001971  G$write_memory$0$0                 fb_lpc922
     0C:   00001971  _write_memory                      fb_lpc922
     0C:   00001973  A$fb_lpc922$2579                   fb_lpc922
     0C:   00001975  A$fb_lpc922$2580                   fb_lpc922
     0C:   00001977  A$fb_lpc922$2581                   fb_lpc922
     0C:   00001979  A$fb_lpc922$2582                   fb_lpc922
     0C:   0000197B  A$fb_lpc922$2585                   fb_lpc922
     0C:   0000197B  C$fb_lpc922.c$616$1$1              fb_lpc922
     0C:   0000197D  A$fb_lpc922$2586                   fb_lpc922
     0C:   0000197E  A$fb_lpc922$2587                   fb_lpc922
     0C:   00001980  A$fb_lpc922$2588                   fb_lpc922
     0C:   00001982  A$fb_lpc922$2589                   fb_lpc922
     0C:   00001983  A$fb_lpc922$2593                   fb_lpc922
     0C:   00001983  C$fb_lpc922.c$618$1$1              fb_lpc922
     0C:   00001985  A$fb_lpc922$2594                   fb_lpc922
     0C:   00001987  A$fb_lpc922$2597                   fb_lpc922
     0C:   00001987  C$fb_lpc922.c$620$1$1              fb_lpc922
     0C:   00001989  A$fb_lpc922$2600                   fb_lpc922
     0C:   00001989  C$fb_lpc922.c$621$1$1              fb_lpc922
     0C:   0000198C  A$fb_lpc922$2603                   fb_lpc922
     0C:   0000198C  C$fb_lpc922.c$622$2$2              fb_lpc922
     0C:   0000198E  A$fb_lpc922$2604                   fb_lpc922
     0C:   00001990  A$fb_lpc922$2605                   fb_lpc922
     0C:   00001992  A$fb_lpc922$2606                   fb_lpc922
     0C:   00001993  A$fb_lpc922$2607                   fb_lpc922
     0C:   00001995  A$fb_lpc922$2608                   fb_lpc922
     0C:   00001996  A$fb_lpc922$2609                   fb_lpc922
     0C:   00001998  A$fb_lpc922$2610                   fb_lpc922
     0C:   00001999  A$fb_lpc922$2611                   fb_lpc922
     0C:   0000199A  A$fb_lpc922$2612                   fb_lpc922
     0C:   0000199C  A$fb_lpc922$2614                   fb_lpc922
     0C:   0000199E  A$fb_lpc922$2615                   fb_lpc922
     0C:   0000199F  A$fb_lpc922$2616                   fb_lpc922
     0C:   000019A0  A$fb_lpc922$2617                   fb_lpc922
     0C:   000019A2  A$fb_lpc922$2618                   fb_lpc922
     0C:   000019A3  A$fb_lpc922$2619                   fb_lpc922
     0C:   000019A4  A$fb_lpc922$2620                   fb_lpc922
     0C:   000019A5  A$fb_lpc922$2621                   fb_lpc922
     0C:   000019A6  A$fb_lpc922$2622                   fb_lpc922
     0C:   000019A8  A$fb_lpc922$2623                   fb_lpc922
     0C:   000019AB  A$fb_lpc922$2627                   fb_lpc922
ASxxxx Linker V02.00 + NoICE + sdld,  page 108.
Hexadecimal  [32-Bits]

Area                                    Addr        Size        Decimal Bytes (Attributes)
--------------------------------        ----        ----        ------- ----- ------------
CSEG                                000000A5    00001BC5 =        7109. bytes (REL,CON,CODE)

      Value  Global                              Global Defined In Module
      -----  --------------------------------   ------------------------
     0C:   000019AB  C$fb_lpc922.c$623$2$2              fb_lpc922
     0C:   000019AC  A$fb_lpc922$2628                   fb_lpc922
     0C:   000019AE  A$fb_lpc922$2629                   fb_lpc922
     0C:   000019B0  A$fb_lpc922$2630                   fb_lpc922
     0C:   000019B2  A$fb_lpc922$2631                   fb_lpc922
     0C:   000019B4  A$fb_lpc922$2632                   fb_lpc922
     0C:   000019B6  A$fb_lpc922$2633                   fb_lpc922
     0C:   000019B7  A$fb_lpc922$2634                   fb_lpc922
     0C:   000019B8  A$fb_lpc922$2635                   fb_lpc922
     0C:   000019BA  A$fb_lpc922$2636                   fb_lpc922
     0C:   000019BC  A$fb_lpc922$2637                   fb_lpc922
     0C:   000019BD  A$fb_lpc922$2638                   fb_lpc922
     0C:   000019BE  A$fb_lpc922$2639                   fb_lpc922
     0C:   000019BF  A$fb_lpc922$2640                   fb_lpc922
     0C:   000019C0  A$fb_lpc922$2641                   fb_lpc922
     0C:   000019C1  A$fb_lpc922$2642                   fb_lpc922
     0C:   000019C2  A$fb_lpc922$2643                   fb_lpc922
     0C:   000019C5  A$fb_lpc922$2644                   fb_lpc922
     0C:   000019C8  A$fb_lpc922$2645                   fb_lpc922
     0C:   000019CA  A$fb_lpc922$2647                   fb_lpc922
     0C:   000019CC  A$fb_lpc922$2648                   fb_lpc922
     0C:   000019CE  A$fb_lpc922$2650                   fb_lpc922
     0C:   000019D0  A$fb_lpc922$2651                   fb_lpc922
     0C:   000019D2  A$fb_lpc922$2652                   fb_lpc922
     0C:   000019D3  A$fb_lpc922$2653                   fb_lpc922
     0C:   000019D4  A$fb_lpc922$2654                   fb_lpc922
     0C:   000019D6  A$fb_lpc922$2655                   fb_lpc922
     0C:   000019D7  A$fb_lpc922$2656                   fb_lpc922
     0C:   000019D9  A$fb_lpc922$2657                   fb_lpc922
     0C:   000019DA  A$fb_lpc922$2658                   fb_lpc922
     0C:   000019DC  A$fb_lpc922$2659                   fb_lpc922
     0C:   000019DE  A$fb_lpc922$2663                   fb_lpc922
     0C:   000019DE  C$fb_lpc922.c$624$2$2              fb_lpc922
     0C:   000019E0  A$fb_lpc922$2665                   fb_lpc922
     0C:   000019E2  A$fb_lpc922$2666                   fb_lpc922
     0C:   000019E3  A$fb_lpc922$2667                   fb_lpc922
     0C:   000019E4  A$fb_lpc922$2668                   fb_lpc922
     0C:   000019E5  A$fb_lpc922$2669                   fb_lpc922
     0C:   000019E6  A$fb_lpc922$2670                   fb_lpc922
     0C:   000019E8  A$fb_lpc922$2671                   fb_lpc922
     0C:   000019EA  A$fb_lpc922$2672                   fb_lpc922
     0C:   000019EB  A$fb_lpc922$2673                   fb_lpc922
     0C:   000019EC  A$fb_lpc922$2674                   fb_lpc922
     0C:   000019EE  A$fb_lpc922$2675                   fb_lpc922
     0C:   000019EF  A$fb_lpc922$2676                   fb_lpc922
     0C:   000019F1  A$fb_lpc922$2677                   fb_lpc922
     0C:   000019F2  A$fb_lpc922$2678                   fb_lpc922
     0C:   000019F4  A$fb_lpc922$2681                   fb_lpc922
     0C:   000019F4  C$fb_lpc922.c$626$2$2              fb_lpc922
     0C:   000019F6  A$fb_lpc922$2682                   fb_lpc922
     0C:   000019F8  A$fb_lpc922$2683                   fb_lpc922
ASxxxx Linker V02.00 + NoICE + sdld,  page 109.
Hexadecimal  [32-Bits]

Area                                    Addr        Size        Decimal Bytes (Attributes)
--------------------------------        ----        ----        ------- ----- ------------
CSEG                                000000A5    00001BC5 =        7109. bytes (REL,CON,CODE)

      Value  Global                              Global Defined In Module
      -----  --------------------------------   ------------------------
     0C:   000019FA  A$fb_lpc922$2684                   fb_lpc922
     0C:   000019FB  A$fb_lpc922$2685                   fb_lpc922
     0C:   000019FC  A$fb_lpc922$2686                   fb_lpc922
     0C:   000019FE  A$fb_lpc922$2687                   fb_lpc922
     0C:   00001A00  A$fb_lpc922$2688                   fb_lpc922
     0C:   00001A01  A$fb_lpc922$2689                   fb_lpc922
     0C:   00001A02  A$fb_lpc922$2690                   fb_lpc922
     0C:   00001A03  A$fb_lpc922$2691                   fb_lpc922
     0C:   00001A04  A$fb_lpc922$2692                   fb_lpc922
     0C:   00001A06  A$fb_lpc922$2693                   fb_lpc922
     0C:   00001A08  A$fb_lpc922$2694                   fb_lpc922
     0C:   00001A0A  A$fb_lpc922$2695                   fb_lpc922
     0C:   00001A0B  A$fb_lpc922$2696                   fb_lpc922
     0C:   00001A0C  A$fb_lpc922$2697                   fb_lpc922
     0C:   00001A0D  A$fb_lpc922$2698                   fb_lpc922
     0C:   00001A0E  A$fb_lpc922$2699                   fb_lpc922
     0C:   00001A0F  A$fb_lpc922$2700                   fb_lpc922
     0C:   00001A10  A$fb_lpc922$2701                   fb_lpc922
     0C:   00001A11  A$fb_lpc922$2702                   fb_lpc922
     0C:   00001A14  A$fb_lpc922$2703                   fb_lpc922
     0C:   00001A16  A$fb_lpc922$2704                   fb_lpc922
     0C:   00001A19  A$fb_lpc922$2705                   fb_lpc922
     0C:   00001A1C  A$fb_lpc922$2706                   fb_lpc922
     0C:   00001A1E  A$fb_lpc922$2707                   fb_lpc922
     0C:   00001A1F  A$fb_lpc922$2708                   fb_lpc922
     0C:   00001A21  A$fb_lpc922$2709                   fb_lpc922
     0C:   00001A23  A$fb_lpc922$2710                   fb_lpc922
     0C:   00001A24  A$fb_lpc922$2711                   fb_lpc922
     0C:   00001A27  A$fb_lpc922$2712                   fb_lpc922
     0C:   00001A28  A$fb_lpc922$2714                   fb_lpc922
     0C:   00001A2A  A$fb_lpc922$2715                   fb_lpc922
     0C:   00001A2C  A$fb_lpc922$2716                   fb_lpc922
     0C:   00001A2D  A$fb_lpc922$2717                   fb_lpc922
     0C:   00001A2E  A$fb_lpc922$2718                   fb_lpc922
     0C:   00001A31  A$fb_lpc922$2719                   fb_lpc922
     0C:   00001A32  A$fb_lpc922$2720                   fb_lpc922
     0C:   00001A33  A$fb_lpc922$2721                   fb_lpc922
     0C:   00001A36  A$fb_lpc922$2722                   fb_lpc922
     0C:   00001A38  A$fb_lpc922$2726                   fb_lpc922
     0C:   00001A38  C$fb_lpc922.c$627$3$3              fb_lpc922
     0C:   00001A3B  A$fb_lpc922$2729                   fb_lpc922
     0C:   00001A3B  C$fb_lpc922.c$628$3$3              fb_lpc922
     0C:   00001A3E  A$fb_lpc922$2733                   fb_lpc922
     0C:   00001A3E  C$fb_lpc922.c$622$1$1              fb_lpc922
     0C:   00001A40  A$fb_lpc922$2734                   fb_lpc922
     0C:   00001A41  A$fb_lpc922$2735                   fb_lpc922
     0C:   00001A42  A$fb_lpc922$2736                   fb_lpc922
     0C:   00001A43  A$fb_lpc922$2737                   fb_lpc922
     0C:   00001A46  A$fb_lpc922$2741                   fb_lpc922
     0C:   00001A46  C$fb_lpc922.c$631$1$1              fb_lpc922
     0C:   00001A49  A$fb_lpc922$2744                   fb_lpc922
ASxxxx Linker V02.00 + NoICE + sdld,  page 110.
Hexadecimal  [32-Bits]

Area                                    Addr        Size        Decimal Bytes (Attributes)
--------------------------------        ----        ----        ------- ----- ------------
CSEG                                000000A5    00001BC5 =        7109. bytes (REL,CON,CODE)

      Value  Global                              Global Defined In Module
      -----  --------------------------------   ------------------------
     0C:   00001A49  C$fb_lpc922.c$632$1$1              fb_lpc922
     0C:   00001A4B  A$fb_lpc922$2745                   fb_lpc922
     0C:   00001A4E  A$fb_lpc922$2746                   fb_lpc922
     0C:   00001A50  A$fb_lpc922$2749                   fb_lpc922
     0C:   00001A50  C$fb_lpc922.c$633$1$1              fb_lpc922
     0C:   00001A50  XG$write_memory$0$0                fb_lpc922
     0C:   00001A51  A$fb_lpc922$2763                   fb_lpc922
     0C:   00001A51  C$fb_lpc922.c$637$1$1              fb_lpc922
     0C:   00001A51  C$fb_lpc922.c$639$1$1              fb_lpc922
     0C:   00001A51  G$set_pa$0$0                       fb_lpc922
     0C:   00001A51  _set_pa                            fb_lpc922
     0C:   00001A53  A$fb_lpc922$2764                   fb_lpc922
     0C:   00001A55  A$fb_lpc922$2767                   fb_lpc922
     0C:   00001A55  C$fb_lpc922.c$640$1$1              fb_lpc922
     0C:   00001A57  A$fb_lpc922$2770                   fb_lpc922
     0C:   00001A57  C$fb_lpc922.c$641$1$1              fb_lpc922
     0C:   00001A5A  A$fb_lpc922$2773                   fb_lpc922
     0C:   00001A5A  C$fb_lpc922.c$642$1$1              fb_lpc922
     0C:   00001A5D  A$fb_lpc922$2776                   fb_lpc922
     0C:   00001A5D  C$fb_lpc922.c$643$1$1              fb_lpc922
     0C:   00001A60  A$fb_lpc922$2779                   fb_lpc922
     0C:   00001A60  C$fb_lpc922.c$644$1$1              fb_lpc922
     0C:   00001A63  A$fb_lpc922$2782                   fb_lpc922
     0C:   00001A63  C$fb_lpc922.c$645$1$1              fb_lpc922
     0C:   00001A66  A$fb_lpc922$2785                   fb_lpc922
     0C:   00001A66  C$fb_lpc922.c$646$1$1              fb_lpc922
     0C:   00001A69  A$fb_lpc922$2788                   fb_lpc922
     0C:   00001A69  C$fb_lpc922.c$647$1$1              fb_lpc922
     0C:   00001A6B  A$fb_lpc922$2791                   fb_lpc922
     0C:   00001A6B  C$fb_lpc922.c$648$1$1              fb_lpc922
     0C:   00001A6B  XG$set_pa$0$0                      fb_lpc922
     0C:   00001A6C  A$fb_lpc922$2804                   fb_lpc922
     0C:   00001A6C  C$fb_lpc922.c$653$1$1              fb_lpc922
     0C:   00001A6C  G$read_objflags$0$0                fb_lpc922
     0C:   00001A6C  _read_objflags                     fb_lpc922
     0C:   00001A6E  A$fb_lpc922$2807                   fb_lpc922
     0C:   00001A6E  C$fb_lpc922.c$655$1$1              fb_lpc922
     0C:   00001A71  A$fb_lpc922$2808                   fb_lpc922
     0C:   00001A72  A$fb_lpc922$2809                   fb_lpc922
     0C:   00001A73  A$fb_lpc922$2810                   fb_lpc922
     0C:   00001A74  A$fb_lpc922$2811                   fb_lpc922
     0C:   00001A75  A$fb_lpc922$2812                   fb_lpc922
     0C:   00001A76  A$fb_lpc922$2813                   fb_lpc922
     0C:   00001A77  A$fb_lpc922$2814                   fb_lpc922
     0C:   00001A78  A$fb_lpc922$2815                   fb_lpc922
     0C:   00001A7B  A$fb_lpc922$2816                   fb_lpc922
     0C:   00001A7C  A$fb_lpc922$2817                   fb_lpc922
     0C:   00001A7D  A$fb_lpc922$2818                   fb_lpc922
     0C:   00001A80  A$fb_lpc922$2819                   fb_lpc922
     0C:   00001A81  A$fb_lpc922$2822                   fb_lpc922
     0C:   00001A81  C$fb_lpc922.c$656$1$1              fb_lpc922
ASxxxx Linker V02.00 + NoICE + sdld,  page 111.
Hexadecimal  [32-Bits]

Area                                    Addr        Size        Decimal Bytes (Attributes)
--------------------------------        ----        ----        ------- ----- ------------
CSEG                                000000A5    00001BC5 =        7109. bytes (REL,CON,CODE)

      Value  Global                              Global Defined In Module
      -----  --------------------------------   ------------------------
     0C:   00001A81  XG$read_objflags$0$0               fb_lpc922
     0C:   00001A83  A$fb_lpc922$2823                   fb_lpc922
     0C:   00001A84  A$fb_lpc922$2844                   fb_lpc922
     0C:   00001A84  C$fb_lpc922.c$660$1$1              fb_lpc922
     0C:   00001A84  G$find_first_objno$0$0             fb_lpc922
     0C:   00001A84  _find_first_objno                  fb_lpc922
     0C:   00001A86  A$fb_lpc922$2845                   fb_lpc922
     0C:   00001A89  A$fb_lpc922$2846                   fb_lpc922
     0C:   00001A8B  A$fb_lpc922$2849                   fb_lpc922
     0C:   00001A8B  C$fb_lpc922.c$664$1$1              fb_lpc922
     0C:   00001A8D  A$fb_lpc922$2852                   fb_lpc922
     0C:   00001A8D  C$fb_lpc922.c$665$1$1              fb_lpc922
     0C:   00001A8F  A$fb_lpc922$2853                   fb_lpc922
     0C:   00001A91  A$fb_lpc922$2854                   fb_lpc922
     0C:   00001A93  A$fb_lpc922$2855                   fb_lpc922
     0C:   00001A94  A$fb_lpc922$2856                   fb_lpc922
     0C:   00001A95  A$fb_lpc922$2857                   fb_lpc922
     0C:   00001A97  A$fb_lpc922$2858                   fb_lpc922
     0C:   00001A99  A$fb_lpc922$2859                   fb_lpc922
     0C:   00001A9C  A$fb_lpc922$2860                   fb_lpc922
     0C:   00001A9E  A$fb_lpc922$2861                   fb_lpc922
     0C:   00001AA0  A$fb_lpc922$2862                   fb_lpc922
     0C:   00001AA2  A$fb_lpc922$2865                   fb_lpc922
     0C:   00001AA2  C$fb_lpc922.c$667$1$1              fb_lpc922
     0C:   00001AA5  A$fb_lpc922$2866                   fb_lpc922
     0C:   00001AA6  A$fb_lpc922$2867                   fb_lpc922
     0C:   00001AA7  A$fb_lpc922$2870                   fb_lpc922
     0C:   00001AA7  C$fb_lpc922.c$668$1$1              fb_lpc922
     0C:   00001AA8  A$fb_lpc922$2871                   fb_lpc922
     0C:   00001AAA  A$fb_lpc922$2872                   fb_lpc922
     0C:   00001AAD  A$fb_lpc922$2873                   fb_lpc922
     0C:   00001AAE  A$fb_lpc922$2874                   fb_lpc922
     0C:   00001AAF  A$fb_lpc922$2875                   fb_lpc922
     0C:   00001AB0  A$fb_lpc922$2878                   fb_lpc922
     0C:   00001AB0  C$fb_lpc922.c$669$1$1              fb_lpc922
     0C:   00001AB3  A$fb_lpc922$2879                   fb_lpc922
     0C:   00001AB5  A$fb_lpc922$2883                   fb_lpc922
     0C:   00001AB5  C$fb_lpc922.c$670$2$2              fb_lpc922
     0C:   00001AB7  A$fb_lpc922$2886                   fb_lpc922
     0C:   00001AB7  C$fb_lpc922.c$671$2$2              fb_lpc922
     0C:   00001AB8  A$fb_lpc922$2890                   fb_lpc922
     0C:   00001AB8  C$fb_lpc922.c$672$1$1              fb_lpc922
     0C:   00001AB9  A$fb_lpc922$2891                   fb_lpc922
     0C:   00001ABA  A$fb_lpc922$2892                   fb_lpc922
     0C:   00001ABB  A$fb_lpc922$2893                   fb_lpc922
     0C:   00001ABD  A$fb_lpc922$2896                   fb_lpc922
     0C:   00001ABD  C$fb_lpc922.c$673$3$3              fb_lpc922
     0C:   00001ABF  A$fb_lpc922$2897                   fb_lpc922
     0C:   00001AC2  A$fb_lpc922$2898                   fb_lpc922
     0C:   00001AC3  A$fb_lpc922$2899                   fb_lpc922
     0C:   00001AC4  A$fb_lpc922$2900                   fb_lpc922
ASxxxx Linker V02.00 + NoICE + sdld,  page 112.
Hexadecimal  [32-Bits]

Area                                    Addr        Size        Decimal Bytes (Attributes)
--------------------------------        ----        ----        ------- ----- ------------
CSEG                                000000A5    00001BC5 =        7109. bytes (REL,CON,CODE)

      Value  Global                              Global Defined In Module
      -----  --------------------------------   ------------------------
     0C:   00001AC5  A$fb_lpc922$2903                   fb_lpc922
     0C:   00001AC5  C$fb_lpc922.c$674$3$3              fb_lpc922
     0C:   00001AC6  A$fb_lpc922$2904                   fb_lpc922
     0C:   00001AC9  A$fb_lpc922$2907                   fb_lpc922
     0C:   00001AC9  C$fb_lpc922.c$675$4$4              fb_lpc922
     0C:   00001ACA  A$fb_lpc922$2908                   fb_lpc922
     0C:   00001ACB  A$fb_lpc922$2909                   fb_lpc922
     0C:   00001ACE  A$fb_lpc922$2910                   fb_lpc922
     0C:   00001ACF  A$fb_lpc922$2911                   fb_lpc922
     0C:   00001AD0  A$fb_lpc922$2912                   fb_lpc922
     0C:   00001AD1  A$fb_lpc922$2915                   fb_lpc922
     0C:   00001AD1  C$fb_lpc922.c$676$4$4              fb_lpc922
     0C:   00001AD3  A$fb_lpc922$2919                   fb_lpc922
     0C:   00001AD3  C$fb_lpc922.c$678$3$3              fb_lpc922
     0C:   00001AD4  A$fb_lpc922$2922                   fb_lpc922
     0C:   00001AD4  C$fb_lpc922.c$679$3$3              fb_lpc922
     0C:   00001AD5  A$fb_lpc922$2923                   fb_lpc922
     0C:   00001AD6  A$fb_lpc922$2924                   fb_lpc922
     0C:   00001AD8  A$fb_lpc922$2928                   fb_lpc922
     0C:   00001AD8  C$fb_lpc922.c$682$1$1              fb_lpc922
     0C:   00001ADA  A$fb_lpc922$2929                   fb_lpc922
     0C:   00001ADC  A$fb_lpc922$2932                   fb_lpc922
     0C:   00001ADC  C$fb_lpc922.c$683$1$1              fb_lpc922
     0C:   00001ADC  XG$find_first_objno$0$0            fb_lpc922
     0C:   00001ADD  A$fb_lpc922$2949                   fb_lpc922
     0C:   00001ADD  C$fb_lpc922.c$687$1$1              fb_lpc922
     0C:   00001ADD  G$find_ga$0$0                      fb_lpc922
     0C:   00001ADD  _find_ga                           fb_lpc922
     0C:   00001ADF  A$fb_lpc922$2952                   fb_lpc922
     0C:   00001ADF  C$fb_lpc922.c$692$1$1              fb_lpc922
     0C:   00001AE1  A$fb_lpc922$2955                   fb_lpc922
     0C:   00001AE1  C$fb_lpc922.c$693$1$1              fb_lpc922
     0C:   00001AE4  A$fb_lpc922$2956                   fb_lpc922
     0C:   00001AE5  A$fb_lpc922$2957                   fb_lpc922
     0C:   00001AE6  A$fb_lpc922$2958                   fb_lpc922
     0C:   00001AE7  A$fb_lpc922$2961                   fb_lpc922
     0C:   00001AE7  C$fb_lpc922.c$694$1$1              fb_lpc922
     0C:   00001AE8  A$fb_lpc922$2962                   fb_lpc922
     0C:   00001AE9  A$fb_lpc922$2963                   fb_lpc922
     0C:   00001AEA  A$fb_lpc922$2964                   fb_lpc922
     0C:   00001AEB  A$fb_lpc922$2967                   fb_lpc922
     0C:   00001AEB  C$fb_lpc922.c$696$1$1              fb_lpc922
     0C:   00001AEC  A$fb_lpc922$2968                   fb_lpc922
     0C:   00001AED  A$fb_lpc922$2969                   fb_lpc922
     0C:   00001AF0  A$fb_lpc922$2970                   fb_lpc922
     0C:   00001AF1  A$fb_lpc922$2971                   fb_lpc922
     0C:   00001AF2  A$fb_lpc922$2972                   fb_lpc922
     0C:   00001AF5  A$fb_lpc922$2973                   fb_lpc922
     0C:   00001AF7  A$fb_lpc922$2974                   fb_lpc922
     0C:   00001AFA  A$fb_lpc922$2975                   fb_lpc922
     0C:   00001AFB  A$fb_lpc922$2976                   fb_lpc922
ASxxxx Linker V02.00 + NoICE + sdld,  page 113.
Hexadecimal  [32-Bits]

Area                                    Addr        Size        Decimal Bytes (Attributes)
--------------------------------        ----        ----        ------- ----- ------------
CSEG                                000000A5    00001BC5 =        7109. bytes (REL,CON,CODE)

      Value  Global                              Global Defined In Module
      -----  --------------------------------   ------------------------
     0C:   00001AFC  A$fb_lpc922$2977                   fb_lpc922
     0C:   00001AFD  A$fb_lpc922$2978                   fb_lpc922
     0C:   00001AFE  A$fb_lpc922$2982                   fb_lpc922
     0C:   00001AFE  C$fb_lpc922.c$698$1$1              fb_lpc922
     0C:   00001B01  A$fb_lpc922$2983                   fb_lpc922
     0C:   00001B03  A$fb_lpc922$2987                   fb_lpc922
     0C:   00001B03  C$fb_lpc922.c$700$2$2              fb_lpc922
     0C:   00001B04  A$fb_lpc922$2988                   fb_lpc922
     0C:   00001B05  A$fb_lpc922$2989                   fb_lpc922
     0C:   00001B06  A$fb_lpc922$2990                   fb_lpc922
     0C:   00001B08  A$fb_lpc922$2991                   fb_lpc922
     0C:   00001B0B  A$fb_lpc922$2992                   fb_lpc922
     0C:   00001B0C  A$fb_lpc922$2993                   fb_lpc922
     0C:   00001B0D  A$fb_lpc922$2994                   fb_lpc922
     0C:   00001B0F  A$fb_lpc922$2997                   fb_lpc922
     0C:   00001B0F  C$fb_lpc922.c$701$2$2              fb_lpc922
     0C:   00001B11  A$fb_lpc922$2998                   fb_lpc922
     0C:   00001B12  A$fb_lpc922$2999                   fb_lpc922
     0C:   00001B15  A$fb_lpc922$3000                   fb_lpc922
     0C:   00001B16  A$fb_lpc922$3001                   fb_lpc922
     0C:   00001B17  A$fb_lpc922$3002                   fb_lpc922
     0C:   00001B19  A$fb_lpc922$3003                   fb_lpc922
     0C:   00001B1A  A$fb_lpc922$3004                   fb_lpc922
     0C:   00001B1B  A$fb_lpc922$3005                   fb_lpc922
     0C:   00001B1C  A$fb_lpc922$3006                   fb_lpc922
     0C:   00001B1D  A$fb_lpc922$3007                   fb_lpc922
     0C:   00001B1E  A$fb_lpc922$3008                   fb_lpc922
     0C:   00001B20  A$fb_lpc922$3012                   fb_lpc922
     0C:   00001B20  C$fb_lpc922.c$703$1$1              fb_lpc922
     0C:   00001B22  A$fb_lpc922$3013                   fb_lpc922
     0C:   00001B24  A$fb_lpc922$3017                   fb_lpc922
     0C:   00001B24  C$fb_lpc922.c$705$1$1              fb_lpc922
     0C:   00001B26  A$fb_lpc922$3018                   fb_lpc922
     0C:   00001B28  A$fb_lpc922$3021                   fb_lpc922
     0C:   00001B28  C$fb_lpc922.c$706$1$1              fb_lpc922
     0C:   00001B28  XG$find_ga$0$0                     fb_lpc922
     0C:   00001B29  A$fb_lpc922$3034                   fb_lpc922
     0C:   00001B29  C$fb_lpc922.c$711$1$1              fb_lpc922
     0C:   00001B29  C$fb_lpc922.c$713$1$1              fb_lpc922
     0C:   00001B29  G$restart_hw$0$0                   fb_lpc922
     0C:   00001B29  _restart_hw                        fb_lpc922
     0C:   00001B2C  A$fb_lpc922$3037                   fb_lpc922
     0C:   00001B2C  C$fb_lpc922.c$715$1$1              fb_lpc922
     0C:   00001B2F  A$fb_lpc922$3040                   fb_lpc922
     0C:   00001B2F  C$fb_lpc922.c$716$1$1              fb_lpc922
     0C:   00001B32  A$fb_lpc922$3043                   fb_lpc922
     0C:   00001B32  C$fb_lpc922.c$720$1$1              fb_lpc922
     0C:   00001B34  A$fb_lpc922$3046                   fb_lpc922
     0C:   00001B34  C$fb_lpc922.c$722$1$1              fb_lpc922
     0C:   00001B37  A$fb_lpc922$3049                   fb_lpc922
     0C:   00001B37  C$fb_lpc922.c$723$1$1              fb_lpc922
ASxxxx Linker V02.00 + NoICE + sdld,  page 114.
Hexadecimal  [32-Bits]

Area                                    Addr        Size        Decimal Bytes (Attributes)
--------------------------------        ----        ----        ------- ----- ------------
CSEG                                000000A5    00001BC5 =        7109. bytes (REL,CON,CODE)

      Value  Global                              Global Defined In Module
      -----  --------------------------------   ------------------------
     0C:   00001B3A  A$fb_lpc922$3052                   fb_lpc922
     0C:   00001B3A  C$fb_lpc922.c$724$1$1              fb_lpc922
     0C:   00001B3C  A$fb_lpc922$3055                   fb_lpc922
     0C:   00001B3C  C$fb_lpc922.c$725$1$1              fb_lpc922
     0C:   00001B3E  A$fb_lpc922$3058                   fb_lpc922
     0C:   00001B3E  C$fb_lpc922.c$726$1$1              fb_lpc922
     0C:   00001B41  A$fb_lpc922$3061                   fb_lpc922
     0C:   00001B41  C$fb_lpc922.c$727$1$1              fb_lpc922
     0C:   00001B44  A$fb_lpc922$3064                   fb_lpc922
     0C:   00001B44  C$fb_lpc922.c$728$1$1              fb_lpc922
     0C:   00001B46  A$fb_lpc922$3067                   fb_lpc922
     0C:   00001B46  C$fb_lpc922.c$730$1$1              fb_lpc922
     0C:   00001B49  A$fb_lpc922$3070                   fb_lpc922
     0C:   00001B49  C$fb_lpc922.c$731$1$1              fb_lpc922
     0C:   00001B4C  A$fb_lpc922$3073                   fb_lpc922
     0C:   00001B4C  C$fb_lpc922.c$732$1$1              fb_lpc922
     0C:   00001B4F  A$fb_lpc922$3076                   fb_lpc922
     0C:   00001B4F  C$fb_lpc922.c$734$1$1              fb_lpc922
     0C:   00001B51  A$fb_lpc922$3079                   fb_lpc922
     0C:   00001B51  C$fb_lpc922.c$735$1$1              fb_lpc922
     0C:   00001B54  A$fb_lpc922$3082                   fb_lpc922
     0C:   00001B54  C$fb_lpc922.c$736$1$1              fb_lpc922
     0C:   00001B57  A$fb_lpc922$3085                   fb_lpc922
     0C:   00001B57  C$fb_lpc922.c$738$1$1              fb_lpc922
     0C:   00001B59  A$fb_lpc922$3088                   fb_lpc922
     0C:   00001B59  C$fb_lpc922.c$739$1$1              fb_lpc922
     0C:   00001B5B  A$fb_lpc922$3091                   fb_lpc922
     0C:   00001B5B  C$fb_lpc922.c$740$1$1              fb_lpc922
     0C:   00001B5D  A$fb_lpc922$3094                   fb_lpc922
     0C:   00001B5D  C$fb_lpc922.c$741$1$1              fb_lpc922
     0C:   00001B5F  A$fb_lpc922$3097                   fb_lpc922
     0C:   00001B5F  C$fb_lpc922.c$743$1$1              fb_lpc922
     0C:   00001B62  A$fb_lpc922$3100                   fb_lpc922
     0C:   00001B62  C$fb_lpc922.c$744$1$1              fb_lpc922
     0C:   00001B65  A$fb_lpc922$3103                   fb_lpc922
     0C:   00001B65  C$fb_lpc922.c$745$1$1              fb_lpc922
     0C:   00001B67  A$fb_lpc922$3106                   fb_lpc922
     0C:   00001B67  C$fb_lpc922.c$747$1$1              fb_lpc922
     0C:   00001B6A  A$fb_lpc922$3109                   fb_lpc922
     0C:   00001B6A  C$fb_lpc922.c$749$1$1              fb_lpc922
     0C:   00001B6C  A$fb_lpc922$3112                   fb_lpc922
     0C:   00001B6C  C$fb_lpc922.c$750$1$1              fb_lpc922
     0C:   00001B6E  A$fb_lpc922$3115                   fb_lpc922
     0C:   00001B6E  C$fb_lpc922.c$751$1$1              fb_lpc922
     0C:   00001B70  A$fb_lpc922$3118                   fb_lpc922
     0C:   00001B70  C$fb_lpc922.c$752$1$1              fb_lpc922
     0C:   00001B72  A$fb_lpc922$3121                   fb_lpc922
     0C:   00001B72  C$fb_lpc922.c$753$1$1              fb_lpc922
     0C:   00001B74  A$fb_lpc922$3124                   fb_lpc922
     0C:   00001B74  C$fb_lpc922.c$754$1$1              fb_lpc922
     0C:   00001B76  A$fb_lpc922$3127                   fb_lpc922
ASxxxx Linker V02.00 + NoICE + sdld,  page 115.
Hexadecimal  [32-Bits]

Area                                    Addr        Size        Decimal Bytes (Attributes)
--------------------------------        ----        ----        ------- ----- ------------
CSEG                                000000A5    00001BC5 =        7109. bytes (REL,CON,CODE)

      Value  Global                              Global Defined In Module
      -----  --------------------------------   ------------------------
     0C:   00001B76  C$fb_lpc922.c$755$1$1              fb_lpc922
     0C:   00001B79  A$fb_lpc922$3130                   fb_lpc922
     0C:   00001B79  C$fb_lpc922.c$756$1$1              fb_lpc922
     0C:   00001B7C  A$fb_lpc922$3133                   fb_lpc922
     0C:   00001B7C  C$fb_lpc922.c$757$1$1              fb_lpc922
     0C:   00001B7F  A$fb_lpc922$3136                   fb_lpc922
     0C:   00001B7F  C$fb_lpc922.c$758$1$1              fb_lpc922
     0C:   00001B81  A$fb_lpc922$3139                   fb_lpc922
     0C:   00001B81  C$fb_lpc922.c$759$1$1              fb_lpc922
     0C:   00001B83  A$fb_lpc922$3142                   fb_lpc922
     0C:   00001B83  C$fb_lpc922.c$760$1$1              fb_lpc922
     0C:   00001B85  A$fb_lpc922$3145                   fb_lpc922
     0C:   00001B85  C$fb_lpc922.c$761$1$1              fb_lpc922
     0C:   00001B88  A$fb_lpc922$3148                   fb_lpc922
     0C:   00001B88  C$fb_lpc922.c$762$1$1              fb_lpc922
     0C:   00001B88  XG$restart_hw$0$0                  fb_lpc922
     0C:   00001B89  __divulong                         _divulong
     0C:   00001B8F  __divlong                          _divulong
     0C:   00001BF6  __mullong                          _mullong
     0C:   00001BF6  __mullong_dummy                    _mullong
     0C:   00001C66  __sdcc_external_startup            _startup

ASxxxx Linker V02.00 + NoICE + sdld,  page 116.
Hexadecimal  [32-Bits]

Area                                    Addr        Size        Decimal Bytes (Attributes)
--------------------------------        ----        ----        ------- ----- ------------
CONST                               00001C6A    00000018 =          24. bytes (REL,CON,CODE)

      Value  Global                              Global Defined In Module
      -----  --------------------------------   ------------------------
     0C:   00001C6A  G$bitmask_1$0$0                    fb_counter
     0C:   00001C6A  _bitmask_1                         fb_counter
     0C:   00001C72  G$paraindex_timer$0$0              fb_app_counter
     0C:   00001C72  _paraindex_timer                   fb_app_counter
     0C:   00001C7A  G$objno_timer$0$0                  fb_app_counter
     0C:   00001C7A  _objno_timer                       fb_app_counter
ASxxxx Linker V02.00 + NoICE + sdld,  page 117.

Files Linked                              [ module(s) ]

fb_counter.rel                            [  ]
fb_app_counter.rel                        [  ]


Libraries Linked                          [ object file ]

C:\Freebus\C_Programme\oldisprogramm\lib_lpc922\Release/fb_lpc922.lib
                                          [ fb_lpc922 ]
C:\Programme\SDCC\bin\..\lib\small-stack-auto/mcs51.lib
                                          [ crtclear.rel ]
C:\Programme\SDCC\bin\..\lib\small-stack-auto/mcs51.lib
                                          [ crtxinit.rel ]
C:\Programme\SDCC\bin\..\lib\small-stack-auto/mcs51.lib
                                          [ crtxclear.rel ]
C:\Programme\SDCC\bin\..\lib\small-stack-auto/liblong.lib
                                          [ _divulong.rel ]
C:\Programme\SDCC\bin\..\lib\small-stack-auto/libsdcc.lib
                                          [ _bp.rel ]
C:\Programme\SDCC\bin\..\lib\small-stack-auto/mcs51.lib
                                          [ crtpagesfr.rel ]
C:\Programme\SDCC\bin\..\lib\small-stack-auto/mcs51.lib
                                          [ crtstart.rel ]
C:\Programme\SDCC\bin\..\lib\small-stack-auto/liblong.lib
                                          [ _mullong.rel ]
C:\Programme\SDCC\bin\..\lib\small-stack-auto/libsdcc.lib
                                          [ _startup.rel ]

ASxxxx Linker V02.00 + NoICE + sdld,  page 118.

User Base Address Definitions

HOME = 0x0000
DSEG = 0x0020
ISEG = 0x0000
BSEG = 0x0000

